ccopy_reg
_reconstructor
p0
(cmy_oddsportal.items
WinOverUnderItem
p1
c__builtin__
object
p2
Ntp3
Rp4
(dp5
S'_values'
p6
(dp7
S'ysb8'
p8
(lp9
(lp10
V2017-11-16 09:02
p11
aV218.5
p12
aV0.95
p13
aV0.95
p14
aI00
aa(lp15
V2017-11-16 08:18
p16
aV219
p17
aV0.95
p18
aV0.95
p19
aI00
aa(lp20
V2017-11-16 08:09
p21
aV218.5
p22
aV0.95
p23
aV0.95
p24
aI00
aa(lp25
V2017-11-16 08:07
p26
aV219
p27
aV0.95
p28
aV0.95
p29
aI00
aa(lp30
V2017-11-16 06:48
p31
aV218.5
p32
aV0.95
p33
aV0.95
p34
aI00
aa(lp35
V2017-11-16 06:46
p36
aV219
p37
aV0.95
p38
aV0.95
p39
aI00
aa(lp40
V2017-11-16 06:45
p41
aV219.5
p42
aV0.95
p43
aV0.95
p44
aI00
aa(lp45
V2017-11-16 06:41
p46
aV220
p47
aV0.95
p48
aV0.95
p49
aI00
aa(lp50
V2017-11-16 06:17
p51
aV220.5
p52
aV0.95
p53
aV0.95
p54
aI00
aa(lp55
V2017-11-16 05:19
p56
aV219.5
p57
aV0.95
p58
aV0.95
p59
aI00
aa(lp60
V2017-11-16 03:22
p61
aV219
p62
aV0.95
p63
aV0.95
p64
aI00
aa(lp65
V2017-11-16 03:09
p66
aV218.5
p67
aV0.95
p68
aV0.95
p69
aI00
aa(lp70
V2017-11-16 02:27
p71
aV219
p72
aV0.95
p73
aV0.95
p74
aI00
aa(lp75
V2017-11-16 00:41
p76
aV219.5
p77
aV0.95
p78
aV0.95
p79
aI00
aa(lp80
V2017-11-16 00:39
p81
aV218.5
p82
aV0.95
p83
aV0.95
p84
aI00
aa(lp85
V2017-11-16 00:35
p86
aV217.5
p87
aV0.95
p88
aV0.95
p89
aI00
aa(lp90
V2017-11-15 21:40
p91
aV217
p92
aV0.95
p93
aV0.95
p94
aI00
aa(lp95
V2017-11-15 20:09
p96
aV217.5
p97
aV0.95
p98
aV0.95
p99
aI00
aa(lp100
V2017-11-15 14:29
p101
aV218
p102
aV0.95
p103
aV0.95
p104
aI00
aa(lp105
V2017-11-15 12:04
p106
aV219
p107
aV0.95
p108
aV0.95
p109
aI00
aasS'macau'
p110
(lp111
(lp112
V2017-11-16 09:08
p113
aV219.5
p114
aV0.86
p115
aV0.80
p116
aI00
aa(lp117
V2017-11-16 06:14
p118
aV219.5
p119
aV0.90
p120
aV0.80
p121
aI00
aa(lp122
V2017-11-15 14:49
p123
aV218.5
p124
aV0.90
p125
aV0.80
p126
aI00
aasS'title'
p127
V\u000a                \u590f\u6d1b\u7279\u9ec3\u8702\u000a                vs\u000a                \u514b\u91cc\u592b\u862d\u9a0e\u58eb\u000a            
p128
sS'crown'
p129
(lp130
(lp131
V2017-11-16 11:08
p132
aV228.5
p133
aV0.83
p134
aV0.83
p135
aI01
aa(lp136
V2017-11-16 11:07
p137
aV226.5
p138
aV0.83
p139
aV0.83
p140
aI01
aa(lp141
V2017-11-16 11:07
p142
aV227.5
p143
aV0.83
p144
aV0.83
p145
aI01
aa(lp146
V2017-11-16 11:06
p147
aV226.5
p148
aV0.83
p149
aV0.83
p150
aI01
aa(lp151
V2017-11-16 11:06
p152
aV227.5
p153
aV0.83
p154
aV0.83
p155
aI01
aa(lp156
V2017-11-16 11:06
p157
aV226.5
p158
aV0.83
p159
aV0.83
p160
aI01
aa(lp161
V2017-11-16 11:02
p162
aV225.5
p163
aV0.83
p164
aV0.83
p165
aI01
aa(lp166
V2017-11-16 11:01
p167
aV224.5
p168
aV0.83
p169
aV0.83
p170
aI01
aa(lp171
V2017-11-16 11:01
p172
aV223.5
p173
aV0.83
p174
aV0.83
p175
aI01
aa(lp176
V2017-11-16 11:00
p177
aV224.5
p178
aV0.83
p179
aV0.83
p180
aI01
aa(lp181
V2017-11-16 10:59
p182
aV225.5
p183
aV0.83
p184
aV0.83
p185
aI01
aa(lp186
V2017-11-16 10:59
p187
aV224.5
p188
aV0.83
p189
aV0.83
p190
aI01
aa(lp191
V2017-11-16 10:58
p192
aV225.5
p193
aV0.83
p194
aV0.83
p195
aI01
aa(lp196
V2017-11-16 10:58
p197
aV223.5
p198
aV0.83
p199
aV0.83
p200
aI01
aa(lp201
V2017-11-16 10:56
p202
aV224.5
p203
aV0.83
p204
aV0.83
p205
aI01
aa(lp206
V2017-11-16 10:56
p207
aV225.5
p208
aV0.83
p209
aV0.83
p210
aI01
aa(lp211
V2017-11-16 10:55
p212
aV224.5
p213
aV0.83
p214
aV0.83
p215
aI01
aa(lp216
V2017-11-16 10:55
p217
aV223.5
p218
aV0.83
p219
aV0.83
p220
aI01
aa(lp221
V2017-11-16 10:55
p222
aV224.5
p223
aV0.83
p224
aV0.83
p225
aI01
aa(lp226
V2017-11-16 10:50
p227
aV225.5
p228
aV0.83
p229
aV0.83
p230
aI01
aa(lp231
V2017-11-16 10:50
p232
aV226.5
p233
aV0.83
p234
aV0.83
p235
aI01
aa(lp236
V2017-11-16 10:49
p237
aV227.5
p238
aV0.83
p239
aV0.83
p240
aI01
aa(lp241
V2017-11-16 10:49
p242
aV226.5
p243
aV0.83
p244
aV0.83
p245
aI01
aa(lp246
V2017-11-16 10:49
p247
aV227.5
p248
aV0.83
p249
aV0.83
p250
aI01
aa(lp251
V2017-11-16 10:48
p252
aV226.5
p253
aV0.83
p254
aV0.83
p255
aI01
aa(lp256
V2017-11-16 10:47
p257
aV227.5
p258
aV0.83
p259
aV0.83
p260
aI01
aa(lp261
V2017-11-16 10:47
p262
aV226.5
p263
aV0.83
p264
aV0.83
p265
aI01
aa(lp266
V2017-11-16 10:47
p267
aV228.5
p268
aV0.83
p269
aV0.83
p270
aI01
aa(lp271
V2017-11-16 10:43
p272
aV229.5
p273
aV0.83
p274
aV0.83
p275
aI01
aa(lp276
V2017-11-16 10:43
p277
aV228.5
p278
aV0.83
p279
aV0.83
p280
aI01
aa(lp281
V2017-11-16 10:42
p282
aV227.5
p283
aV0.83
p284
aV0.83
p285
aI01
aa(lp286
V2017-11-16 10:42
p287
aV228.5
p288
aV0.83
p289
aV0.83
p290
aI01
aa(lp291
V2017-11-16 10:41
p292
aV229.5
p293
aV0.83
p294
aV0.83
p295
aI01
aa(lp296
V2017-11-16 10:41
p297
aV228.5
p298
aV0.83
p299
aV0.83
p300
aI01
aa(lp301
V2017-11-16 10:41
p302
aV227.5
p303
aV0.83
p304
aV0.83
p305
aI01
aa(lp306
V2017-11-16 10:40
p307
aV228.5
p308
aV0.83
p309
aV0.83
p310
aI01
aa(lp311
V2017-11-16 10:40
p312
aV229.5
p313
aV0.83
p314
aV0.83
p315
aI01
aa(lp316
V2017-11-16 10:40
p317
aV230.5
p318
aV0.83
p319
aV0.83
p320
aI01
aa(lp321
V2017-11-16 10:39
p322
aV229.5
p323
aV0.83
p324
aV0.83
p325
aI01
aa(lp326
V2017-11-16 10:38
p327
aV230.5
p328
aV0.83
p329
aV0.83
p330
aI01
aa(lp331
V2017-11-16 10:38
p332
aV229.5
p333
aV0.83
p334
aV0.83
p335
aI01
aa(lp336
V2017-11-16 10:37
p337
aV230.5
p338
aV0.83
p339
aV0.83
p340
aI01
aa(lp341
V2017-11-16 10:37
p342
aV231.5
p343
aV0.83
p344
aV0.83
p345
aI01
aa(lp346
V2017-11-16 10:37
p347
aV232.5
p348
aV0.83
p349
aV0.83
p350
aI01
aa(lp351
V2017-11-16 10:33
p352
aV233.5
p353
aV0.83
p354
aV0.83
p355
aI01
aa(lp356
V2017-11-16 10:33
p357
aV234.5
p358
aV0.83
p359
aV0.83
p360
aI01
aa(lp361
V2017-11-16 10:32
p362
aV232.5
p363
aV0.83
p364
aV0.83
p365
aI01
aa(lp366
V2017-11-16 10:32
p367
aV233.5
p368
aV0.83
p369
aV0.83
p370
aI01
aa(lp371
V2017-11-16 10:32
p372
aV234.5
p373
aV0.83
p374
aV0.83
p375
aI01
aa(lp376
V2017-11-16 10:31
p377
aV233.5
p378
aV0.83
p379
aV0.83
p380
aI01
aa(lp381
V2017-11-16 10:31
p382
aV231.5
p383
aV0.83
p384
aV0.83
p385
aI01
aa(lp386
V2017-11-16 10:31
p387
aV232.5
p388
aV0.83
p389
aV0.83
p390
aI01
aa(lp391
V2017-11-16 10:30
p392
aV231.5
p393
aV0.83
p394
aV0.83
p395
aI01
aa(lp396
V2017-11-16 10:30
p397
aV232.5
p398
aV0.83
p399
aV0.83
p400
aI01
aa(lp401
V2017-11-16 10:29
p402
aV231.5
p403
aV0.83
p404
aV0.83
p405
aI01
aa(lp406
V2017-11-16 10:29
p407
aV230.5
p408
aV0.83
p409
aV0.83
p410
aI01
aa(lp411
V2017-11-16 10:29
p412
aV231.5
p413
aV0.83
p414
aV0.83
p415
aI01
aa(lp416
V2017-11-16 10:29
p417
aV233.5
p418
aV0.83
p419
aV0.83
p420
aI01
aa(lp421
V2017-11-16 10:29
p422
aV234.5
p423
aV0.83
p424
aV0.83
p425
aI01
aa(lp426
V2017-11-16 10:27
p427
aV232.5
p428
aV0.83
p429
aV0.83
p430
aI01
aa(lp431
V2017-11-16 10:27
p432
aV233.5
p433
aV0.83
p434
aV0.83
p435
aI01
aa(lp436
V2017-11-16 10:26
p437
aV234.5
p438
aV0.83
p439
aV0.83
p440
aI01
aa(lp441
V2017-11-16 10:26
p442
aV233.5
p443
aV0.83
p444
aV0.83
p445
aI01
aa(lp446
V2017-11-16 10:26
p447
aV232.5
p448
aV0.83
p449
aV0.83
p450
aI01
aa(lp451
V2017-11-16 10:08
p452
aV234.5
p453
aV0.83
p454
aV0.83
p455
aI01
aa(lp456
V2017-11-16 10:08
p457
aV232.5
p458
aV0.83
p459
aV0.83
p460
aI01
aa(lp461
V2017-11-16 10:08
p462
aV233.5
p463
aV0.83
p464
aV0.83
p465
aI01
aa(lp466
V2017-11-16 10:07
p467
aV231.5
p468
aV0.83
p469
aV0.83
p470
aI01
aa(lp471
V2017-11-16 10:07
p472
aV229.5
p473
aV0.83
p474
aV0.83
p475
aI01
aa(lp476
V2017-11-16 10:07
p477
aV230.5
p478
aV0.83
p479
aV0.83
p480
aI01
aa(lp481
V2017-11-16 10:05
p482
aV231.5
p483
aV0.83
p484
aV0.83
p485
aI01
aa(lp486
V2017-11-16 10:05
p487
aV229.5
p488
aV0.83
p489
aV0.83
p490
aI01
aa(lp491
V2017-11-16 10:01
p492
aV228.5
p493
aV0.83
p494
aV0.83
p495
aI01
aa(lp496
V2017-11-16 10:01
p497
aV229.5
p498
aV0.83
p499
aV0.83
p500
aI01
aa(lp501
V2017-11-16 10:00
p502
aV228.5
p503
aV0.83
p504
aV0.83
p505
aI01
aa(lp506
V2017-11-16 10:00
p507
aV227.5
p508
aV0.83
p509
aV0.83
p510
aI01
aa(lp511
V2017-11-16 09:58
p512
aV228.5
p513
aV0.83
p514
aV0.83
p515
aI01
aa(lp516
V2017-11-16 09:58
p517
aV227.5
p518
aV0.83
p519
aV0.83
p520
aI01
aa(lp521
V2017-11-16 09:58
p522
aV225.5
p523
aV0.83
p524
aV0.83
p525
aI01
aa(lp526
V2017-11-16 09:57
p527
aV226.5
p528
aV0.83
p529
aV0.83
p530
aI01
aa(lp531
V2017-11-16 09:57
p532
aV227.5
p533
aV0.83
p534
aV0.83
p535
aI01
aa(lp536
V2017-11-16 09:56
p537
aV228.5
p538
aV0.83
p539
aV0.83
p540
aI01
aa(lp541
V2017-11-16 09:56
p542
aV227.5
p543
aV0.83
p544
aV0.83
p545
aI01
aa(lp546
V2017-11-16 09:55
p547
aV228.5
p548
aV0.83
p549
aV0.83
p550
aI01
aa(lp551
V2017-11-16 09:55
p552
aV229.5
p553
aV0.83
p554
aV0.83
p555
aI01
aa(lp556
V2017-11-16 09:54
p557
aV228.5
p558
aV0.83
p559
aV0.83
p560
aI01
aa(lp561
V2017-11-16 09:53
p562
aV229.5
p563
aV0.83
p564
aV0.83
p565
aI01
aa(lp566
V2017-11-16 09:53
p567
aV228.5
p568
aV0.83
p569
aV0.83
p570
aI01
aa(lp571
V2017-11-16 09:52
p572
aV227.5
p573
aV0.83
p574
aV0.83
p575
aI01
aa(lp576
V2017-11-16 09:52
p577
aV228.5
p578
aV0.83
p579
aV0.83
p580
aI01
aa(lp581
V2017-11-16 09:52
p582
aV229.5
p583
aV0.83
p584
aV0.83
p585
aI01
aa(lp586
V2017-11-16 09:51
p587
aV228.5
p588
aV0.83
p589
aV0.83
p590
aI01
aa(lp591
V2017-11-16 09:51
p592
aV230.5
p593
aV0.83
p594
aV0.83
p595
aI01
aa(lp596
V2017-11-16 09:50
p597
aV229.5
p598
aV0.83
p599
aV0.83
p600
aI01
aa(lp601
V2017-11-16 09:50
p602
aV230.5
p603
aV0.83
p604
aV0.83
p605
aI01
aa(lp606
V2017-11-16 09:49
p607
aV231.5
p608
aV0.83
p609
aV0.83
p610
aI01
aa(lp611
V2017-11-16 09:49
p612
aV230.5
p613
aV0.83
p614
aV0.83
p615
aI01
aa(lp616
V2017-11-16 09:49
p617
aV231.5
p618
aV0.83
p619
aV0.83
p620
aI01
aa(lp621
V2017-11-16 09:45
p622
aV232.5
p623
aV0.83
p624
aV0.83
p625
aI01
aa(lp626
V2017-11-16 09:45
p627
aV230.5
p628
aV0.83
p629
aV0.83
p630
aI01
aa(lp631
V2017-11-16 09:45
p632
aV231.5
p633
aV0.83
p634
aV0.83
p635
aI01
aa(lp636
V2017-11-16 09:45
p637
aV230.5
p638
aV0.83
p639
aV0.83
p640
aI01
aa(lp641
V2017-11-16 09:43
p642
aV231.5
p643
aV0.83
p644
aV0.83
p645
aI01
aa(lp646
V2017-11-16 09:43
p647
aV230.5
p648
aV0.83
p649
aV0.83
p650
aI01
aa(lp651
V2017-11-16 09:42
p652
aV231.5
p653
aV0.83
p654
aV0.83
p655
aI01
aa(lp656
V2017-11-16 09:42
p657
aV229.5
p658
aV0.83
p659
aV0.83
p660
aI01
aa(lp661
V2017-11-16 09:41
p662
aV228.5
p663
aV0.83
p664
aV0.83
p665
aI01
aa(lp666
V2017-11-16 09:41
p667
aV227.5
p668
aV0.83
p669
aV0.83
p670
aI01
aa(lp671
V2017-11-16 09:37
p672
aV228.5
p673
aV0.83
p674
aV0.83
p675
aI01
aa(lp676
V2017-11-16 09:36
p677
aV226.5
p678
aV0.83
p679
aV0.83
p680
aI01
aa(lp681
V2017-11-16 09:34
p682
aV225.5
p683
aV0.83
p684
aV0.83
p685
aI01
aa(lp686
V2017-11-16 09:34
p687
aV226.5
p688
aV0.83
p689
aV0.83
p690
aI01
aa(lp691
V2017-11-16 09:34
p692
aV227.5
p693
aV0.83
p694
aV0.83
p695
aI01
aa(lp696
V2017-11-16 09:34
p697
aV225.5
p698
aV0.83
p699
aV0.83
p700
aI01
aa(lp701
V2017-11-16 09:33
p702
aV224.5
p703
aV0.83
p704
aV0.83
p705
aI01
aa(lp706
V2017-11-16 09:33
p707
aV223.5
p708
aV0.83
p709
aV0.83
p710
aI01
aa(lp711
V2017-11-16 09:33
p712
aV222.5
p713
aV0.83
p714
aV0.83
p715
aI01
aa(lp716
V2017-11-16 09:32
p717
aV221.5
p718
aV0.83
p719
aV0.83
p720
aI01
aa(lp721
V2017-11-16 09:32
p722
aV222.5
p723
aV0.83
p724
aV0.83
p725
aI01
aa(lp726
V2017-11-16 09:32
p727
aV221.5
p728
aV0.83
p729
aV0.83
p730
aI01
aa(lp731
V2017-11-16 09:29
p732
aV223.5
p733
aV0.83
p734
aV0.83
p735
aI01
aa(lp736
V2017-11-16 09:29
p737
aV225.5
p738
aV0.83
p739
aV0.83
p740
aI01
aa(lp741
V2017-11-16 09:29
p742
aV224.5
p743
aV0.83
p744
aV0.83
p745
aI01
aa(lp746
V2017-11-16 09:28
p747
aV223.5
p748
aV0.83
p749
aV0.83
p750
aI01
aa(lp751
V2017-11-16 09:28
p752
aV222.5
p753
aV0.83
p754
aV0.83
p755
aI01
aa(lp756
V2017-11-16 09:24
p757
aV223.5
p758
aV0.83
p759
aV0.83
p760
aI01
aa(lp761
V2017-11-16 09:24
p762
aV224.5
p763
aV0.83
p764
aV0.83
p765
aI01
aa(lp766
V2017-11-16 09:22
p767
aV223.5
p768
aV0.83
p769
aV0.83
p770
aI01
aa(lp771
V2017-11-16 09:21
p772
aV221.5
p773
aV0.83
p774
aV0.83
p775
aI01
aa(lp776
V2017-11-16 09:18
p777
aV222.5
p778
aV0.83
p779
aV0.83
p780
aI01
aa(lp781
V2017-11-16 09:18
p782
aV223.5
p783
aV0.83
p784
aV0.83
p785
aI01
aa(lp786
V2017-11-16 09:17
p787
aV221.5
p788
aV0.83
p789
aV0.83
p790
aI01
aa(lp791
V2017-11-16 09:17
p792
aV220.5
p793
aV0.83
p794
aV0.83
p795
aI01
aa(lp796
V2017-11-16 09:17
p797
aV221.5
p798
aV0.83
p799
aV0.83
p800
aI01
aa(lp801
V2017-11-16 09:17
p802
aV220.5
p803
aV0.83
p804
aV0.83
p805
aI01
aa(lp806
V2017-11-16 09:16
p807
aV221.5
p808
aV0.83
p809
aV0.83
p810
aI01
aa(lp811
V2017-11-16 09:15
p812
aV220.5
p813
aV0.83
p814
aV0.83
p815
aI01
aa(lp816
V2017-11-16 09:15
p817
aV219.5
p818
aV0.83
p819
aV0.83
p820
aI01
aa(lp821
V2017-11-16 09:15
p822
aV218.5
p823
aV0.83
p824
aV0.83
p825
aI01
aa(lp826
V2017-11-16 09:14
p827
aV220.5
p828
aV0.83
p829
aV0.83
p830
aI01
aa(lp831
V2017-11-16 09:14
p832
aV221.5
p833
aV0.83
p834
aV0.83
p835
aI01
aa(lp836
V2017-11-16 09:13
p837
aV220.5
p838
aV0.83
p839
aV0.83
p840
aI01
aa(lp841
V2017-11-16 09:13
p842
aV218.5
p843
aV0.83
p844
aV0.83
p845
aI01
aa(lp846
V2017-11-16 09:13
p847
aV219.5
p848
aV0.83
p849
aV0.83
p850
aI01
aa(lp851
V2017-11-16 09:03
p852
aV218.5
p853
aV0.83
p854
aV0.83
p855
aI00
aa(lp856
V2017-11-16 07:47
p857
aV219.5
p858
aV0.98
p859
aV0.88
p860
aI00
aa(lp861
V2017-11-16 07:03
p862
aV219.5
p863
aV0.96
p864
aV0.90
p865
aI00
aa(lp866
V2017-11-16 06:51
p867
aV219.5
p868
aV0.99
p869
aV0.87
p870
aI00
aa(lp871
V2017-11-16 06:50
p872
aV219.5
p873
aV1.01
p874
aV0.85
p875
aI00
aa(lp876
V2017-11-16 06:50
p877
aV219.5
p878
aV0.98
p879
aV0.88
p880
aI00
aa(lp881
V2017-11-16 06:50
p882
aV219.5
p883
aV0.93
p884
aV0.93
p885
aI00
aa(lp886
V2017-11-16 05:22
p887
aV219.5
p888
aV0.88
p889
aV0.98
p890
aI00
aa(lp891
V2017-11-16 04:11
p892
aV219.5
p893
aV0.97
p894
aV0.89
p895
aI00
aa(lp896
V2017-11-16 04:10
p897
aV219.5
p898
aV0.96
p899
aV0.90
p900
aI00
aa(lp901
V2017-11-16 03:18
p902
aV219.5
p903
aV0.96
p904
aV0.88
p905
aI00
aa(lp906
V2017-11-16 03:07
p907
aV219.5
p908
aV0.94
p909
aV0.90
p910
aI00
aa(lp911
V2017-11-16 02:31
p912
aV219.5
p913
aV0.96
p914
aV0.88
p915
aI00
aa(lp916
V2017-11-16 02:30
p917
aV219.5
p918
aV0.98
p919
aV0.86
p920
aI00
aa(lp921
V2017-11-16 02:29
p922
aV219.5
p923
aV0.96
p924
aV0.88
p925
aI00
aa(lp926
V2017-11-16 01:11
p927
aV219.5
p928
aV0.89
p929
aV0.95
p930
aI00
aa(lp931
V2017-11-16 00:45
p932
aV217.5
p933
aV0.75
p934
aV1.09
p935
aI00
aa(lp936
V2017-11-16 00:45
p937
aV217.5
p938
aV0.80
p939
aV1.04
p940
aI00
aa(lp941
V2017-11-16 00:38
p942
aV217.5
p943
aV0.92
p944
aV0.92
p945
aI00
aa(lp946
V2017-11-15 19:13
p947
aV217.5
p948
aV0.94
p949
aV0.90
p950
aI00
aa(lp951
V2017-11-15 17:45
p952
aV218.5
p953
aV1.03
p954
aV0.81
p955
aI00
aa(lp956
V2017-11-15 17:45
p957
aV219.5
p958
aV1.11
p959
aV0.73
p960
aI00
aa(lp961
V2017-11-15 16:14
p962
aV218.5
p963
aV1.03
p964
aV0.81
p965
aI00
aa(lp966
V2017-11-15 14:42
p967
aV218.5
p968
aV1.00
p969
aV0.84
p970
aI00
aa(lp971
V2017-11-15 11:46
p972
aV218.5
p973
aV0.89
p974
aV0.95
p975
aI00
aa(lp976
V2017-11-15 11:45
p977
aV219.5
p978
aV0.96
p979
aV0.88
p980
aI00
aa(lp981
V2017-11-15 11:20
p982
aV218.5
p983
aV0.89
p984
aV0.95
p985
aI00
aasS'sbo'
p986
(lp987
(lp988
V2017-11-16 11:08
p989
aV227.5
p990
aV0.60
p991
aV1.11
p992
aI01
aa(lp993
V2017-11-16 11:06
p994
aV225.5
p995
aV0.60
p996
aV1.11
p997
aI01
aa(lp998
V2017-11-16 11:02
p999
aV224.5
p1000
aV0.60
p1001
aV1.11
p1002
aI01
aa(lp1003
V2017-11-16 11:02
p1004
aV226.5
p1005
aV0.60
p1006
aV1.11
p1007
aI01
aa(lp1008
V2017-11-16 11:01
p1009
aV224.5
p1010
aV0.60
p1011
aV1.11
p1012
aI01
aa(lp1013
V2017-11-16 11:00
p1014
aV223.5
p1015
aV0.60
p1016
aV1.11
p1017
aI01
aa(lp1018
V2017-11-16 11:00
p1019
aV224.5
p1020
aV0.70
p1021
aV1.00
p1022
aI01
aa(lp1023
V2017-11-16 10:59
p1024
aV224.5
p1025
aV0.60
p1026
aV1.11
p1027
aI01
aa(lp1028
V2017-11-16 10:58
p1029
aV225.5
p1030
aV0.60
p1031
aV1.11
p1032
aI01
aa(lp1033
V2017-11-16 10:58
p1034
aV224.5
p1035
aV0.60
p1036
aV1.11
p1037
aI01
aa(lp1038
V2017-11-16 10:56
p1039
aV225.5
p1040
aV0.60
p1041
aV1.11
p1042
aI01
aa(lp1043
V2017-11-16 10:56
p1044
aV224.5
p1045
aV0.70
p1046
aV1.00
p1047
aI01
aa(lp1048
V2017-11-16 10:55
p1049
aV225.5
p1050
aV0.70
p1051
aV1.00
p1052
aI01
aa(lp1053
V2017-11-16 10:55
p1054
aV225.5
p1055
aV0.60
p1056
aV1.11
p1057
aI01
aa(lp1058
V2017-11-16 10:54
p1059
aV226.5
p1060
aV0.75
p1061
aV0.95
p1062
aI01
aa(lp1063
V2017-11-16 10:54
p1064
aV226.5
p1065
aV0.85
p1066
aV0.85
p1067
aI01
aa(lp1068
V2017-11-16 10:53
p1069
aV226.5
p1070
aV0.75
p1071
aV0.95
p1072
aI01
aa(lp1073
V2017-11-16 10:52
p1074
aV226.5
p1075
aV0.85
p1076
aV0.85
p1077
aI01
aa(lp1078
V2017-11-16 10:51
p1079
aV225.5
p1080
aV0.60
p1081
aV1.11
p1082
aI01
aa(lp1083
V2017-11-16 10:48
p1084
aV226.5
p1085
aV0.60
p1086
aV1.11
p1087
aI01
aa(lp1088
V2017-11-16 10:47
p1089
aV225.5
p1090
aV0.60
p1091
aV1.11
p1092
aI01
aa(lp1093
V2017-11-16 10:47
p1094
aV227.5
p1095
aV0.60
p1096
aV1.11
p1097
aI01
aa(lp1098
V2017-11-16 10:47
p1099
aV228.5
p1100
aV0.60
p1101
aV1.11
p1102
aI01
aa(lp1103
V2017-11-16 10:43
p1104
aV228.5
p1105
aV0.70
p1106
aV1.00
p1107
aI01
aa(lp1108
V2017-11-16 10:42
p1109
aV229.5
p1110
aV0.70
p1111
aV1.00
p1112
aI01
aa(lp1113
V2017-11-16 10:41
p1114
aV229.5
p1115
aV0.60
p1116
aV1.11
p1117
aI01
aa(lp1118
V2017-11-16 10:41
p1119
aV228.5
p1120
aV0.70
p1121
aV1.00
p1122
aI01
aa(lp1123
V2017-11-16 10:39
p1124
aV229.5
p1125
aV0.65
p1126
aV1.05
p1127
aI01
aa(lp1128
V2017-11-16 10:39
p1129
aV230.5
p1130
aV0.70
p1131
aV1.00
p1132
aI01
aa(lp1133
V2017-11-16 10:38
p1134
aV230.5
p1135
aV0.60
p1136
aV1.11
p1137
aI01
aa(lp1138
V2017-11-16 10:38
p1139
aV230.5
p1140
aV0.70
p1141
aV1.00
p1142
aI01
aa(lp1143
V2017-11-16 10:37
p1144
aV232.5
p1145
aV0.70
p1146
aV1.00
p1147
aI01
aa(lp1148
V2017-11-16 10:37
p1149
aV232.5
p1150
aV0.60
p1151
aV1.11
p1152
aI01
aa(lp1153
V2017-11-16 10:34
p1154
aV233.5
p1155
aV0.70
p1156
aV1.00
p1157
aI01
aa(lp1158
V2017-11-16 10:33
p1159
aV233.5
p1160
aV0.60
p1161
aV1.11
p1162
aI01
aa(lp1163
V2017-11-16 10:32
p1164
aV233.5
p1165
aV0.70
p1166
aV1.00
p1167
aI01
aa(lp1168
V2017-11-16 10:31
p1169
aV231.5
p1170
aV0.70
p1171
aV1.00
p1172
aI01
aa(lp1173
V2017-11-16 10:30
p1174
aV231.5
p1175
aV0.60
p1176
aV1.11
p1177
aI01
aa(lp1178
V2017-11-16 10:29
p1179
aV231.5
p1180
aV0.70
p1181
aV1.00
p1182
aI01
aa(lp1183
V2017-11-16 10:29
p1184
aV232.5
p1185
aV0.65
p1186
aV1.05
p1187
aI01
aa(lp1188
V2017-11-16 10:28
p1189
aV231.5
p1190
aV0.70
p1191
aV1.00
p1192
aI01
aa(lp1193
V2017-11-16 10:27
p1194
aV234.5
p1195
aV1.00
p1196
aV0.70
p1197
aI01
aa(lp1198
V2017-11-16 10:27
p1199
aV234.5
p1200
aV0.90
p1201
aV0.80
p1202
aI01
aa(lp1203
V2017-11-16 10:26
p1204
aV234.5
p1205
aV0.70
p1206
aV1.00
p1207
aI01
aa(lp1208
V2017-11-16 10:26
p1209
aV234.5
p1210
aV0.85
p1211
aV0.85
p1212
aI01
aa(lp1213
V2017-11-16 10:24
p1214
aV234.5
p1215
aV0.70
p1216
aV1.00
p1217
aI01
aa(lp1218
V2017-11-16 10:14
p1219
aV234.5
p1220
aV0.86
p1221
aV1.00
p1222
aI01
aa(lp1223
V2017-11-16 10:12
p1224
aV234.5
p1225
aV0.91
p1226
aV0.95
p1227
aI01
aa(lp1228
V2017-11-16 10:05
p1229
aV229.5
p1230
aV0.75
p1231
aV0.95
p1232
aI01
aa(lp1233
V2017-11-16 10:05
p1234
aV229.5
p1235
aV0.95
p1236
aV0.75
p1237
aI01
aa(lp1238
V2017-11-16 10:04
p1239
aV228.5
p1240
aV0.85
p1241
aV0.85
p1242
aI01
aa(lp1243
V2017-11-16 10:01
p1244
aV228.5
p1245
aV0.80
p1246
aV0.90
p1247
aI01
aa(lp1248
V2017-11-16 10:00
p1249
aV228.5
p1250
aV0.90
p1251
aV0.80
p1252
aI01
aa(lp1253
V2017-11-16 10:00
p1254
aV225.5
p1255
aV0.60
p1256
aV1.11
p1257
aI01
aa(lp1258
V2017-11-16 10:00
p1259
aV228.5
p1260
aV0.90
p1261
aV0.80
p1262
aI01
aa(lp1263
V2017-11-16 09:59
p1264
aV228.5
p1265
aV0.75
p1266
aV0.95
p1267
aI01
aa(lp1268
V2017-11-16 09:59
p1269
aV228.5
p1270
aV0.70
p1271
aV1.00
p1272
aI01
aa(lp1273
V2017-11-16 09:58
p1274
aV226.5
p1275
aV0.60
p1276
aV1.11
p1277
aI01
aa(lp1278
V2017-11-16 09:57
p1279
aV226.5
p1280
aV0.70
p1281
aV1.00
p1282
aI01
aa(lp1283
V2017-11-16 09:56
p1284
aV226.5
p1285
aV0.60
p1286
aV1.11
p1287
aI01
aa(lp1288
V2017-11-16 09:55
p1289
aV228.5
p1290
aV0.70
p1291
aV1.00
p1292
aI01
aa(lp1293
V2017-11-16 09:54
p1294
aV228.5
p1295
aV0.60
p1296
aV1.11
p1297
aI01
aa(lp1298
V2017-11-16 09:52
p1299
aV228.5
p1300
aV0.70
p1301
aV1.00
p1302
aI01
aa(lp1303
V2017-11-16 09:51
p1304
aV231.5
p1305
aV0.85
p1306
aV0.85
p1307
aI01
aa(lp1308
V2017-11-16 09:51
p1309
aV231.5
p1310
aV0.95
p1311
aV0.75
p1312
aI01
aa(lp1313
V2017-11-16 09:50
p1314
aV233.5
p1315
aV1.00
p1316
aV0.70
p1317
aI01
aa(lp1318
V2017-11-16 09:50
p1319
aV233.5
p1320
aV0.95
p1321
aV0.75
p1322
aI01
aa(lp1323
V2017-11-16 09:49
p1324
aV233.5
p1325
aV1.00
p1326
aV0.70
p1327
aI01
aa(lp1328
V2017-11-16 09:49
p1329
aV233.5
p1330
aV0.90
p1331
aV0.80
p1332
aI01
aa(lp1333
V2017-11-16 09:46
p1334
aV231.5
p1335
aV0.60
p1336
aV1.11
p1337
aI01
aa(lp1338
V2017-11-16 09:45
p1339
aV233.5
p1340
aV0.90
p1341
aV0.80
p1342
aI01
aa(lp1343
V2017-11-16 09:45
p1344
aV233.5
p1345
aV1.00
p1346
aV0.70
p1347
aI01
aa(lp1348
V2017-11-16 09:44
p1349
aV233.5
p1350
aV0.90
p1351
aV0.80
p1352
aI01
aa(lp1353
V2017-11-16 09:43
p1354
aV231.5
p1355
aV1.00
p1356
aV0.70
p1357
aI01
aa(lp1358
V2017-11-16 09:43
p1359
aV231.5
p1360
aV0.90
p1361
aV0.80
p1362
aI01
aa(lp1363
V2017-11-16 09:42
p1364
aV228.5
p1365
aV0.80
p1366
aV0.90
p1367
aI01
aa(lp1368
V2017-11-16 09:41
p1369
aV228.5
p1370
aV1.00
p1371
aV0.70
p1372
aI01
aa(lp1373
V2017-11-16 09:40
p1374
aV228.5
p1375
aV0.90
p1376
aV0.80
p1377
aI01
aa(lp1378
V2017-11-16 09:37
p1379
aV227.5
p1380
aV0.80
p1381
aV0.90
p1382
aI01
aa(lp1383
V2017-11-16 09:36
p1384
aV225.5
p1385
aV0.70
p1386
aV1.00
p1387
aI01
aa(lp1388
V2017-11-16 09:35
p1389
aV225.5
p1390
aV0.85
p1391
aV0.85
p1392
aI01
aa(lp1393
V2017-11-16 09:34
p1394
aV225.5
p1395
aV0.90
p1396
aV0.80
p1397
aI01
aa(lp1398
V2017-11-16 09:34
p1399
aV225.5
p1400
aV1.00
p1401
aV0.70
p1402
aI01
aa(lp1403
V2017-11-16 09:32
p1404
aV223.5
p1405
aV1.00
p1406
aV0.70
p1407
aI01
aa(lp1408
V2017-11-16 09:30
p1409
aV225.5
p1410
aV1.11
p1411
aV0.60
p1412
aI01
aa(lp1413
V2017-11-16 09:29
p1414
aV225.5
p1415
aV0.90
p1416
aV0.80
p1417
aI01
aa(lp1418
V2017-11-16 09:28
p1419
aV222.5
p1420
aV0.70
p1421
aV1.00
p1422
aI01
aa(lp1423
V2017-11-16 09:25
p1424
aV223.5
p1425
aV0.80
p1426
aV0.90
p1427
aI01
aa(lp1428
V2017-11-16 09:24
p1429
aV222.5
p1430
aV0.70
p1431
aV1.00
p1432
aI01
aa(lp1433
V2017-11-16 09:22
p1434
aV222.5
p1435
aV0.80
p1436
aV0.90
p1437
aI01
aa(lp1438
V2017-11-16 09:22
p1439
aV222.5
p1440
aV0.90
p1441
aV0.80
p1442
aI01
aa(lp1443
V2017-11-16 09:21
p1444
aV222.5
p1445
aV1.00
p1446
aV0.70
p1447
aI01
aa(lp1448
V2017-11-16 09:20
p1449
aV221.5
p1450
aV0.70
p1451
aV1.00
p1452
aI01
aa(lp1453
V2017-11-16 09:17
p1454
aV219.5
p1455
aV0.70
p1456
aV1.00
p1457
aI01
aa(lp1458
V2017-11-16 09:17
p1459
aV217.5
p1460
aV0.60
p1461
aV1.11
p1462
aI01
aa(lp1463
V2017-11-16 09:15
p1464
aV217.5
p1465
aV0.65
p1466
aV1.05
p1467
aI01
aa(lp1468
V2017-11-16 09:14
p1469
aV219.5
p1470
aV0.70
p1471
aV1.00
p1472
aI01
aa(lp1473
V2017-11-16 09:13
p1474
aV219.5
p1475
aV0.80
p1476
aV0.90
p1477
aI01
aa(lp1478
V2017-11-16 09:12
p1479
aV219.5
p1480
aV0.95
p1481
aV0.75
p1482
aI01
aa(lp1483
V2017-11-16 09:10
p1484
aV219.5
p1485
aV1.00
p1486
aV0.70
p1487
aI00
aa(lp1488
V2017-11-16 09:00
p1489
aV218.5
p1490
aV0.75
p1491
aV0.95
p1492
aI00
aa(lp1493
V2017-11-16 07:57
p1494
aV219
p1495
aV0.98
p1496
aV0.90
p1497
aI00
aa(lp1498
V2017-11-16 07:22
p1499
aV219
p1500
aV1.02
p1501
aV0.86
p1502
aI00
aa(lp1503
V2017-11-16 06:54
p1504
aV219
p1505
aV0.96
p1506
aV0.92
p1507
aI00
aa(lp1508
V2017-11-16 06:50
p1509
aV219
p1510
aV1.00
p1511
aV0.88
p1512
aI00
aa(lp1513
V2017-11-16 06:46
p1514
aV219
p1515
aV0.99
p1516
aV0.89
p1517
aI00
aa(lp1518
V2017-11-16 06:42
p1519
aV219
p1520
aV0.90
p1521
aV0.98
p1522
aI00
aa(lp1523
V2017-11-16 06:19
p1524
aV219
p1525
aV0.83
p1526
aV1.05
p1527
aI00
aa(lp1528
V2017-11-16 06:11
p1529
aV219
p1530
aV0.86
p1531
aV1.02
p1532
aI00
aa(lp1533
V2017-11-16 06:08
p1534
aV218
p1535
aV0.77
p1536
aV1.12
p1537
aI00
aa(lp1538
V2017-11-16 05:23
p1539
aV218
p1540
aV0.78
p1541
aV1.11
p1542
aI00
aa(lp1543
V2017-11-16 05:19
p1544
aV218
p1545
aV0.85
p1546
aV1.03
p1547
aI00
aa(lp1548
V2017-11-16 04:38
p1549
aV218
p1550
aV0.88
p1551
aV1.00
p1552
aI00
aa(lp1553
V2017-11-16 02:30
p1554
aV218
p1555
aV0.91
p1556
aV0.97
p1557
aI00
aa(lp1558
V2017-11-16 02:29
p1559
aV218
p1560
aV0.89
p1561
aV0.99
p1562
aI00
aa(lp1563
V2017-11-16 02:16
p1564
aV218
p1565
aV0.80
p1566
aV1.08
p1567
aI00
aa(lp1568
V2017-11-16 01:56
p1569
aV218
p1570
aV0.78
p1571
aV1.11
p1572
aI00
aa(lp1573
V2017-11-16 01:50
p1574
aV218
p1575
aV0.77
p1576
aV1.12
p1577
aI00
aa(lp1578
V2017-11-16 01:12
p1579
aV218
p1580
aV0.81
p1581
aV1.07
p1582
aI00
aa(lp1583
V2017-11-16 01:07
p1584
aV218
p1585
aV0.80
p1586
aV1.08
p1587
aI00
aa(lp1588
V2017-11-16 00:49
p1589
aV218
p1590
aV0.75
p1591
aV1.14
p1592
aI00
aa(lp1593
V2017-11-16 00:48
p1594
aV218
p1595
aV0.80
p1596
aV1.08
p1597
aI00
aa(lp1598
V2017-11-16 00:42
p1599
aV218
p1600
aV0.78
p1601
aV1.11
p1602
aI00
aa(lp1603
V2017-11-15 22:44
p1604
aV218
p1605
aV1.05
p1606
aV0.83
p1607
aI00
aa(lp1608
V2017-11-15 21:23
p1609
aV218
p1610
aV1.03
p1611
aV0.85
p1612
aI00
aa(lp1613
V2017-11-15 14:29
p1614
aV218
p1615
aV1.02
p1616
aV0.86
p1617
aI00
aa(lp1618
V2017-11-15 11:34
p1619
aV218
p1620
aV0.85
p1621
aV1.03
p1622
aI00
aa(lp1623
V2017-11-15 11:11
p1624
aV218
p1625
aV0.87
p1626
aV0.99
p1627
aI00
aa(lp1628
V2017-11-15 06:48
p1629
aV217.5
p1630
aV0.88
p1631
aV0.98
p1632
aI00
aa(lp1633
V2017-11-15 05:46
p1634
aV217.5
p1635
aV0.93
p1636
aV0.93
p1637
aI00
aasS'wade'
p1638
(lp1639
(lp1640
V2017-11-16 09:09
p1641
aV219
p1642
aV0.90
p1643
aV0.90
p1644
aI00
aa(lp1645
V2017-11-16 09:07
p1646
aV218.5
p1647
aV0.90
p1648
aV0.90
p1649
aI00
aa(lp1650
V2017-11-16 08:18
p1651
aV219
p1652
aV0.90
p1653
aV0.90
p1654
aI00
aa(lp1655
V2017-11-16 06:49
p1656
aV218.5
p1657
aV0.90
p1658
aV0.90
p1659
aI00
aa(lp1660
V2017-11-16 06:47
p1661
aV219
p1662
aV0.90
p1663
aV0.90
p1664
aI00
aa(lp1665
V2017-11-16 06:46
p1666
aV219.5
p1667
aV0.90
p1668
aV0.90
p1669
aI00
aa(lp1670
V2017-11-16 06:42
p1671
aV220
p1672
aV0.90
p1673
aV0.90
p1674
aI00
aa(lp1675
V2017-11-16 06:23
p1676
aV220.5
p1677
aV0.90
p1678
aV0.90
p1679
aI00
aa(lp1680
V2017-11-16 06:18
p1681
aV220
p1682
aV0.90
p1683
aV0.90
p1684
aI00
aa(lp1685
V2017-11-16 05:23
p1686
aV219.5
p1687
aV0.90
p1688
aV0.90
p1689
aI00
aa(lp1690
V2017-11-16 04:41
p1691
aV219
p1692
aV0.90
p1693
aV0.90
p1694
aI00
aa(lp1695
V2017-11-16 02:32
p1696
aV218.5
p1697
aV0.90
p1698
aV0.90
p1699
aI00
aa(lp1700
V2017-11-16 02:27
p1701
aV219
p1702
aV0.90
p1703
aV0.90
p1704
aI00
aa(lp1705
V2017-11-16 00:47
p1706
aV219.5
p1707
aV0.90
p1708
aV0.90
p1709
aI00
aa(lp1710
V2017-11-16 00:41
p1711
aV217.5
p1712
aV0.90
p1713
aV0.90
p1714
aI00
aa(lp1715
V2017-11-16 00:39
p1716
aV218
p1717
aV0.90
p1718
aV0.90
p1719
aI00
aa(lp1720
V2017-11-16 00:37
p1721
aV217.5
p1722
aV0.90
p1723
aV0.90
p1724
aI00
aa(lp1725
V2017-11-15 21:41
p1726
aV217
p1727
aV0.90
p1728
aV0.90
p1729
aI00
aa(lp1730
V2017-11-15 15:46
p1731
aV217.5
p1732
aV0.90
p1733
aV0.90
p1734
aI00
aa(lp1735
V2017-11-15 14:28
p1736
aV218
p1737
aV0.90
p1738
aV0.90
p1739
aI00
aa(lp1740
V2017-11-15 14:26
p1741
aV218.5
p1742
aV0.90
p1743
aV0.90
p1744
aI00
aa(lp1745
V2017-11-15 06:49
p1746
aV219
p1747
aV0.90
p1748
aV0.90
p1749
aI00
aa(lp1750
V2017-11-15 04:35
p1751
aV217.5
p1752
aV0.90
p1753
aV0.90
p1754
aI00
aasS'game_id'
p1755
V290057
p1756
sS'bet365'
p1757
(lp1758
(lp1759
V2017-11-16 11:07
p1760
aV227.5
p1761
aV0.95
p1762
aV0.80
p1763
aI01
aa(lp1764
V2017-11-16 11:07
p1765
aV228.5
p1766
aV0.83
p1767
aV0.90
p1768
aI01
aa(lp1769
V2017-11-16 11:06
p1770
aV229.5
p1771
aV0.95
p1772
aV0.80
p1773
aI01
aa(lp1774
V2017-11-16 11:06
p1775
aV227.5
p1776
aV0.90
p1777
aV0.83
p1778
aI01
aa(lp1779
V2017-11-16 11:06
p1780
aV227.5
p1781
aV0.83
p1782
aV0.90
p1783
aI01
aa(lp1784
V2017-11-16 11:03
p1785
aV225.5
p1786
aV0.80
p1787
aV0.95
p1788
aI01
aa(lp1789
V2017-11-16 11:02
p1790
aV226.5
p1791
aV0.95
p1792
aV0.80
p1793
aI01
aa(lp1794
V2017-11-16 11:01
p1795
aV224.5
p1796
aV0.80
p1797
aV0.95
p1798
aI01
aa(lp1799
V2017-11-16 11:01
p1800
aV225.5
p1801
aV0.86
p1802
aV0.86
p1803
aI01
aa(lp1804
V2017-11-16 11:01
p1805
aV224.5
p1806
aV0.86
p1807
aV0.86
p1808
aI01
aa(lp1809
V2017-11-16 11:00
p1810
aV225.5
p1811
aV0.95
p1812
aV0.80
p1813
aI01
aa(lp1814
V2017-11-16 11:00
p1815
aV225.5
p1816
aV0.83
p1817
aV0.90
p1818
aI01
aa(lp1819
V2017-11-16 10:59
p1820
aV226.5
p1821
aV0.80
p1822
aV0.95
p1823
aI01
aa(lp1824
V2017-11-16 10:58
p1825
aV227.5
p1826
aV0.86
p1827
aV0.86
p1828
aI01
aa(lp1829
V2017-11-16 10:57
p1830
aV225.5
p1831
aV0.83
p1832
aV0.90
p1833
aI01
aa(lp1834
V2017-11-16 10:57
p1835
aV226.5
p1836
aV0.86
p1837
aV0.86
p1838
aI01
aa(lp1839
V2017-11-16 10:57
p1840
aV227.5
p1841
aV0.86
p1842
aV0.86
p1843
aI01
aa(lp1844
V2017-11-16 10:57
p1845
aV226.5
p1846
aV0.80
p1847
aV0.95
p1848
aI01
aa(lp1849
V2017-11-16 10:56
p1850
aV227.5
p1851
aV0.86
p1852
aV0.86
p1853
aI01
aa(lp1854
V2017-11-16 10:55
p1855
aV224.5
p1856
aV0.90
p1857
aV0.83
p1858
aI01
aa(lp1859
V2017-11-16 10:51
p1860
aV225.5
p1861
aV0.83
p1862
aV0.90
p1863
aI01
aa(lp1864
V2017-11-16 10:50
p1865
aV225.5
p1866
aV0.86
p1867
aV0.86
p1868
aI01
aa(lp1869
V2017-11-16 10:48
p1870
aV227.5
p1871
aV0.86
p1872
aV0.86
p1873
aI01
aa(lp1874
V2017-11-16 10:47
p1875
aV227.5
p1876
aV0.90
p1877
aV0.83
p1878
aI01
aa(lp1879
V2017-11-16 10:47
p1880
aV226.5
p1881
aV0.83
p1882
aV0.90
p1883
aI01
aa(lp1884
V2017-11-16 10:47
p1885
aV229.5
p1886
aV0.86
p1887
aV0.86
p1888
aI01
aa(lp1889
V2017-11-16 10:43
p1890
aV229.5
p1891
aV0.90
p1892
aV0.83
p1893
aI01
aa(lp1894
V2017-11-16 10:42
p1895
aV228.5
p1896
aV0.86
p1897
aV0.86
p1898
aI01
aa(lp1899
V2017-11-16 10:41
p1900
aV230.5
p1901
aV0.86
p1902
aV0.86
p1903
aI01
aa(lp1904
V2017-11-16 10:41
p1905
aV231.5
p1906
aV0.90
p1907
aV0.83
p1908
aI01
aa(lp1909
V2017-11-16 10:41
p1910
aV230.5
p1911
aV0.86
p1912
aV0.86
p1913
aI01
aa(lp1914
V2017-11-16 10:41
p1915
aV228.5
p1916
aV0.83
p1917
aV0.90
p1918
aI01
aa(lp1919
V2017-11-16 10:40
p1920
aV229.5
p1921
aV0.86
p1922
aV0.86
p1923
aI01
aa(lp1924
V2017-11-16 10:39
p1925
aV230.5
p1926
aV0.86
p1927
aV0.86
p1928
aI01
aa(lp1929
V2017-11-16 10:38
p1930
aV231.5
p1931
aV0.83
p1932
aV0.90
p1933
aI01
aa(lp1934
V2017-11-16 10:38
p1935
aV231.5
p1936
aV0.86
p1937
aV0.86
p1938
aI01
aa(lp1939
V2017-11-16 10:33
p1940
aV232.5
p1941
aV0.83
p1942
aV0.90
p1943
aI01
aa(lp1944
V2017-11-16 10:33
p1945
aV235.5
p1946
aV0.86
p1947
aV0.86
p1948
aI01
aa(lp1949
V2017-11-16 10:33
p1950
aV233.5
p1951
aV0.86
p1952
aV0.86
p1953
aI01
aa(lp1954
V2017-11-16 10:32
p1955
aV233.5
p1956
aV0.83
p1957
aV0.90
p1958
aI01
aa(lp1959
V2017-11-16 10:32
p1960
aV235.5
p1961
aV0.86
p1962
aV0.86
p1963
aI01
aa(lp1964
V2017-11-16 10:31
p1965
aV234.5
p1966
aV0.86
p1967
aV0.86
p1968
aI01
aa(lp1969
V2017-11-16 10:31
p1970
aV232.5
p1971
aV0.83
p1972
aV0.90
p1973
aI01
aa(lp1974
V2017-11-16 10:31
p1975
aV231.5
p1976
aV0.86
p1977
aV0.86
p1978
aI01
aa(lp1979
V2017-11-16 10:30
p1980
aV232.5
p1981
aV0.86
p1982
aV0.86
p1983
aI01
aa(lp1984
V2017-11-16 10:29
p1985
aV231.5
p1986
aV0.83
p1987
aV0.90
p1988
aI01
aa(lp1989
V2017-11-16 10:29
p1990
aV233.5
p1991
aV0.90
p1992
aV0.83
p1993
aI01
aa(lp1994
V2017-11-16 10:28
p1995
aV234.5
p1996
aV0.90
p1997
aV0.83
p1998
aI01
aa(lp1999
V2017-11-16 10:28
p2000
aV231.5
p2001
aV0.86
p2002
aV0.86
p2003
aI01
aa(lp2004
V2017-11-16 10:27
p2005
aV232.5
p2006
aV0.86
p2007
aV0.86
p2008
aI01
aa(lp2009
V2017-11-16 10:27
p2010
aV233.5
p2011
aV0.90
p2012
aV0.83
p2013
aI01
aa(lp2014
V2017-11-16 10:26
p2015
aV233.5
p2016
aV0.86
p2017
aV0.86
p2018
aI01
aa(lp2019
V2017-11-16 10:26
p2020
aV234.5
p2021
aV0.86
p2022
aV0.86
p2023
aI01
aa(lp2024
V2017-11-16 10:25
p2025
aV235.5
p2026
aV0.86
p2027
aV0.86
p2028
aI01
aa(lp2029
V2017-11-16 10:12
p2030
aV234.5
p2031
aV0.86
p2032
aV0.86
p2033
aI01
aa(lp2034
V2017-11-16 10:09
p2035
aV233.5
p2036
aV0.83
p2037
aV0.90
p2038
aI01
aa(lp2039
V2017-11-16 10:09
p2040
aV234.5
p2041
aV0.90
p2042
aV0.83
p2043
aI01
aa(lp2044
V2017-11-16 10:09
p2045
aV235.5
p2046
aV0.86
p2047
aV0.86
p2048
aI01
aa(lp2049
V2017-11-16 10:08
p2050
aV235.5
p2051
aV0.90
p2052
aV0.83
p2053
aI01
aa(lp2054
V2017-11-16 10:08
p2055
aV234.5
p2056
aV0.83
p2057
aV0.90
p2058
aI01
aa(lp2059
V2017-11-16 10:08
p2060
aV233.5
p2061
aV0.86
p2062
aV0.86
p2063
aI01
aa(lp2064
V2017-11-16 10:08
p2065
aV231.5
p2066
aV0.86
p2067
aV0.86
p2068
aI01
aa(lp2069
V2017-11-16 10:07
p2070
aV229.5
p2071
aV0.86
p2072
aV0.86
p2073
aI01
aa(lp2074
V2017-11-16 10:06
p2075
aV230.5
p2076
aV0.83
p2077
aV0.90
p2078
aI01
aa(lp2079
V2017-11-16 10:06
p2080
aV232.5
p2081
aV0.90
p2082
aV0.83
p2083
aI01
aa(lp2084
V2017-11-16 10:05
p2085
aV231.5
p2086
aV0.86
p2087
aV0.86
p2088
aI01
aa(lp2089
V2017-11-16 10:05
p2090
aV229.5
p2091
aV0.83
p2092
aV0.90
p2093
aI01
aa(lp2094
V2017-11-16 10:01
p2095
aV228.5
p2096
aV0.86
p2097
aV0.86
p2098
aI01
aa(lp2099
V2017-11-16 10:01
p2100
aV229.5
p2101
aV0.83
p2102
aV0.90
p2103
aI01
aa(lp2104
V2017-11-16 10:00
p2105
aV228.5
p2106
aV0.86
p2107
aV0.86
p2108
aI01
aa(lp2109
V2017-11-16 10:00
p2110
aV227.5
p2111
aV0.90
p2112
aV0.83
p2113
aI01
aa(lp2114
V2017-11-16 09:59
p2115
aV229.5
p2116
aV0.86
p2117
aV0.86
p2118
aI01
aa(lp2119
V2017-11-16 09:59
p2120
aV228.5
p2121
aV0.83
p2122
aV0.90
p2123
aI01
aa(lp2124
V2017-11-16 09:58
p2125
aV229.5
p2126
aV0.86
p2127
aV0.86
p2128
aI01
aa(lp2129
V2017-11-16 09:58
p2130
aV229.5
p2131
aV0.90
p2132
aV0.83
p2133
aI01
aa(lp2134
V2017-11-16 09:58
p2135
aV228.5
p2136
aV0.83
p2137
aV0.90
p2138
aI01
aa(lp2139
V2017-11-16 09:57
p2140
aV226.5
p2141
aV0.83
p2142
aV0.90
p2143
aI01
aa(lp2144
V2017-11-16 09:57
p2145
aV228.5
p2146
aV0.86
p2147
aV0.86
p2148
aI01
aa(lp2149
V2017-11-16 09:56
p2150
aV229.5
p2151
aV0.86
p2152
aV0.86
p2153
aI01
aa(lp2154
V2017-11-16 09:56
p2155
aV228.5
p2156
aV0.86
p2157
aV0.86
p2158
aI01
aa(lp2159
V2017-11-16 09:55
p2160
aV229.5
p2161
aV0.86
p2162
aV0.86
p2163
aI01
aa(lp2164
V2017-11-16 09:55
p2165
aV231.5
p2166
aV0.86
p2167
aV0.86
p2168
aI01
aa(lp2169
V2017-11-16 09:54
p2170
aV229.5
p2171
aV0.83
p2172
aV0.90
p2173
aI01
aa(lp2174
V2017-11-16 09:53
p2175
aV231.5
p2176
aV0.86
p2177
aV0.86
p2178
aI01
aa(lp2179
V2017-11-16 09:52
p2180
aV228.5
p2181
aV0.86
p2182
aV0.86
p2183
aI01
aa(lp2184
V2017-11-16 09:52
p2185
aV229.5
p2186
aV0.86
p2187
aV0.86
p2188
aI01
aa(lp2189
V2017-11-16 09:52
p2190
aV230.5
p2191
aV0.86
p2192
aV0.86
p2193
aI01
aa(lp2194
V2017-11-16 09:51
p2195
aV230.5
p2196
aV0.90
p2197
aV0.83
p2198
aI01
aa(lp2199
V2017-11-16 09:51
p2200
aV231.5
p2201
aV0.83
p2202
aV0.90
p2203
aI01
aa(lp2204
V2017-11-16 09:50
p2205
aV230.5
p2206
aV0.86
p2207
aV0.86
p2208
aI01
aa(lp2209
V2017-11-16 09:50
p2210
aV231.5
p2211
aV0.90
p2212
aV0.83
p2213
aI01
aa(lp2214
V2017-11-16 09:49
p2215
aV232.5
p2216
aV0.86
p2217
aV0.86
p2218
aI01
aa(lp2219
V2017-11-16 09:49
p2220
aV231.5
p2221
aV0.86
p2222
aV0.86
p2223
aI01
aa(lp2224
V2017-11-16 09:45
p2225
aV233.5
p2226
aV0.90
p2227
aV0.83
p2228
aI01
aa(lp2229
V2017-11-16 09:45
p2230
aV230.5
p2231
aV0.86
p2232
aV0.86
p2233
aI01
aa(lp2234
V2017-11-16 09:45
p2235
aV232.5
p2236
aV0.86
p2237
aV0.86
p2238
aI01
aa(lp2239
V2017-11-16 09:44
p2240
aV231.5
p2241
aV0.86
p2242
aV0.86
p2243
aI01
aa(lp2244
V2017-11-16 09:44
p2245
aV232.5
p2246
aV0.86
p2247
aV0.86
p2248
aI01
aa(lp2249
V2017-11-16 09:43
p2250
aV231.5
p2251
aV0.86
p2252
aV0.86
p2253
aI01
aa(lp2254
V2017-11-16 09:43
p2255
aV230.5
p2256
aV0.86
p2257
aV0.86
p2258
aI01
aa(lp2259
V2017-11-16 09:42
p2260
aV231.5
p2261
aV0.86
p2262
aV0.86
p2263
aI01
aa(lp2264
V2017-11-16 09:42
p2265
aV229.5
p2266
aV0.86
p2267
aV0.86
p2268
aI01
aa(lp2269
V2017-11-16 09:41
p2270
aV227.5
p2271
aV0.86
p2272
aV0.86
p2273
aI01
aa(lp2274
V2017-11-16 09:41
p2275
aV228.5
p2276
aV0.86
p2277
aV0.86
p2278
aI01
aa(lp2279
V2017-11-16 09:40
p2280
aV229.5
p2281
aV0.86
p2282
aV0.86
p2283
aI01
aa(lp2284
V2017-11-16 09:37
p2285
aV228.5
p2286
aV0.90
p2287
aV0.83
p2288
aI01
aa(lp2289
V2017-11-16 09:36
p2290
aV226.5
p2291
aV0.83
p2292
aV0.90
p2293
aI01
aa(lp2294
V2017-11-16 09:35
p2295
aV226.5
p2296
aV0.86
p2297
aV0.86
p2298
aI01
aa(lp2299
V2017-11-16 09:35
p2300
aV225.5
p2301
aV0.83
p2302
aV0.90
p2303
aI01
aa(lp2304
V2017-11-16 09:35
p2305
aV224.5
p2306
aV0.83
p2307
aV0.90
p2308
aI01
aa(lp2309
V2017-11-16 09:34
p2310
aV225.5
p2311
aV0.83
p2312
aV0.90
p2313
aI01
aa(lp2314
V2017-11-16 09:34
p2315
aV226.5
p2316
aV0.83
p2317
aV0.90
p2318
aI01
aa(lp2319
V2017-11-16 09:33
p2320
aV225.5
p2321
aV0.86
p2322
aV0.86
p2323
aI01
aa(lp2324
V2017-11-16 09:33
p2325
aV224.5
p2326
aV0.86
p2327
aV0.86
p2328
aI01
aa(lp2329
V2017-11-16 09:32
p2330
aV222.5
p2331
aV0.86
p2332
aV0.86
p2333
aI01
aa(lp2334
V2017-11-16 09:32
p2335
aV223.5
p2336
aV0.86
p2337
aV0.86
p2338
aI01
aa(lp2339
V2017-11-16 09:32
p2340
aV221.5
p2341
aV0.90
p2342
aV0.83
p2343
aI01
aa(lp2344
V2017-11-16 09:31
p2345
aV221.5
p2346
aV0.83
p2347
aV0.90
p2348
aI01
aa(lp2349
V2017-11-16 09:31
p2350
aV223.5
p2351
aV0.83
p2352
aV0.90
p2353
aI01
aa(lp2354
V2017-11-16 09:29
p2355
aV223.5
p2356
aV0.86
p2357
aV0.86
p2358
aI01
aa(lp2359
V2017-11-16 09:28
p2360
aV224.5
p2361
aV0.86
p2362
aV0.86
p2363
aI01
aa(lp2364
V2017-11-16 09:27
p2365
aV222.5
p2366
aV0.86
p2367
aV0.86
p2368
aI01
aa(lp2369
V2017-11-16 09:24
p2370
aV223.5
p2371
aV0.86
p2372
aV0.86
p2373
aI01
aa(lp2374
V2017-11-16 09:23
p2375
aV222.5
p2376
aV0.90
p2377
aV0.83
p2378
aI01
aa(lp2379
V2017-11-16 09:23
p2380
aV222.5
p2381
aV0.86
p2382
aV0.86
p2383
aI01
aa(lp2384
V2017-11-16 09:22
p2385
aV221.5
p2386
aV0.86
p2387
aV0.86
p2388
aI01
aa(lp2389
V2017-11-16 09:13
p2390
aV219.5
p2391
aV0.90
p2392
aV0.83
p2393
aI01
aa(lp2394
V2017-11-16 09:12
p2395
aV218.5
p2396
aV0.83
p2397
aV0.90
p2398
aI01
aa(lp2399
V2017-11-16 09:01
p2400
aV218.5
p2401
aV0.90
p2402
aV0.90
p2403
aI00
aa(lp2404
V2017-11-16 08:00
p2405
aV219
p2406
aV0.90
p2407
aV0.90
p2408
aI00
aa(lp2409
V2017-11-16 06:47
p2410
aV218.5
p2411
aV0.90
p2412
aV0.90
p2413
aI00
aa(lp2414
V2017-11-16 06:46
p2415
aV219.5
p2416
aV0.90
p2417
aV0.90
p2418
aI00
aa(lp2419
V2017-11-16 06:41
p2420
aV220
p2421
aV0.90
p2422
aV0.90
p2423
aI00
aa(lp2424
V2017-11-16 06:19
p2425
aV220.5
p2426
aV0.90
p2427
aV0.90
p2428
aI00
aa(lp2429
V2017-11-16 06:16
p2430
aV220
p2431
aV0.90
p2432
aV0.90
p2433
aI00
aa(lp2434
V2017-11-16 05:20
p2435
aV219.5
p2436
aV0.90
p2437
aV0.90
p2438
aI00
aa(lp2439
V2017-11-16 03:22
p2440
aV219
p2441
aV0.90
p2442
aV0.90
p2443
aI00
aa(lp2444
V2017-11-16 03:08
p2445
aV218.5
p2446
aV0.90
p2447
aV0.90
p2448
aI00
aa(lp2449
V2017-11-16 02:29
p2450
aV219
p2451
aV0.90
p2452
aV0.90
p2453
aI00
aa(lp2454
V2017-11-16 00:43
p2455
aV219.5
p2456
aV0.90
p2457
aV0.90
p2458
aI00
aa(lp2459
V2017-11-16 00:35
p2460
aV217.5
p2461
aV0.90
p2462
aV0.90
p2463
aI00
aa(lp2464
V2017-11-15 22:38
p2465
aV217
p2466
aV0.90
p2467
aV0.90
p2468
aI00
aa(lp2469
V2017-11-15 20:09
p2470
aV217.5
p2471
aV0.90
p2472
aV0.90
p2473
aI00
aa(lp2474
V2017-11-15 15:29
p2475
aV218
p2476
aV0.90
p2477
aV0.90
p2478
aI00
aa(lp2479
V2017-11-15 09:13
p2480
aV219
p2481
aV0.90
p2482
aV0.90
p2483
aI00
aassb.