ccopy_reg
_reconstructor
p0
(cmy_oddsportal.items
WinOverUnderItem
p1
c__builtin__
object
p2
Ntp3
Rp4
(dp5
S'_values'
p6
(dp7
S'ysb8'
p8
(lp9
(lp10
V2017-12-02 09:04
p11
aV193
p12
aV0.95
p13
aV0.95
p14
aI00
aa(lp15
V2017-12-02 07:33
p16
aV192.5
p17
aV0.95
p18
aV0.95
p19
aI00
aa(lp20
V2017-12-02 06:23
p21
aV193
p22
aV0.95
p23
aV0.95
p24
aI00
aa(lp25
V2017-12-02 04:37
p26
aV192.5
p27
aV0.95
p28
aV0.95
p29
aI00
aa(lp30
V2017-12-02 01:53
p31
aV192
p32
aV0.95
p33
aV0.95
p34
aI00
aa(lp35
V2017-12-02 01:33
p36
aV191.5
p37
aV0.95
p38
aV0.95
p39
aI00
aa(lp40
V2017-12-02 00:13
p41
aV192
p42
aV0.95
p43
aV0.95
p44
aI00
aa(lp45
V2017-12-02 00:12
p46
aV192.5
p47
aV0.95
p48
aV0.95
p49
aI00
aa(lp50
V2017-12-01 23:23
p51
aV193
p52
aV0.95
p53
aV0.95
p54
aI00
aa(lp55
V2017-12-01 23:22
p56
aV193.5
p57
aV1.00
p58
aV0.91
p59
aI00
aa(lp60
V2017-12-01 23:21
p61
aV193.5
p62
aV0.95
p63
aV0.95
p64
aI00
aa(lp65
V2017-12-01 23:13
p66
aV194
p67
aV0.95
p68
aV0.95
p69
aI00
aa(lp70
V2017-12-01 23:12
p71
aV193.5
p72
aV0.95
p73
aV0.95
p74
aI00
aa(lp75
V2017-12-01 16:01
p76
aV193
p77
aV0.95
p78
aV0.95
p79
aI00
aasS'macau'
p80
(lp81
(lp82
V2017-12-02 09:06
p83
aV191.5
p84
aV0.66
p85
aV1.00
p86
aI00
aa(lp87
V2017-12-02 09:01
p88
aV192.5
p89
aV0.66
p90
aV1.00
p91
aI00
aa(lp92
V2017-12-02 09:00
p93
aV192.5
p94
aV0.810
p95
aV0.85
p96
aI00
aa(lp97
V2017-12-02 06:09
p98
aV192.5
p99
aV0.85
p100
aV0.85
p101
aI00
aa(lp102
V2017-12-01 23:18
p103
aV193.5
p104
aV0.90
p105
aV0.80
p106
aI00
aa(lp107
V2017-12-01 14:29
p108
aV193.5
p109
aV0.85
p110
aV0.85
p111
aI00
aasS'title'
p112
V\u000a                \u5b5f\u83f2\u65af\u7070\u718a\u000a                vs\u000a                \u8056\u5b89\u6771\u5c3c\u5967\u99ac\u523a\u000a            
p113
sS'crown'
p114
(lp115
(lp116
V2017-12-02 11:02
p117
aV176.5
p118
aV0.86
p119
aV0.80
p120
aI01
aa(lp121
V2017-12-02 11:02
p122
aV176.5
p123
aV0.80
p124
aV0.86
p125
aI01
aa(lp126
V2017-12-02 11:01
p127
aV177.5
p128
aV0.86
p129
aV0.80
p130
aI01
aa(lp131
V2017-12-02 11:01
p132
aV176.5
p133
aV0.69
p134
aV0.97
p135
aI01
aa(lp136
V2017-12-02 11:00
p137
aV176.5
p138
aV0.82
p139
aV0.84
p140
aI01
aa(lp141
V2017-12-02 10:59
p142
aV176.5
p143
aV0.85
p144
aV0.81
p145
aI01
aa(lp146
V2017-12-02 10:59
p147
aV176.5
p148
aV0.88
p149
aV0.78
p150
aI01
aa(lp151
V2017-12-02 10:59
p152
aV177.5
p153
aV0.81
p154
aV0.85
p155
aI01
aa(lp156
V2017-12-02 10:58
p157
aV173.5
p158
aV0.77
p159
aV0.89
p160
aI01
aa(lp161
V2017-12-02 10:58
p162
aV173.5
p163
aV0.81
p164
aV0.85
p165
aI01
aa(lp166
V2017-12-02 10:57
p167
aV173.5
p168
aV0.84
p169
aV0.82
p170
aI01
aa(lp171
V2017-12-02 10:57
p172
aV171.5
p173
aV0.82
p174
aV0.84
p175
aI01
aa(lp176
V2017-12-02 10:57
p177
aV172.5
p178
aV0.83
p179
aV0.83
p180
aI01
aa(lp181
V2017-12-02 10:57
p182
aV171.5
p183
aV0.83
p184
aV0.83
p185
aI01
aa(lp186
V2017-12-02 10:56
p187
aV172.5
p188
aV0.91
p189
aV0.75
p190
aI01
aa(lp191
V2017-12-02 10:56
p192
aV172.5
p193
aV0.78
p194
aV0.88
p195
aI01
aa(lp196
V2017-12-02 10:56
p197
aV173.5
p198
aV0.82
p199
aV0.84
p200
aI01
aa(lp201
V2017-12-02 10:56
p202
aV174.5
p203
aV0.87
p204
aV0.79
p205
aI01
aa(lp206
V2017-12-02 10:56
p207
aV175.5
p208
aV0.86
p209
aV0.80
p210
aI01
aa(lp211
V2017-12-02 10:55
p212
aV174.5
p213
aV0.84
p214
aV0.82
p215
aI01
aa(lp216
V2017-12-02 10:55
p217
aV175.5
p218
aV0.83
p219
aV0.83
p220
aI01
aa(lp221
V2017-12-02 10:55
p222
aV174.5
p223
aV0.86
p224
aV0.80
p225
aI01
aa(lp226
V2017-12-02 10:52
p227
aV173.5
p228
aV0.83
p229
aV0.83
p230
aI01
aa(lp231
V2017-12-02 10:52
p232
aV174.5
p233
aV0.82
p234
aV0.84
p235
aI01
aa(lp236
V2017-12-02 10:52
p237
aV175.5
p238
aV0.83
p239
aV0.83
p240
aI01
aa(lp241
V2017-12-02 10:52
p242
aV175.5
p243
aV0.80
p244
aV0.86
p245
aI01
aa(lp246
V2017-12-02 10:51
p247
aV176.5
p248
aV0.83
p249
aV0.83
p250
aI01
aa(lp251
V2017-12-02 10:51
p252
aV175.5
p253
aV0.86
p254
aV0.80
p255
aI01
aa(lp256
V2017-12-02 10:48
p257
aV180.5
p258
aV0.85
p259
aV0.81
p260
aI01
aa(lp261
V2017-12-02 10:47
p262
aV178.5
p263
aV0.77
p264
aV0.89
p265
aI01
aa(lp266
V2017-12-02 10:46
p267
aV180.5
p268
aV0.85
p269
aV0.81
p270
aI01
aa(lp271
V2017-12-02 10:46
p272
aV178.5
p273
aV0.81
p274
aV0.85
p275
aI01
aa(lp276
V2017-12-02 10:46
p277
aV179.5
p278
aV0.85
p279
aV0.81
p280
aI01
aa(lp281
V2017-12-02 10:46
p282
aV179.5
p283
aV0.77
p284
aV0.89
p285
aI01
aa(lp286
V2017-12-02 10:45
p287
aV180.5
p288
aV0.77
p289
aV0.89
p290
aI01
aa(lp291
V2017-12-02 10:45
p292
aV179.5
p293
aV0.85
p294
aV0.81
p295
aI01
aa(lp296
V2017-12-02 10:45
p297
aV180.5
p298
aV0.85
p299
aV0.81
p300
aI01
aa(lp301
V2017-12-02 10:44
p302
aV179.5
p303
aV0.80
p304
aV0.86
p305
aI01
aa(lp306
V2017-12-02 10:44
p307
aV179.5
p308
aV0.85
p309
aV0.81
p310
aI01
aa(lp311
V2017-12-02 10:44
p312
aV179.5
p313
aV0.80
p314
aV0.86
p315
aI01
aa(lp316
V2017-12-02 10:43
p317
aV180.5
p318
aV0.85
p319
aV0.81
p320
aI01
aa(lp321
V2017-12-02 10:43
p322
aV179.5
p323
aV0.80
p324
aV0.86
p325
aI01
aa(lp326
V2017-12-02 10:43
p327
aV180.5
p328
aV0.80
p329
aV0.86
p330
aI01
aa(lp331
V2017-12-02 10:41
p332
aV178.5
p333
aV0.76
p334
aV0.90
p335
aI01
aa(lp336
V2017-12-02 10:41
p337
aV177.5
p338
aV0.80
p339
aV0.86
p340
aI01
aa(lp341
V2017-12-02 10:41
p342
aV178.5
p343
aV0.80
p344
aV0.86
p345
aI01
aa(lp346
V2017-12-02 10:40
p347
aV175.5
p348
aV0.80
p349
aV0.86
p350
aI01
aa(lp351
V2017-12-02 10:40
p352
aV176.5
p353
aV0.80
p354
aV0.86
p355
aI01
aa(lp356
V2017-12-02 10:40
p357
aV177.5
p358
aV0.80
p359
aV0.86
p360
aI01
aa(lp361
V2017-12-02 10:40
p362
aV178.5
p363
aV0.85
p364
aV0.81
p365
aI01
aa(lp366
V2017-12-02 10:40
p367
aV179.5
p368
aV0.80
p369
aV0.86
p370
aI01
aa(lp371
V2017-12-02 10:40
p372
aV180.5
p373
aV0.80
p374
aV0.86
p375
aI01
aa(lp376
V2017-12-02 10:39
p377
aV178.5
p378
aV0.80
p379
aV0.86
p380
aI01
aa(lp381
V2017-12-02 10:39
p382
aV181.5
p383
aV0.88
p384
aV0.78
p385
aI01
aa(lp386
V2017-12-02 10:39
p387
aV181.5
p388
aV0.85
p389
aV0.81
p390
aI01
aa(lp391
V2017-12-02 10:36
p392
aV179.5
p393
aV0.60
p394
aV1.06
p395
aI01
aa(lp396
V2017-12-02 10:36
p397
aV185.5
p398
aV1.04
p399
aV0.62
p400
aI01
aa(lp401
V2017-12-02 10:35
p402
aV182.5
p403
aV0.85
p404
aV0.81
p405
aI01
aa(lp406
V2017-12-02 10:35
p407
aV181.5
p408
aV0.76
p409
aV0.90
p410
aI01
aa(lp411
V2017-12-02 10:35
p412
aV180.5
p413
aV0.85
p414
aV0.81
p415
aI01
aa(lp416
V2017-12-02 10:35
p417
aV181.5
p418
aV0.85
p419
aV0.81
p420
aI01
aa(lp421
V2017-12-02 10:35
p422
aV182.5
p423
aV0.85
p424
aV0.81
p425
aI01
aa(lp426
V2017-12-02 10:34
p427
aV183.5
p428
aV0.85
p429
aV0.81
p430
aI01
aa(lp431
V2017-12-02 10:34
p432
aV182.5
p433
aV0.85
p434
aV0.81
p435
aI01
aa(lp436
V2017-12-02 10:34
p437
aV180.5
p438
aV0.85
p439
aV0.81
p440
aI01
aa(lp441
V2017-12-02 10:34
p442
aV184.5
p443
aV1.07
p444
aV0.59
p445
aI01
aa(lp446
V2017-12-02 10:33
p447
aV180.5
p448
aV0.80
p449
aV0.86
p450
aI01
aa(lp451
V2017-12-02 10:33
p452
aV178.5
p453
aV0.63
p454
aV1.03
p455
aI01
aa(lp456
V2017-12-02 10:33
p457
aV179.5
p458
aV0.80
p459
aV0.86
p460
aI01
aa(lp461
V2017-12-02 10:32
p462
aV179.5
p463
aV0.85
p464
aV0.81
p465
aI01
aa(lp466
V2017-12-02 10:32
p467
aV178.5
p468
aV0.85
p469
aV0.81
p470
aI01
aa(lp471
V2017-12-02 10:32
p472
aV179.5
p473
aV0.85
p474
aV0.81
p475
aI01
aa(lp476
V2017-12-02 10:31
p477
aV180.5
p478
aV0.85
p479
aV0.81
p480
aI01
aa(lp481
V2017-12-02 10:31
p482
aV180.5
p483
aV0.80
p484
aV0.86
p485
aI01
aa(lp486
V2017-12-02 10:31
p487
aV181.5
p488
aV0.80
p489
aV0.86
p490
aI01
aa(lp491
V2017-12-02 10:30
p492
aV182.5
p493
aV0.80
p494
aV0.86
p495
aI01
aa(lp496
V2017-12-02 10:30
p497
aV183.5
p498
aV0.80
p499
aV0.86
p500
aI01
aa(lp501
V2017-12-02 10:30
p502
aV185.5
p503
aV0.85
p504
aV0.81
p505
aI01
aa(lp506
V2017-12-02 10:29
p507
aV186.5
p508
aV0.85
p509
aV0.81
p510
aI01
aa(lp511
V2017-12-02 10:29
p512
aV183.5
p513
aV0.85
p514
aV0.81
p515
aI01
aa(lp516
V2017-12-02 10:29
p517
aV184.5
p518
aV0.85
p519
aV0.81
p520
aI01
aa(lp521
V2017-12-02 10:29
p522
aV185.5
p523
aV0.80
p524
aV0.86
p525
aI01
aa(lp526
V2017-12-02 10:28
p527
aV183.5
p528
aV0.80
p529
aV0.86
p530
aI01
aa(lp531
V2017-12-02 10:28
p532
aV183.5
p533
aV0.85
p534
aV0.81
p535
aI01
aa(lp536
V2017-12-02 10:28
p537
aV186.5
p538
aV1.03
p539
aV0.63
p540
aI01
aa(lp541
V2017-12-02 10:28
p542
aV182.5
p543
aV0.85
p544
aV0.81
p545
aI01
aa(lp546
V2017-12-02 10:27
p547
aV183.5
p548
aV0.85
p549
aV0.81
p550
aI01
aa(lp551
V2017-12-02 10:27
p552
aV182.5
p553
aV0.85
p554
aV0.81
p555
aI01
aa(lp556
V2017-12-02 10:24
p557
aV182.5
p558
aV0.80
p559
aV0.86
p560
aI01
aa(lp561
V2017-12-02 10:23
p562
aV181.5
p563
aV0.85
p564
aV0.81
p565
aI01
aa(lp566
V2017-12-02 10:23
p567
aV185.5
p568
aV1.05
p569
aV0.61
p570
aI01
aa(lp571
V2017-12-02 10:23
p572
aV179.5
p573
aV0.85
p574
aV0.81
p575
aI01
aa(lp576
V2017-12-02 10:23
p577
aV180.5
p578
aV0.85
p579
aV0.81
p580
aI01
aa(lp581
V2017-12-02 10:22
p582
aV184.5
p583
aV1.03
p584
aV0.63
p585
aI01
aa(lp586
V2017-12-02 10:22
p587
aV182.5
p588
aV0.85
p589
aV0.81
p590
aI01
aa(lp591
V2017-12-02 10:22
p592
aV181.5
p593
aV0.80
p594
aV0.86
p595
aI01
aa(lp596
V2017-12-02 10:22
p597
aV186.5
p598
aV1.03
p599
aV0.63
p600
aI01
aa(lp601
V2017-12-02 10:21
p602
aV182.5
p603
aV0.85
p604
aV0.81
p605
aI01
aa(lp606
V2017-12-02 10:21
p607
aV183.5
p608
aV0.85
p609
aV0.81
p610
aI01
aa(lp611
V2017-12-02 10:21
p612
aV183.5
p613
aV0.80
p614
aV0.86
p615
aI01
aa(lp616
V2017-12-02 10:20
p617
aV184.5
p618
aV0.80
p619
aV0.86
p620
aI01
aa(lp621
V2017-12-02 10:20
p622
aV184.5
p623
aV0.85
p624
aV0.81
p625
aI01
aa(lp626
V2017-12-02 10:19
p627
aV183.5
p628
aV0.80
p629
aV0.86
p630
aI01
aa(lp631
V2017-12-02 10:09
p632
aV185.5
p633
aV0.83
p634
aV0.83
p635
aI01
aa(lp636
V2017-12-02 09:53
p637
aV193.5
p638
aV0.84
p639
aV0.82
p640
aI01
aa(lp641
V2017-12-02 09:53
p642
aV192.5
p643
aV0.85
p644
aV0.81
p645
aI01
aa(lp646
V2017-12-02 09:53
p647
aV191.5
p648
aV0.83
p649
aV0.83
p650
aI01
aa(lp651
V2017-12-02 09:53
p652
aV189.5
p653
aV0.83
p654
aV0.83
p655
aI01
aa(lp656
V2017-12-02 09:53
p657
aV190.5
p658
aV0.83
p659
aV0.83
p660
aI01
aa(lp661
V2017-12-02 09:52
p662
aV191.5
p663
aV0.84
p664
aV0.82
p665
aI01
aa(lp666
V2017-12-02 09:52
p667
aV191.5
p668
aV0.83
p669
aV0.83
p670
aI01
aa(lp671
V2017-12-02 09:52
p672
aV190.5
p673
aV0.82
p674
aV0.84
p675
aI01
aa(lp676
V2017-12-02 09:52
p677
aV192.5
p678
aV0.81
p679
aV0.85
p680
aI01
aa(lp681
V2017-12-02 09:51
p682
aV188.5
p683
aV0.83
p684
aV0.83
p685
aI01
aa(lp686
V2017-12-02 09:51
p687
aV188.5
p688
aV0.75
p689
aV0.91
p690
aI01
aa(lp691
V2017-12-02 09:51
p692
aV189.5
p693
aV0.85
p694
aV0.81
p695
aI01
aa(lp696
V2017-12-02 09:51
p697
aV189.5
p698
aV0.83
p699
aV0.83
p700
aI01
aa(lp701
V2017-12-02 09:50
p702
aV190.5
p703
aV0.85
p704
aV0.81
p705
aI01
aa(lp706
V2017-12-02 09:50
p707
aV190.5
p708
aV0.87
p709
aV0.79
p710
aI01
aa(lp711
V2017-12-02 09:50
p712
aV190.5
p713
aV0.81
p714
aV0.85
p715
aI01
aa(lp716
V2017-12-02 09:50
p717
aV190.5
p718
aV0.83
p719
aV0.83
p720
aI01
aa(lp721
V2017-12-02 09:50
p722
aV190.5
p723
aV0.85
p724
aV0.81
p725
aI01
aa(lp726
V2017-12-02 09:49
p727
aV190.5
p728
aV0.81
p729
aV0.85
p730
aI01
aa(lp731
V2017-12-02 09:49
p732
aV189.5
p733
aV0.84
p734
aV0.82
p735
aI01
aa(lp736
V2017-12-02 09:49
p737
aV189.5
p738
aV0.81
p739
aV0.85
p740
aI01
aa(lp741
V2017-12-02 09:48
p742
aV190.5
p743
aV0.83
p744
aV0.83
p745
aI01
aa(lp746
V2017-12-02 09:48
p747
aV191.5
p748
aV0.82
p749
aV0.84
p750
aI01
aa(lp751
V2017-12-02 09:48
p752
aV192.5
p753
aV0.85
p754
aV0.81
p755
aI01
aa(lp756
V2017-12-02 09:48
p757
aV191.5
p758
aV0.83
p759
aV0.83
p760
aI01
aa(lp761
V2017-12-02 09:47
p762
aV189.5
p763
aV0.85
p764
aV0.81
p765
aI01
aa(lp766
V2017-12-02 09:47
p767
aV190.5
p768
aV0.79
p769
aV0.87
p770
aI01
aa(lp771
V2017-12-02 09:47
p772
aV191.5
p773
aV0.83
p774
aV0.83
p775
aI01
aa(lp776
V2017-12-02 09:47
p777
aV191.5
p778
aV0.87
p779
aV0.79
p780
aI01
aa(lp781
V2017-12-02 09:44
p782
aV192.5
p783
aV0.81
p784
aV0.85
p785
aI01
aa(lp786
V2017-12-02 09:44
p787
aV191.5
p788
aV0.83
p789
aV0.83
p790
aI01
aa(lp791
V2017-12-02 09:44
p792
aV191.5
p793
aV0.79
p794
aV0.87
p795
aI01
aa(lp796
V2017-12-02 09:44
p797
aV189.5
p798
aV0.85
p799
aV0.81
p800
aI01
aa(lp801
V2017-12-02 09:43
p802
aV191.5
p803
aV0.87
p804
aV0.79
p805
aI01
aa(lp806
V2017-12-02 09:43
p807
aV189.5
p808
aV0.83
p809
aV0.83
p810
aI01
aa(lp811
V2017-12-02 09:43
p812
aV191.5
p813
aV0.81
p814
aV0.85
p815
aI01
aa(lp816
V2017-12-02 09:42
p817
aV189.5
p818
aV0.87
p819
aV0.79
p820
aI01
aa(lp821
V2017-12-02 09:42
p822
aV189.5
p823
aV0.81
p824
aV0.85
p825
aI01
aa(lp826
V2017-12-02 09:41
p827
aV187.5
p828
aV0.81
p829
aV0.85
p830
aI01
aa(lp831
V2017-12-02 09:41
p832
aV186.5
p833
aV0.83
p834
aV0.83
p835
aI01
aa(lp836
V2017-12-02 09:41
p837
aV185.5
p838
aV0.83
p839
aV0.83
p840
aI01
aa(lp841
V2017-12-02 09:41
p842
aV186.5
p843
aV0.87
p844
aV0.79
p845
aI01
aa(lp846
V2017-12-02 09:40
p847
aV187.5
p848
aV0.83
p849
aV0.83
p850
aI01
aa(lp851
V2017-12-02 09:40
p852
aV188.5
p853
aV0.81
p854
aV0.85
p855
aI01
aa(lp856
V2017-12-02 09:40
p857
aV188.5
p858
aV0.84
p859
aV0.82
p860
aI01
aa(lp861
V2017-12-02 09:40
p862
aV188.5
p863
aV0.87
p864
aV0.79
p865
aI01
aa(lp866
V2017-12-02 09:39
p867
aV187.5
p868
aV0.85
p869
aV0.81
p870
aI01
aa(lp871
V2017-12-02 09:39
p872
aV186.5
p873
aV0.83
p874
aV0.83
p875
aI01
aa(lp876
V2017-12-02 09:39
p877
aV186.5
p878
aV0.81
p879
aV0.85
p880
aI01
aa(lp881
V2017-12-02 09:36
p882
aV187.5
p883
aV0.83
p884
aV0.83
p885
aI01
aa(lp886
V2017-12-02 09:36
p887
aV189.5
p888
aV0.83
p889
aV0.83
p890
aI01
aa(lp891
V2017-12-02 09:35
p892
aV186.5
p893
aV0.81
p894
aV0.85
p895
aI01
aa(lp896
V2017-12-02 09:35
p897
aV185.5
p898
aV0.87
p899
aV0.79
p900
aI01
aa(lp901
V2017-12-02 09:35
p902
aV185.5
p903
aV0.83
p904
aV0.83
p905
aI01
aa(lp906
V2017-12-02 09:35
p907
aV185.5
p908
aV0.81
p909
aV0.85
p910
aI01
aa(lp911
V2017-12-02 09:35
p912
aV185.5
p913
aV0.87
p914
aV0.79
p915
aI01
aa(lp916
V2017-12-02 09:34
p917
aV187.5
p918
aV0.81
p919
aV0.85
p920
aI01
aa(lp921
V2017-12-02 09:33
p922
aV185.5
p923
aV0.81
p924
aV0.85
p925
aI01
aa(lp926
V2017-12-02 09:29
p927
aV189.5
p928
aV0.81
p929
aV0.85
p930
aI01
aa(lp931
V2017-12-02 09:27
p932
aV188.5
p933
aV0.85
p934
aV0.81
p935
aI01
aa(lp936
V2017-12-02 09:26
p937
aV192.5
p938
aV0.81
p939
aV0.85
p940
aI01
aa(lp941
V2017-12-02 09:25
p942
aV190.5
p943
aV0.81
p944
aV0.85
p945
aI01
aa(lp946
V2017-12-02 09:24
p947
aV193.5
p948
aV0.81
p949
aV0.85
p950
aI01
aa(lp951
V2017-12-02 09:23
p952
aV193.5
p953
aV0.83
p954
aV0.83
p955
aI01
aa(lp956
V2017-12-02 09:23
p957
aV193.5
p958
aV0.85
p959
aV0.81
p960
aI01
aa(lp961
V2017-12-02 09:23
p962
aV191.5
p963
aV0.87
p964
aV0.79
p965
aI01
aa(lp966
V2017-12-02 09:22
p967
aV189.5
p968
aV0.77
p969
aV0.89
p970
aI01
aa(lp971
V2017-12-02 09:22
p972
aV189.5
p973
aV0.87
p974
aV0.79
p975
aI01
aa(lp976
V2017-12-02 09:21
p977
aV189.5
p978
aV0.81
p979
aV0.85
p980
aI01
aa(lp981
V2017-12-02 09:21
p982
aV189.5
p983
aV0.83
p984
aV0.83
p985
aI01
aa(lp986
V2017-12-02 09:21
p987
aV188.5
p988
aV0.85
p989
aV0.81
p990
aI01
aa(lp991
V2017-12-02 09:20
p992
aV188.5
p993
aV0.81
p994
aV0.85
p995
aI01
aa(lp996
V2017-12-02 09:20
p997
aV188.5
p998
aV0.87
p999
aV0.79
p1000
aI01
aa(lp1001
V2017-12-02 09:20
p1002
aV189.5
p1003
aV0.81
p1004
aV0.85
p1005
aI01
aa(lp1006
V2017-12-02 09:20
p1007
aV189.5
p1008
aV0.83
p1009
aV0.83
p1010
aI01
aa(lp1011
V2017-12-02 09:19
p1012
aV189.5
p1013
aV0.81
p1014
aV0.85
p1015
aI01
aa(lp1016
V2017-12-02 09:16
p1017
aV189.5
p1018
aV0.83
p1019
aV0.83
p1020
aI01
aa(lp1021
V2017-12-02 09:16
p1022
aV190.5
p1023
aV0.85
p1024
aV0.81
p1025
aI01
aa(lp1026
V2017-12-02 09:16
p1027
aV189.5
p1028
aV0.81
p1029
aV0.85
p1030
aI01
aa(lp1031
V2017-12-02 09:15
p1032
aV191.5
p1033
aV0.83
p1034
aV0.83
p1035
aI01
aa(lp1036
V2017-12-02 09:15
p1037
aV189.5
p1038
aV0.85
p1039
aV0.81
p1040
aI01
aa(lp1041
V2017-12-02 09:15
p1042
aV190.5
p1043
aV0.83
p1044
aV0.83
p1045
aI01
aa(lp1046
V2017-12-02 09:14
p1047
aV191.5
p1048
aV0.85
p1049
aV0.81
p1050
aI01
aa(lp1051
V2017-12-02 09:14
p1052
aV190.5
p1053
aV0.83
p1054
aV0.83
p1055
aI01
aa(lp1056
V2017-12-02 09:14
p1057
aV190.5
p1058
aV0.87
p1059
aV0.79
p1060
aI01
aa(lp1061
V2017-12-02 09:14
p1062
aV191.5
p1063
aV0.81
p1064
aV0.85
p1065
aI01
aa(lp1066
V2017-12-02 09:14
p1067
aV190.5
p1068
aV0.85
p1069
aV0.81
p1070
aI01
aa(lp1071
V2017-12-02 09:14
p1072
aV191.5
p1073
aV0.81
p1074
aV0.85
p1075
aI01
aa(lp1076
V2017-12-02 09:13
p1077
aV191.5
p1078
aV0.87
p1079
aV0.79
p1080
aI01
aa(lp1081
V2017-12-02 09:13
p1082
aV193.5
p1083
aV0.87
p1084
aV0.79
p1085
aI01
aa(lp1086
V2017-12-02 09:12
p1087
aV193.5
p1088
aV0.81
p1089
aV0.85
p1090
aI01
aa(lp1091
V2017-12-02 09:12
p1092
aV192.5
p1093
aV0.83
p1094
aV0.83
p1095
aI01
aa(lp1096
V2017-12-02 09:12
p1097
aV191.5
p1098
aV0.85
p1099
aV0.81
p1100
aI01
aa(lp1101
V2017-12-02 09:12
p1102
aV192.5
p1103
aV0.81
p1104
aV0.85
p1105
aI01
aa(lp1106
V2017-12-02 09:11
p1107
aV192.5
p1108
aV0.83
p1109
aV0.83
p1110
aI01
aa(lp1111
V2017-12-02 09:11
p1112
aV192.5
p1113
aV0.85
p1114
aV0.81
p1115
aI01
aa(lp1116
V2017-12-02 09:11
p1117
aV192.5
p1118
aV0.87
p1119
aV0.79
p1120
aI01
aa(lp1121
V2017-12-02 09:11
p1122
aV192.5
p1123
aV0.81
p1124
aV0.85
p1125
aI01
aa(lp1126
V2017-12-02 09:10
p1127
aV193.5
p1128
aV0.87
p1129
aV0.79
p1130
aI01
aa(lp1131
V2017-12-02 09:04
p1132
aV192.5
p1133
aV0.83
p1134
aV0.83
p1135
aI00
aa(lp1136
V2017-12-02 08:55
p1137
aV192.5
p1138
aV0.93
p1139
aV0.93
p1140
aI00
aa(lp1141
V2017-12-02 08:50
p1142
aV192.5
p1143
aV0.96
p1144
aV0.90
p1145
aI00
aa(lp1146
V2017-12-02 08:46
p1147
aV192.5
p1148
aV0.93
p1149
aV0.93
p1150
aI00
aa(lp1151
V2017-12-02 08:45
p1152
aV192.5
p1153
aV0.96
p1154
aV0.90
p1155
aI00
aa(lp1156
V2017-12-02 08:45
p1157
aV192.5
p1158
aV0.93
p1159
aV0.93
p1160
aI00
aa(lp1161
V2017-12-02 08:44
p1162
aV192.5
p1163
aV0.96
p1164
aV0.90
p1165
aI00
aa(lp1166
V2017-12-02 07:59
p1167
aV192.5
p1168
aV0.91
p1169
aV0.95
p1170
aI00
aa(lp1171
V2017-12-02 07:58
p1172
aV192.5
p1173
aV0.93
p1174
aV0.93
p1175
aI00
aa(lp1176
V2017-12-02 06:25
p1177
aV192.5
p1178
aV0.89
p1179
aV0.97
p1180
aI00
aa(lp1181
V2017-12-02 04:37
p1182
aV192.5
p1183
aV0.93
p1184
aV0.93
p1185
aI00
aa(lp1186
V2017-12-02 04:24
p1187
aV192.5
p1188
aV0.95
p1189
aV0.91
p1190
aI00
aa(lp1191
V2017-12-02 04:23
p1192
aV191.5
p1193
aV0.84
p1194
aV1.02
p1195
aI00
aa(lp1196
V2017-12-02 03:52
p1197
aV192.5
p1198
aV0.95
p1199
aV0.91
p1200
aI00
aa(lp1201
V2017-12-02 02:09
p1202
aV192.5
p1203
aV0.95
p1204
aV0.89
p1205
aI00
aa(lp1206
V2017-12-02 01:18
p1207
aV192.5
p1208
aV0.97
p1209
aV0.87
p1210
aI00
aa(lp1211
V2017-12-02 00:13
p1212
aV192.5
p1213
aV0.95
p1214
aV0.89
p1215
aI00
aa(lp1216
V2017-12-01 21:40
p1217
aV193.5
p1218
aV0.93
p1219
aV0.91
p1220
aI00
aa(lp1221
V2017-12-01 21:40
p1222
aV192.5
p1223
aV0.83
p1224
aV1.01
p1225
aI00
aa(lp1226
V2017-12-01 20:37
p1227
aV193.5
p1228
aV0.93
p1229
aV0.91
p1230
aI00
aa(lp1231
V2017-12-01 20:36
p1232
aV193.5
p1233
aV0.94
p1234
aV0.90
p1235
aI00
aa(lp1236
V2017-12-01 17:16
p1237
aV193.5
p1238
aV0.96
p1239
aV0.88
p1240
aI00
aa(lp1241
V2017-12-01 17:15
p1242
aV193.5
p1243
aV0.92
p1244
aV0.92
p1245
aI00
aa(lp1246
V2017-12-01 15:25
p1247
aV193.5
p1248
aV0.95
p1249
aV0.89
p1250
aI00
aa(lp1251
V2017-12-01 15:25
p1252
aV193.5
p1253
aV0.92
p1254
aV0.92
p1255
aI00
aa(lp1256
V2017-12-01 14:49
p1257
aV193.5
p1258
aV0.94
p1259
aV0.90
p1260
aI00
aa(lp1261
V2017-12-01 14:38
p1262
aV193.5
p1263
aV0.92
p1264
aV0.92
p1265
aI00
aa(lp1266
V2017-12-01 14:35
p1267
aV193.5
p1268
aV0.96
p1269
aV0.88
p1270
aI00
aa(lp1271
V2017-12-01 12:43
p1272
aV193.5
p1273
aV0.92
p1274
aV0.92
p1275
aI00
aasS'sbo'
p1276
(lp1277
(lp1278
V2017-12-02 11:01
p1279
aV177.5
p1280
aV0.95
p1281
aV0.75
p1282
aI01
aa(lp1283
V2017-12-02 10:55
p1284
aV174.5
p1285
aV0.95
p1286
aV0.75
p1287
aI01
aa(lp1288
V2017-12-02 10:55
p1289
aV174.5
p1290
aV0.85
p1291
aV0.85
p1292
aI01
aa(lp1293
V2017-12-02 10:54
p1294
aV174.5
p1295
aV1.05
p1296
aV0.65
p1297
aI01
aa(lp1298
V2017-12-02 10:53
p1299
aV177.5
p1300
aV1.05
p1301
aV0.65
p1302
aI01
aa(lp1303
V2017-12-02 10:53
p1304
aV177.5
p1305
aV0.90
p1306
aV0.80
p1307
aI01
aa(lp1308
V2017-12-02 10:53
p1309
aV177.5
p1310
aV1.11
p1311
aV0.60
p1312
aI01
aa(lp1313
V2017-12-02 10:52
p1314
aV177.5
p1315
aV0.90
p1316
aV0.80
p1317
aI01
aa(lp1318
V2017-12-02 10:50
p1319
aV179.5
p1320
aV0.60
p1321
aV1.11
p1322
aI01
aa(lp1323
V2017-12-02 10:50
p1324
aV180.5
p1325
aV0.75
p1326
aV0.95
p1327
aI01
aa(lp1328
V2017-12-02 10:49
p1329
aV180.5
p1330
aV0.70
p1331
aV1.00
p1332
aI01
aa(lp1333
V2017-12-02 10:48
p1334
aV180.5
p1335
aV0.60
p1336
aV1.11
p1337
aI01
aa(lp1338
V2017-12-02 10:47
p1339
aV180.5
p1340
aV1.11
p1341
aV0.60
p1342
aI01
aa(lp1343
V2017-12-02 10:47
p1344
aV180.5
p1345
aV0.90
p1346
aV0.80
p1347
aI01
aa(lp1348
V2017-12-02 10:46
p1349
aV180.5
p1350
aV1.00
p1351
aV0.70
p1352
aI01
aa(lp1353
V2017-12-02 10:46
p1354
aV180.5
p1355
aV0.90
p1356
aV0.80
p1357
aI01
aa(lp1358
V2017-12-02 10:45
p1359
aV180.5
p1360
aV0.70
p1361
aV1.00
p1362
aI01
aa(lp1363
V2017-12-02 10:45
p1364
aV179.5
p1365
aV0.70
p1366
aV1.00
p1367
aI01
aa(lp1368
V2017-12-02 10:44
p1369
aV179.5
p1370
aV0.90
p1371
aV0.80
p1372
aI01
aa(lp1373
V2017-12-02 10:43
p1374
aV179.5
p1375
aV0.75
p1376
aV0.95
p1377
aI01
aa(lp1378
V2017-12-02 10:43
p1379
aV179.5
p1380
aV0.80
p1381
aV0.90
p1382
aI01
aa(lp1383
V2017-12-02 10:42
p1384
aV178.5
p1385
aV0.75
p1386
aV0.95
p1387
aI01
aa(lp1388
V2017-12-02 10:41
p1389
aV179.5
p1390
aV0.85
p1391
aV0.85
p1392
aI01
aa(lp1393
V2017-12-02 10:41
p1394
aV179.5
p1395
aV1.05
p1396
aV0.65
p1397
aI01
aa(lp1398
V2017-12-02 10:41
p1399
aV179.5
p1400
aV1.25
p1401
aV0.50
p1402
aI01
aa(lp1403
V2017-12-02 10:40
p1404
aV180.5
p1405
aV1.25
p1406
aV0.50
p1407
aI01
aa(lp1408
V2017-12-02 10:40
p1409
aV182.5
p1410
aV1.25
p1411
aV0.50
p1412
aI01
aa(lp1413
V2017-12-02 10:39
p1414
aV182.5
p1415
aV1.11
p1416
aV0.60
p1417
aI01
aa(lp1418
V2017-12-02 10:39
p1419
aV184.5
p1420
aV1.25
p1421
aV0.50
p1422
aI01
aa(lp1423
V2017-12-02 10:39
p1424
aV184.5
p1425
aV1.17
p1426
aV0.55
p1427
aI01
aa(lp1428
V2017-12-02 10:36
p1429
aV182.5
p1430
aV0.90
p1431
aV0.80
p1432
aI01
aa(lp1433
V2017-12-02 10:36
p1434
aV184.5
p1435
aV1.11
p1436
aV0.60
p1437
aI01
aa(lp1438
V2017-12-02 10:35
p1439
aV182.5
p1440
aV1.00
p1441
aV0.70
p1442
aI01
aa(lp1443
V2017-12-02 10:35
p1444
aV182.5
p1445
aV0.90
p1446
aV0.80
p1447
aI01
aa(lp1448
V2017-12-02 10:34
p1449
aV182.5
p1450
aV1.17
p1451
aV0.55
p1452
aI01
aa(lp1453
V2017-12-02 10:32
p1454
aV182.5
p1455
aV1.11
p1456
aV0.60
p1457
aI01
aa(lp1458
V2017-12-02 10:32
p1459
aV183.5
p1460
aV1.11
p1461
aV0.60
p1462
aI01
aa(lp1463
V2017-12-02 10:31
p1464
aV184.5
p1465
aV1.11
p1466
aV0.60
p1467
aI01
aa(lp1468
V2017-12-02 10:31
p1469
aV184.5
p1470
aV1.00
p1471
aV0.70
p1472
aI01
aa(lp1473
V2017-12-02 10:30
p1474
aV184.5
p1475
aV0.95
p1476
aV0.75
p1477
aI01
aa(lp1478
V2017-12-02 10:30
p1479
aV184.5
p1480
aV0.75
p1481
aV0.95
p1482
aI01
aa(lp1483
V2017-12-02 10:30
p1484
aV184.5
p1485
aV0.65
p1486
aV1.05
p1487
aI01
aa(lp1488
V2017-12-02 10:29
p1489
aV184.5
p1490
aV0.80
p1491
aV0.90
p1492
aI01
aa(lp1493
V2017-12-02 10:28
p1494
aV184.5
p1495
aV0.90
p1496
aV0.80
p1497
aI01
aa(lp1498
V2017-12-02 10:27
p1499
aV184.5
p1500
aV1.00
p1501
aV0.70
p1502
aI01
aa(lp1503
V2017-12-02 10:23
p1504
aV184.5
p1505
aV1.11
p1506
aV0.60
p1507
aI01
aa(lp1508
V2017-12-02 10:22
p1509
aV184.5
p1510
aV1.05
p1511
aV0.65
p1512
aI01
aa(lp1513
V2017-12-02 10:22
p1514
aV184.5
p1515
aV1.17
p1516
aV0.55
p1517
aI01
aa(lp1518
V2017-12-02 10:21
p1519
aV184.5
p1520
aV1.11
p1521
aV0.60
p1522
aI01
aa(lp1523
V2017-12-02 10:21
p1524
aV184.5
p1525
aV0.95
p1526
aV0.75
p1527
aI01
aa(lp1528
V2017-12-02 10:21
p1529
aV184.5
p1530
aV0.90
p1531
aV0.80
p1532
aI01
aa(lp1533
V2017-12-02 10:19
p1534
aV184.5
p1535
aV0.80
p1536
aV0.90
p1537
aI01
aa(lp1538
V2017-12-02 10:19
p1539
aV185.5
p1540
aV0.94
p1541
aV0.92
p1542
aI01
aa(lp1543
V2017-12-02 10:19
p1544
aV184.5
p1545
aV0.81
p1546
aV1.05
p1547
aI01
aa(lp1548
V2017-12-02 10:16
p1549
aV184.5
p1550
aV0.76
p1551
aV1.11
p1552
aI01
aa(lp1553
V2017-12-02 10:15
p1554
aV184.5
p1555
aV0.83
p1556
aV1.03
p1557
aI01
aa(lp1558
V2017-12-02 10:15
p1559
aV184.5
p1560
aV0.84
p1561
aV1.02
p1562
aI01
aa(lp1563
V2017-12-02 10:07
p1564
aV184.5
p1565
aV0.91
p1566
aV0.95
p1567
aI01
aa(lp1568
V2017-12-02 10:03
p1569
aV187.5
p1570
aV0.85
p1571
aV0.85
p1572
aI01
aa(lp1573
V2017-12-02 10:03
p1574
aV187.5
p1575
aV1.05
p1576
aV0.65
p1577
aI01
aa(lp1578
V2017-12-02 10:01
p1579
aV189.5
p1580
aV1.11
p1581
aV0.60
p1582
aI01
aa(lp1583
V2017-12-02 10:00
p1584
aV189.5
p1585
aV1.00
p1586
aV0.70
p1587
aI01
aa(lp1588
V2017-12-02 10:00
p1589
aV189.5
p1590
aV1.11
p1591
aV0.60
p1592
aI01
aa(lp1593
V2017-12-02 09:59
p1594
aV190.5
p1595
aV1.05
p1596
aV0.65
p1597
aI01
aa(lp1598
V2017-12-02 09:59
p1599
aV191.5
p1600
aV1.11
p1601
aV0.60
p1602
aI01
aa(lp1603
V2017-12-02 09:58
p1604
aV191.5
p1605
aV1.00
p1606
aV0.70
p1607
aI01
aa(lp1608
V2017-12-02 09:58
p1609
aV191.5
p1610
aV1.11
p1611
aV0.60
p1612
aI01
aa(lp1613
V2017-12-02 09:57
p1614
aV191.5
p1615
aV1.05
p1616
aV0.65
p1617
aI01
aa(lp1618
V2017-12-02 09:57
p1619
aV192.5
p1620
aV1.05
p1621
aV0.65
p1622
aI01
aa(lp1623
V2017-12-02 09:54
p1624
aV192.5
p1625
aV0.90
p1626
aV0.80
p1627
aI01
aa(lp1628
V2017-12-02 09:53
p1629
aV192.5
p1630
aV0.80
p1631
aV0.90
p1632
aI01
aa(lp1633
V2017-12-02 09:53
p1634
aV190.5
p1635
aV0.85
p1636
aV0.85
p1637
aI01
aa(lp1638
V2017-12-02 09:53
p1639
aV190.5
p1640
aV1.00
p1641
aV0.70
p1642
aI01
aa(lp1643
V2017-12-02 09:52
p1644
aV191.5
p1645
aV0.85
p1646
aV0.85
p1647
aI01
aa(lp1648
V2017-12-02 09:52
p1649
aV191.5
p1650
aV1.00
p1651
aV0.70
p1652
aI01
aa(lp1653
V2017-12-02 09:51
p1654
aV192.5
p1655
aV1.00
p1656
aV0.70
p1657
aI01
aa(lp1658
V2017-12-02 09:50
p1659
aV192.5
p1660
aV0.90
p1661
aV0.80
p1662
aI01
aa(lp1663
V2017-12-02 09:50
p1664
aV192.5
p1665
aV0.80
p1666
aV0.90
p1667
aI01
aa(lp1668
V2017-12-02 09:49
p1669
aV192.5
p1670
aV1.00
p1671
aV0.70
p1672
aI01
aa(lp1673
V2017-12-02 09:48
p1674
aV192.5
p1675
aV0.80
p1676
aV0.90
p1677
aI01
aa(lp1678
V2017-12-02 09:48
p1679
aV192.5
p1680
aV0.75
p1681
aV0.95
p1682
aI01
aa(lp1683
V2017-12-02 09:47
p1684
aV191.5
p1685
aV0.70
p1686
aV1.00
p1687
aI01
aa(lp1688
V2017-12-02 09:45
p1689
aV192.5
p1690
aV0.85
p1691
aV0.85
p1692
aI01
aa(lp1693
V2017-12-02 09:44
p1694
aV191.5
p1695
aV0.70
p1696
aV1.00
p1697
aI01
aa(lp1698
V2017-12-02 09:44
p1699
aV191.5
p1700
aV0.75
p1701
aV0.95
p1702
aI01
aa(lp1703
V2017-12-02 09:43
p1704
aV191.5
p1705
aV1.00
p1706
aV0.70
p1707
aI01
aa(lp1708
V2017-12-02 09:43
p1709
aV191.5
p1710
aV0.85
p1711
aV0.85
p1712
aI01
aa(lp1713
V2017-12-02 09:43
p1714
aV191.5
p1715
aV0.70
p1716
aV1.00
p1717
aI01
aa(lp1718
V2017-12-02 09:42
p1719
aV189.5
p1720
aV0.70
p1721
aV1.00
p1722
aI01
aa(lp1723
V2017-12-02 09:41
p1724
aV189.5
p1725
aV0.90
p1726
aV0.80
p1727
aI01
aa(lp1728
V2017-12-02 09:40
p1729
aV189.5
p1730
aV0.80
p1731
aV0.90
p1732
aI01
aa(lp1733
V2017-12-02 09:40
p1734
aV189.5
p1735
aV0.90
p1736
aV0.80
p1737
aI01
aa(lp1738
V2017-12-02 09:39
p1739
aV189.5
p1740
aV0.70
p1741
aV1.00
p1742
aI01
aa(lp1743
V2017-12-02 09:39
p1744
aV189.5
p1745
aV1.00
p1746
aV0.70
p1747
aI01
aa(lp1748
V2017-12-02 09:36
p1749
aV188.5
p1750
aV0.80
p1751
aV0.90
p1752
aI01
aa(lp1753
V2017-12-02 09:36
p1754
aV189.5
p1755
aV0.95
p1756
aV0.75
p1757
aI01
aa(lp1758
V2017-12-02 09:35
p1759
aV189.5
p1760
aV1.00
p1761
aV0.70
p1762
aI01
aa(lp1763
V2017-12-02 09:34
p1764
aV189.5
p1765
aV0.85
p1766
aV0.85
p1767
aI01
aa(lp1768
V2017-12-02 09:33
p1769
aV189.5
p1770
aV1.11
p1771
aV0.60
p1772
aI01
aa(lp1773
V2017-12-02 09:33
p1774
aV190.5
p1775
aV1.11
p1776
aV0.60
p1777
aI01
aa(lp1778
V2017-12-02 09:29
p1779
aV190.5
p1780
aV1.05
p1781
aV0.65
p1782
aI01
aa(lp1783
V2017-12-02 09:27
p1784
aV190.5
p1785
aV0.80
p1786
aV0.90
p1787
aI01
aa(lp1788
V2017-12-02 09:27
p1789
aV192.5
p1790
aV0.90
p1791
aV0.80
p1792
aI01
aa(lp1793
V2017-12-02 09:26
p1794
aV192.5
p1795
aV0.70
p1796
aV1.00
p1797
aI01
aa(lp1798
V2017-12-02 09:23
p1799
aV192.5
p1800
aV0.90
p1801
aV0.80
p1802
aI01
aa(lp1803
V2017-12-02 09:22
p1804
aV190.5
p1805
aV0.85
p1806
aV0.85
p1807
aI01
aa(lp1808
V2017-12-02 09:22
p1809
aV190.5
p1810
aV0.90
p1811
aV0.80
p1812
aI01
aa(lp1813
V2017-12-02 09:21
p1814
aV190.5
p1815
aV1.00
p1816
aV0.70
p1817
aI01
aa(lp1818
V2017-12-02 09:20
p1819
aV191.5
p1820
aV1.00
p1821
aV0.70
p1822
aI01
aa(lp1823
V2017-12-02 09:17
p1824
aV192.5
p1825
aV1.00
p1826
aV0.70
p1827
aI01
aa(lp1828
V2017-12-02 09:16
p1829
aV192.5
p1830
aV0.90
p1831
aV0.80
p1832
aI01
aa(lp1833
V2017-12-02 09:15
p1834
aV192.5
p1835
aV1.00
p1836
aV0.70
p1837
aI01
aa(lp1838
V2017-12-02 09:14
p1839
aV192.5
p1840
aV0.90
p1841
aV0.80
p1842
aI01
aa(lp1843
V2017-12-02 09:14
p1844
aV192.5
p1845
aV0.75
p1846
aV0.95
p1847
aI01
aa(lp1848
V2017-12-02 09:13
p1849
aV192.5
p1850
aV0.65
p1851
aV1.05
p1852
aI01
aa(lp1853
V2017-12-02 09:12
p1854
aV192.5
p1855
aV0.70
p1856
aV1.00
p1857
aI01
aa(lp1858
V2017-12-02 09:12
p1859
aV192.5
p1860
aV0.65
p1861
aV1.05
p1862
aI01
aa(lp1863
V2017-12-02 09:00
p1864
aV192.5
p1865
aV0.70
p1866
aV1.00
p1867
aI00
aa(lp1868
V2017-12-02 08:56
p1869
aV192.5
p1870
aV0.87
p1871
aV1.01
p1872
aI00
aa(lp1873
V2017-12-02 08:47
p1874
aV192.5
p1875
aV0.88
p1876
aV1.00
p1877
aI00
aa(lp1878
V2017-12-02 06:20
p1879
aV192.5
p1880
aV0.87
p1881
aV1.01
p1882
aI00
aa(lp1883
V2017-12-02 06:11
p1884
aV192.5
p1885
aV0.88
p1886
aV1.00
p1887
aI00
aa(lp1888
V2017-12-02 05:51
p1889
aV192.5
p1890
aV0.87
p1891
aV1.01
p1892
aI00
aa(lp1893
V2017-12-02 05:33
p1894
aV193
p1895
aV1.00
p1896
aV0.88
p1897
aI00
aa(lp1898
V2017-12-02 04:46
p1899
aV193
p1900
aV0.99
p1901
aV0.89
p1902
aI00
aa(lp1903
V2017-12-02 01:57
p1904
aV193
p1905
aV1.00
p1906
aV0.88
p1907
aI00
aa(lp1908
V2017-12-02 01:35
p1909
aV193
p1910
aV1.08
p1911
aV0.80
p1912
aI00
aa(lp1913
V2017-12-02 00:15
p1914
aV193
p1915
aV1.05
p1916
aV0.83
p1917
aI00
aa(lp1918
V2017-12-01 23:50
p1919
aV193
p1920
aV0.98
p1921
aV0.90
p1922
aI00
aa(lp1923
V2017-12-01 23:26
p1924
aV193
p1925
aV0.94
p1926
aV0.94
p1927
aI00
aa(lp1928
V2017-12-01 23:14
p1929
aV193
p1930
aV0.90
p1931
aV0.98
p1932
aI00
aa(lp1933
V2017-12-01 20:33
p1934
aV193
p1935
aV0.94
p1936
aV0.94
p1937
aI00
aa(lp1938
V2017-12-01 20:28
p1939
aV193
p1940
aV0.98
p1941
aV0.90
p1942
aI00
aa(lp1943
V2017-12-01 15:26
p1944
aV193
p1945
aV0.94
p1946
aV0.94
p1947
aI00
aa(lp1948
V2017-12-01 15:06
p1949
aV193
p1950
aV0.97
p1951
aV0.91
p1952
aI00
aa(lp1953
V2017-12-01 14:29
p1954
aV193
p1955
aV0.89
p1956
aV0.99
p1957
aI00
aa(lp1958
V2017-12-01 11:35
p1959
aV193
p1960
aV0.85
p1961
aV1.03
p1962
aI00
aa(lp1963
V2017-12-01 10:51
p1964
aV193
p1965
aV0.91
p1966
aV0.97
p1967
aI00
aa(lp1968
V2017-12-01 10:45
p1969
aV193
p1970
aV0.89
p1971
aV0.97
p1972
aI00
aa(lp1973
V2017-12-01 05:37
p1974
aV193.5
p1975
aV0.95
p1976
aV0.91
p1977
aI00
aasS'wade'
p1978
(lp1979
(lp1980
V2017-12-02 08:47
p1981
aV193.5
p1982
aV0.90
p1983
aV0.80
p1984
aI00
aa(lp1985
V2017-12-02 06:24
p1986
aV193
p1987
aV0.90
p1988
aV0.90
p1989
aI00
aa(lp1990
V2017-12-02 04:44
p1991
aV192.5
p1992
aV0.90
p1993
aV0.90
p1994
aI00
aa(lp1995
V2017-12-02 02:06
p1996
aV192
p1997
aV0.90
p1998
aV0.90
p1999
aI00
aa(lp2000
V2017-12-02 02:00
p2001
aV192.5
p2002
aV0.90
p2003
aV0.90
p2004
aI00
aa(lp2005
V2017-12-02 01:55
p2006
aV192
p2007
aV0.90
p2008
aV0.90
p2009
aI00
aa(lp2010
V2017-12-02 01:37
p2011
aV191.5
p2012
aV0.90
p2013
aV0.90
p2014
aI00
aa(lp2015
V2017-12-02 00:21
p2016
aV192
p2017
aV0.90
p2018
aV0.90
p2019
aI00
aa(lp2020
V2017-12-02 00:15
p2021
aV192.5
p2022
aV0.90
p2023
aV0.90
p2024
aI00
aa(lp2025
V2017-12-01 23:29
p2026
aV193
p2027
aV0.90
p2028
aV0.90
p2029
aI00
aa(lp2030
V2017-12-01 23:18
p2031
aV193.5
p2032
aV0.90
p2033
aV0.90
p2034
aI00
aa(lp2035
V2017-12-01 14:59
p2036
aV193
p2037
aV0.90
p2038
aV0.90
p2039
aI00
aa(lp2040
V2017-12-01 04:16
p2041
aV193.5
p2042
aV0.90
p2043
aV0.90
p2044
aI00
aasS'game_id'
p2045
V290171
p2046
sS'bet365'
p2047
(lp2048
(lp2049
V2017-12-02 11:05
p2050
aV175.5
p2051
aV1.00
p2052
aV0.76
p2053
aI01
aa(lp2054
V2017-12-02 11:05
p2055
aV175.5
p2056
aV0.80
p2057
aV0.95
p2058
aI01
aa(lp2059
V2017-12-02 11:04
p2060
aV175.5
p2061
aV1.00
p2062
aV0.76
p2063
aI01
aa(lp2064
V2017-12-02 11:03
p2065
aV176.5
p2066
aV1.00
p2067
aV0.76
p2068
aI01
aa(lp2069
V2017-12-02 11:03
p2070
aV176.5
p2071
aV0.90
p2072
aV0.83
p2073
aI01
aa(lp2074
V2017-12-02 10:59
p2075
aV177.5
p2076
aV1.00
p2077
aV0.76
p2078
aI01
aa(lp2079
V2017-12-02 10:59
p2080
aV176.5
p2081
aV0.86
p2082
aV0.86
p2083
aI01
aa(lp2084
V2017-12-02 10:58
p2085
aV177.5
p2086
aV0.80
p2087
aV0.95
p2088
aI01
aa(lp2089
V2017-12-02 10:58
p2090
aV174.5
p2091
aV0.83
p2092
aV0.90
p2093
aI01
aa(lp2094
V2017-12-02 10:57
p2095
aV174.5
p2096
aV0.80
p2097
aV0.95
p2098
aI01
aa(lp2099
V2017-12-02 10:57
p2100
aV175.5
p2101
aV0.95
p2102
aV0.80
p2103
aI01
aa(lp2104
V2017-12-02 10:56
p2105
aV173.5
p2106
aV0.90
p2107
aV0.83
p2108
aI01
aa(lp2109
V2017-12-02 10:55
p2110
aV174.5
p2111
aV0.95
p2112
aV0.80
p2113
aI01
aa(lp2114
V2017-12-02 10:55
p2115
aV175.5
p2116
aV0.90
p2117
aV0.83
p2118
aI01
aa(lp2119
V2017-12-02 10:55
p2120
aV172.5
p2121
aV0.83
p2122
aV0.90
p2123
aI01
aa(lp2124
V2017-12-02 10:54
p2125
aV173.5
p2126
aV0.83
p2127
aV0.90
p2128
aI01
aa(lp2129
V2017-12-02 10:54
p2130
aV173.5
p2131
aV0.80
p2132
aV0.95
p2133
aI01
aa(lp2134
V2017-12-02 10:53
p2135
aV172.5
p2136
aV0.83
p2137
aV0.90
p2138
aI01
aa(lp2139
V2017-12-02 10:52
p2140
aV178.5
p2141
aV0.90
p2142
aV0.83
p2143
aI01
aa(lp2144
V2017-12-02 10:47
p2145
aV181.5
p2146
aV0.95
p2147
aV0.80
p2148
aI01
aa(lp2149
V2017-12-02 10:47
p2150
aV178.5
p2151
aV0.83
p2152
aV0.90
p2153
aI01
aa(lp2154
V2017-12-02 10:46
p2155
aV180.5
p2156
aV0.86
p2157
aV0.86
p2158
aI01
aa(lp2159
V2017-12-02 10:46
p2160
aV179.5
p2161
aV0.86
p2162
aV0.86
p2163
aI01
aa(lp2164
V2017-12-02 10:45
p2165
aV180.5
p2166
aV0.83
p2167
aV0.90
p2168
aI01
aa(lp2169
V2017-12-02 10:45
p2170
aV180.5
p2171
aV0.86
p2172
aV0.86
p2173
aI01
aa(lp2174
V2017-12-02 10:44
p2175
aV180.5
p2176
aV0.90
p2177
aV0.83
p2178
aI01
aa(lp2179
V2017-12-02 10:44
p2180
aV178.5
p2181
aV0.80
p2182
aV0.95
p2183
aI01
aa(lp2184
V2017-12-02 10:43
p2185
aV179.5
p2186
aV0.83
p2187
aV0.90
p2188
aI01
aa(lp2189
V2017-12-02 10:43
p2190
aV179.5
p2191
aV0.86
p2192
aV0.86
p2193
aI01
aa(lp2194
V2017-12-02 10:41
p2195
aV179.5
p2196
aV0.90
p2197
aV0.83
p2198
aI01
aa(lp2199
V2017-12-02 10:41
p2200
aV178.5
p2201
aV0.83
p2202
aV0.90
p2203
aI01
aa(lp2204
V2017-12-02 10:39
p2205
aV180.5
p2206
aV0.90
p2207
aV0.83
p2208
aI01
aa(lp2209
V2017-12-02 10:39
p2210
aV181.5
p2211
aV0.90
p2212
aV0.83
p2213
aI01
aa(lp2214
V2017-12-02 10:35
p2215
aV182.5
p2216
aV0.90
p2217
aV0.83
p2218
aI01
aa(lp2219
V2017-12-02 10:35
p2220
aV180.5
p2221
aV0.86
p2222
aV0.86
p2223
aI01
aa(lp2224
V2017-12-02 10:34
p2225
aV182.5
p2226
aV0.90
p2227
aV0.83
p2228
aI01
aa(lp2229
V2017-12-02 10:34
p2230
aV180.5
p2231
aV0.90
p2232
aV0.83
p2233
aI01
aa(lp2234
V2017-12-02 10:34
p2235
aV180.5
p2236
aV0.80
p2237
aV0.95
p2238
aI01
aa(lp2239
V2017-12-02 10:33
p2240
aV180.5
p2241
aV0.83
p2242
aV0.90
p2243
aI01
aa(lp2244
V2017-12-02 10:32
p2245
aV180.5
p2246
aV0.90
p2247
aV0.83
p2248
aI01
aa(lp2249
V2017-12-02 10:32
p2250
aV178.5
p2251
aV0.83
p2252
aV0.90
p2253
aI01
aa(lp2254
V2017-12-02 10:31
p2255
aV180.5
p2256
aV0.90
p2257
aV0.83
p2258
aI01
aa(lp2259
V2017-12-02 10:31
p2260
aV181.5
p2261
aV0.86
p2262
aV0.86
p2263
aI01
aa(lp2264
V2017-12-02 10:30
p2265
aV182.5
p2266
aV0.83
p2267
aV0.90
p2268
aI01
aa(lp2269
V2017-12-02 10:30
p2270
aV185.5
p2271
aV0.86
p2272
aV0.86
p2273
aI01
aa(lp2274
V2017-12-02 10:29
p2275
aV184.5
p2276
aV0.86
p2277
aV0.86
p2278
aI01
aa(lp2279
V2017-12-02 10:28
p2280
aV183.5
p2281
aV0.86
p2282
aV0.86
p2283
aI01
aa(lp2284
V2017-12-02 10:27
p2285
aV182.5
p2286
aV0.83
p2287
aV0.90
p2288
aI01
aa(lp2289
V2017-12-02 10:27
p2290
aV182.5
p2291
aV0.90
p2292
aV0.83
p2293
aI01
aa(lp2294
V2017-12-02 10:27
p2295
aV182.5
p2296
aV0.86
p2297
aV0.86
p2298
aI01
aa(lp2299
V2017-12-02 10:24
p2300
aV183.5
p2301
aV0.90
p2302
aV0.83
p2303
aI01
aa(lp2304
V2017-12-02 10:23
p2305
aV181.5
p2306
aV0.86
p2307
aV0.86
p2308
aI01
aa(lp2309
V2017-12-02 10:23
p2310
aV180.5
p2311
aV0.86
p2312
aV0.86
p2313
aI01
aa(lp2314
V2017-12-02 10:22
p2315
aV182.5
p2316
aV0.90
p2317
aV0.83
p2318
aI01
aa(lp2319
V2017-12-02 10:22
p2320
aV183.5
p2321
aV0.90
p2322
aV0.83
p2323
aI01
aa(lp2324
V2017-12-02 10:22
p2325
aV183.5
p2326
aV0.83
p2327
aV0.90
p2328
aI01
aa(lp2329
V2017-12-02 10:21
p2330
aV182.5
p2331
aV0.90
p2332
aV0.83
p2333
aI01
aa(lp2334
V2017-12-02 10:21
p2335
aV183.5
p2336
aV0.90
p2337
aV0.83
p2338
aI01
aa(lp2339
V2017-12-02 10:20
p2340
aV183.5
p2341
aV0.83
p2342
aV0.90
p2343
aI01
aa(lp2344
V2017-12-02 10:20
p2345
aV184.5
p2346
aV0.86
p2347
aV0.86
p2348
aI01
aa(lp2349
V2017-12-02 10:19
p2350
aV183.5
p2351
aV0.86
p2352
aV0.86
p2353
aI01
aa(lp2354
V2017-12-02 10:19
p2355
aV184.5
p2356
aV0.83
p2357
aV0.90
p2358
aI01
aa(lp2359
V2017-12-02 10:03
p2360
aV185.5
p2361
aV0.90
p2362
aV0.83
p2363
aI01
aa(lp2364
V2017-12-02 10:03
p2365
aV185.5
p2366
aV0.86
p2367
aV0.86
p2368
aI01
aa(lp2369
V2017-12-02 10:03
p2370
aV187.5
p2371
aV0.86
p2372
aV0.86
p2373
aI01
aa(lp2374
V2017-12-02 10:02
p2375
aV185.5
p2376
aV0.86
p2377
aV0.86
p2378
aI01
aa(lp2379
V2017-12-02 10:02
p2380
aV187.5
p2381
aV0.86
p2382
aV0.86
p2383
aI01
aa(lp2384
V2017-12-02 10:01
p2385
aV186.5
p2386
aV0.86
p2387
aV0.86
p2388
aI01
aa(lp2389
V2017-12-02 10:01
p2390
aV188.5
p2391
aV0.90
p2392
aV0.83
p2393
aI01
aa(lp2394
V2017-12-02 10:00
p2395
aV187.5
p2396
aV0.90
p2397
aV0.83
p2398
aI01
aa(lp2399
V2017-12-02 10:00
p2400
aV186.5
p2401
aV0.86
p2402
aV0.86
p2403
aI01
aa(lp2404
V2017-12-02 09:59
p2405
aV188.5
p2406
aV0.83
p2407
aV0.90
p2408
aI01
aa(lp2409
V2017-12-02 09:58
p2410
aV190.5
p2411
aV0.86
p2412
aV0.86
p2413
aI01
aa(lp2414
V2017-12-02 09:57
p2415
aV190.5
p2416
aV0.83
p2417
aV0.90
p2418
aI01
aa(lp2419
V2017-12-02 09:53
p2420
aV192.5
p2421
aV0.86
p2422
aV0.86
p2423
aI01
aa(lp2424
V2017-12-02 09:53
p2425
aV191.5
p2426
aV0.86
p2427
aV0.86
p2428
aI01
aa(lp2429
V2017-12-02 09:53
p2430
aV188.5
p2431
aV0.86
p2432
aV0.86
p2433
aI01
aa(lp2434
V2017-12-02 09:52
p2435
aV190.5
p2436
aV0.86
p2437
aV0.86
p2438
aI01
aa(lp2439
V2017-12-02 09:52
p2440
aV189.5
p2441
aV0.83
p2442
aV0.90
p2443
aI01
aa(lp2444
V2017-12-02 09:51
p2445
aV189.5
p2446
aV0.86
p2447
aV0.86
p2448
aI01
aa(lp2449
V2017-12-02 09:50
p2450
aV190.5
p2451
aV0.86
p2452
aV0.86
p2453
aI01
aa(lp2454
V2017-12-02 09:48
p2455
aV191.5
p2456
aV0.86
p2457
aV0.86
p2458
aI01
aa(lp2459
V2017-12-02 09:47
p2460
aV192.5
p2461
aV0.90
p2462
aV0.83
p2463
aI01
aa(lp2464
V2017-12-02 09:47
p2465
aV191.5
p2466
aV0.90
p2467
aV0.83
p2468
aI01
aa(lp2469
V2017-12-02 09:44
p2470
aV192.5
p2471
aV0.86
p2472
aV0.86
p2473
aI01
aa(lp2474
V2017-12-02 09:43
p2475
aV191.5
p2476
aV0.86
p2477
aV0.90
p2478
aI01
aa(lp2479
V2017-12-02 09:43
p2480
aV191.5
p2481
aV0.83
p2482
aV0.90
p2483
aI01
aa(lp2484
V2017-12-02 09:42
p2485
aV190.5
p2486
aV0.86
p2487
aV0.86
p2488
aI01
aa(lp2489
V2017-12-02 09:42
p2490
aV189.5
p2491
aV0.86
p2492
aV0.86
p2493
aI01
aa(lp2494
V2017-12-02 09:41
p2495
aV188.5
p2496
aV0.83
p2497
aV0.90
p2498
aI01
aa(lp2499
V2017-12-02 09:40
p2500
aV187.5
p2501
aV0.86
p2502
aV0.86
p2503
aI01
aa(lp2504
V2017-12-02 09:40
p2505
aV189.5
p2506
aV0.86
p2507
aV0.86
p2508
aI01
aa(lp2509
V2017-12-02 09:39
p2510
aV188.5
p2511
aV0.86
p2512
aV0.86
p2513
aI01
aa(lp2514
V2017-12-02 09:39
p2515
aV190.5
p2516
aV0.86
p2517
aV0.86
p2518
aI01
aa(lp2519
V2017-12-02 09:39
p2520
aV189.5
p2521
aV0.86
p2522
aV0.86
p2523
aI01
aa(lp2524
V2017-12-02 09:38
p2525
aV188.5
p2526
aV0.86
p2527
aV0.86
p2528
aI01
aa(lp2529
V2017-12-02 09:36
p2530
aV188.5
p2531
aV0.83
p2532
aV0.90
p2533
aI01
aa(lp2534
V2017-12-02 09:35
p2535
aV187.5
p2536
aV0.83
p2537
aV0.90
p2538
aI01
aa(lp2539
V2017-12-02 09:34
p2540
aV187.5
p2541
aV0.86
p2542
aV0.86
p2543
aI01
aa(lp2544
V2017-12-02 09:34
p2545
aV189.5
p2546
aV0.86
p2547
aV0.86
p2548
aI01
aa(lp2549
V2017-12-02 09:32
p2550
aV188.5
p2551
aV0.86
p2552
aV0.86
p2553
aI01
aa(lp2554
V2017-12-02 09:31
p2555
aV186.5
p2556
aV0.83
p2557
aV0.90
p2558
aI01
aa(lp2559
V2017-12-02 09:28
p2560
aV188.5
p2561
aV0.83
p2562
aV0.90
p2563
aI01
aa(lp2564
V2017-12-02 09:28
p2565
aV187.5
p2566
aV0.86
p2567
aV0.86
p2568
aI01
aa(lp2569
V2017-12-02 09:27
p2570
aV190.5
p2571
aV0.90
p2572
aV0.83
p2573
aI01
aa(lp2574
V2017-12-02 09:27
p2575
aV190.5
p2576
aV0.83
p2577
aV0.90
p2578
aI01
aa(lp2579
V2017-12-02 09:25
p2580
aV193.5
p2581
aV0.90
p2582
aV0.83
p2583
aI01
aa(lp2584
V2017-12-02 09:24
p2585
aV191.5
p2586
aV0.86
p2587
aV0.86
p2588
aI01
aa(lp2589
V2017-12-02 09:24
p2590
aV192.5
p2591
aV0.83
p2592
aV0.90
p2593
aI01
aa(lp2594
V2017-12-02 09:23
p2595
aV192.5
p2596
aV0.86
p2597
aV0.86
p2598
aI01
aa(lp2599
V2017-12-02 09:23
p2600
aV191.5
p2601
aV0.83
p2602
aV0.90
p2603
aI01
aa(lp2604
V2017-12-02 09:21
p2605
aV190.5
p2606
aV0.90
p2607
aV0.83
p2608
aI01
aa(lp2609
V2017-12-02 09:21
p2610
aV189.5
p2611
aV0.86
p2612
aV0.86
p2613
aI01
aa(lp2614
V2017-12-02 09:20
p2615
aV188.5
p2616
aV0.83
p2617
aV0.90
p2618
aI01
aa(lp2619
V2017-12-02 09:16
p2620
aV190.5
p2621
aV0.86
p2622
aV0.86
p2623
aI01
aa(lp2624
V2017-12-02 09:15
p2625
aV191.5
p2626
aV0.86
p2627
aV0.86
p2628
aI01
aa(lp2629
V2017-12-02 09:15
p2630
aV190.5
p2631
aV0.86
p2632
aV0.86
p2633
aI01
aa(lp2634
V2017-12-02 09:14
p2635
aV191.5
p2636
aV0.83
p2637
aV0.90
p2638
aI01
aa(lp2639
V2017-12-02 09:14
p2640
aV190.5
p2641
aV0.86
p2642
aV0.86
p2643
aI01
aa(lp2644
V2017-12-02 09:14
p2645
aV191.5
p2646
aV0.90
p2647
aV0.83
p2648
aI01
aa(lp2649
V2017-12-02 09:13
p2650
aV191.5
p2651
aV0.86
p2652
aV0.86
p2653
aI01
aa(lp2654
V2017-12-02 09:13
p2655
aV193.5
p2656
aV0.86
p2657
aV0.86
p2658
aI01
aa(lp2659
V2017-12-02 09:12
p2660
aV193.5
p2661
aV0.90
p2662
aV0.83
p2663
aI01
aa(lp2664
V2017-12-02 09:12
p2665
aV192.5
p2666
aV0.83
p2667
aV0.90
p2668
aI01
aa(lp2669
V2017-12-02 09:11
p2670
aV191.5
p2671
aV0.83
p2672
aV0.90
p2673
aI01
aa(lp2674
V2017-12-02 09:11
p2675
aV192.5
p2676
aV0.83
p2677
aV0.90
p2678
aI01
aa(lp2679
V2017-12-02 09:11
p2680
aV192.5
p2681
aV0.86
p2682
aV0.86
p2683
aI01
aa(lp2684
V2017-12-02 09:10
p2685
aV193.5
p2686
aV0.86
p2687
aV0.86
p2688
aI01
aa(lp2689
V2017-12-02 09:10
p2690
aV192.5
p2691
aV0.86
p2692
aV0.86
p2693
aI01
aa(lp2694
V2017-12-02 08:54
p2695
aV193
p2696
aV0.90
p2697
aV0.90
p2698
aI00
aa(lp2699
V2017-12-02 06:38
p2700
aV192.5
p2701
aV0.90
p2702
aV0.90
p2703
aI00
aa(lp2704
V2017-12-02 06:24
p2705
aV193
p2706
aV0.90
p2707
aV0.90
p2708
aI00
aa(lp2709
V2017-12-02 04:38
p2710
aV192.5
p2711
aV0.90
p2712
aV0.90
p2713
aI00
aa(lp2714
V2017-12-02 01:54
p2715
aV192
p2716
aV0.90
p2717
aV0.90
p2718
aI00
aa(lp2719
V2017-12-02 01:33
p2720
aV191.5
p2721
aV0.90
p2722
aV0.90
p2723
aI00
aa(lp2724
V2017-12-02 00:14
p2725
aV192
p2726
aV0.90
p2727
aV0.90
p2728
aI00
aa(lp2729
V2017-12-01 23:24
p2730
aV193
p2731
aV0.90
p2732
aV0.90
p2733
aI00
aa(lp2734
V2017-12-01 23:22
p2735
aV193.5
p2736
aV0.90
p2737
aV0.90
p2738
aI00
aa(lp2739
V2017-12-01 23:14
p2740
aV194
p2741
aV0.90
p2742
aV0.90
p2743
aI00
aa(lp2744
V2017-12-01 23:12
p2745
aV193.5
p2746
aV0.90
p2747
aV0.90
p2748
aI00
aa(lp2749
V2017-12-01 15:01
p2750
aV193
p2751
aV0.90
p2752
aV0.90
p2753
aI00
aa(lp2754
V2017-12-01 10:02
p2755
aV193.5
p2756
aV0.90
p2757
aV0.90
p2758
aI00
aassb.