ccopy_reg
_reconstructor
p0
(cmy_oddsportal.items
WinOverUnderItem
p1
c__builtin__
object
p2
Ntp3
Rp4
(dp5
S'_values'
p6
(dp7
S'ysb8'
p8
(lp9
(lp10
V2017-11-26 08:59
p11
aV213.5
p12
aV0.95
p13
aV0.95
p14
aI00
aa(lp15
V2017-11-26 08:51
p16
aV214
p17
aV0.95
p18
aV0.95
p19
aI00
aa(lp20
V2017-11-26 08:46
p21
aV213.5
p22
aV0.95
p23
aV0.95
p24
aI00
aa(lp25
V2017-11-26 07:47
p26
aV213
p27
aV0.95
p28
aV0.95
p29
aI00
aa(lp30
V2017-11-26 07:47
p31
aV212.5
p32
aV0.95
p33
aV0.95
p34
aI00
aa(lp35
V2017-11-25 23:42
p36
aV216.5
p37
aV0.95
p38
aV0.95
p39
aI00
aa(lp40
V2017-11-25 23:39
p41
aV217
p42
aV0.95
p43
aV0.95
p44
aI00
aa(lp45
V2017-11-25 23:39
p46
aV217.5
p47
aV1.00
p48
aV0.91
p49
aI00
aa(lp50
V2017-11-25 23:35
p51
aV217.5
p52
aV0.95
p53
aV0.95
p54
aI00
aa(lp55
V2017-11-25 23:14
p56
aV218
p57
aV0.95
p58
aV0.95
p59
aI00
aa(lp60
V2017-11-25 13:53
p61
aV218.5
p62
aV0.95
p63
aV0.95
p64
aI00
aasS'macau'
p65
(lp66
(lp67
V2017-11-26 09:01
p68
aV214.5
p69
aV1.00
p70
aV0.66
p71
aI00
aa(lp72
V2017-11-26 09:01
p73
aV214.5
p74
aV0.820
p75
aV0.84
p76
aI00
aa(lp77
V2017-11-26 09:00
p78
aV213.5
p79
aV0.820
p80
aV0.84
p81
aI00
aa(lp82
V2017-11-26 08:25
p83
aV213.5
p84
aV0.86
p85
aV0.84
p86
aI00
aa(lp87
V2017-11-26 08:04
p88
aV213.5
p89
aV0.88
p90
aV0.820
p91
aI00
aa(lp92
V2017-11-26 00:55
p93
aV216.5
p94
aV0.88
p95
aV0.820
p96
aI00
aa(lp97
V2017-11-26 00:50
p98
aV216.5
p99
aV0.85
p100
aV0.85
p101
aI00
aasS'title'
p102
V\u000a                \u4faf\u65af\u9813\u706b\u7bad\u000a                vs\u000a                \u7d10\u7d04\u4eba\u000a            
p103
sS'crown'
p104
(lp105
(lp106
V2017-11-26 11:01
p107
aV218.5
p108
aV0.85
p109
aV0.81
p110
aI01
aa(lp111
V2017-11-26 11:01
p112
aV219.5
p113
aV0.93
p114
aV0.73
p115
aI01
aa(lp116
V2017-11-26 11:01
p117
aV219.5
p118
aV0.83
p119
aV0.83
p120
aI01
aa(lp121
V2017-11-26 11:01
p122
aV219.5
p123
aV0.78
p124
aV0.88
p125
aI01
aa(lp126
V2017-11-26 10:58
p127
aV220.5
p128
aV0.86
p129
aV0.80
p130
aI01
aa(lp131
V2017-11-26 10:58
p132
aV218.5
p133
aV0.77
p134
aV0.89
p135
aI01
aa(lp136
V2017-11-26 10:57
p137
aV219.5
p138
aV0.78
p139
aV0.88
p140
aI01
aa(lp141
V2017-11-26 10:57
p142
aV220.5
p143
aV0.87
p144
aV0.79
p145
aI01
aa(lp146
V2017-11-26 10:57
p147
aV221.5
p148
aV0.81
p149
aV0.85
p150
aI01
aa(lp151
V2017-11-26 10:57
p152
aV220.5
p153
aV0.81
p154
aV0.85
p155
aI01
aa(lp156
V2017-11-26 10:56
p157
aV221.5
p158
aV0.83
p159
aV0.83
p160
aI01
aa(lp161
V2017-11-26 10:56
p162
aV220.5
p163
aV0.87
p164
aV0.79
p165
aI01
aa(lp166
V2017-11-26 10:55
p167
aV222.5
p168
aV0.87
p169
aV0.79
p170
aI01
aa(lp171
V2017-11-26 10:55
p172
aV220.5
p173
aV0.84
p174
aV0.82
p175
aI01
aa(lp176
V2017-11-26 10:55
p177
aV220.5
p178
aV0.78
p179
aV0.88
p180
aI01
aa(lp181
V2017-11-26 10:54
p182
aV222.5
p183
aV0.82
p184
aV0.84
p185
aI01
aa(lp186
V2017-11-26 10:54
p187
aV223.5
p188
aV0.91
p189
aV0.75
p190
aI01
aa(lp191
V2017-11-26 10:54
p192
aV223.5
p193
aV0.87
p194
aV0.79
p195
aI01
aa(lp196
V2017-11-26 10:54
p197
aV224.5
p198
aV0.87
p199
aV0.79
p200
aI01
aa(lp201
V2017-11-26 10:54
p202
aV223.5
p203
aV0.85
p204
aV0.81
p205
aI01
aa(lp206
V2017-11-26 10:54
p207
aV224.5
p208
aV0.83
p209
aV0.83
p210
aI01
aa(lp211
V2017-11-26 10:53
p212
aV223.5
p213
aV0.91
p214
aV0.75
p215
aI01
aa(lp216
V2017-11-26 10:53
p217
aV222.5
p218
aV0.87
p219
aV0.79
p220
aI01
aa(lp221
V2017-11-26 10:53
p222
aV221.5
p223
aV0.85
p224
aV0.81
p225
aI01
aa(lp226
V2017-11-26 10:52
p227
aV220.5
p228
aV0.80
p229
aV0.86
p230
aI01
aa(lp231
V2017-11-26 10:52
p232
aV218.5
p233
aV0.83
p234
aV0.83
p235
aI01
aa(lp236
V2017-11-26 10:52
p237
aV219.5
p238
aV0.83
p239
aV0.83
p240
aI01
aa(lp241
V2017-11-26 10:51
p242
aV219.5
p243
aV0.85
p244
aV0.81
p245
aI01
aa(lp246
V2017-11-26 10:51
p247
aV220.5
p248
aV0.79
p249
aV0.87
p250
aI01
aa(lp251
V2017-11-26 10:51
p252
aV221.5
p253
aV0.91
p254
aV0.75
p255
aI01
aa(lp256
V2017-11-26 10:51
p257
aV221.5
p258
aV0.86
p259
aV0.80
p260
aI01
aa(lp261
V2017-11-26 10:51
p262
aV221.5
p263
aV0.83
p264
aV0.83
p265
aI01
aa(lp266
V2017-11-26 10:51
p267
aV221.5
p268
aV0.86
p269
aV0.80
p270
aI01
aa(lp271
V2017-11-26 10:50
p272
aV221.5
p273
aV0.82
p274
aV0.84
p275
aI01
aa(lp276
V2017-11-26 10:49
p277
aV221.5
p278
aV0.83
p279
aV0.83
p280
aI01
aa(lp281
V2017-11-26 10:47
p282
aV221.5
p283
aV0.93
p284
aV0.73
p285
aI01
aa(lp286
V2017-11-26 10:47
p287
aV219.5
p288
aV0.84
p289
aV0.82
p290
aI01
aa(lp291
V2017-11-26 10:46
p292
aV219.5
p293
aV0.87
p294
aV0.79
p295
aI01
aa(lp296
V2017-11-26 10:46
p297
aV219.5
p298
aV0.80
p299
aV0.86
p300
aI01
aa(lp301
V2017-11-26 10:46
p302
aV220.5
p303
aV0.83
p304
aV0.83
p305
aI01
aa(lp306
V2017-11-26 10:46
p307
aV218.5
p308
aV0.83
p309
aV0.83
p310
aI01
aa(lp311
V2017-11-26 10:45
p312
aV219.5
p313
aV0.87
p314
aV0.79
p315
aI01
aa(lp316
V2017-11-26 10:45
p317
aV217.5
p318
aV0.82
p319
aV0.84
p320
aI01
aa(lp321
V2017-11-26 10:45
p322
aV218.5
p323
aV0.80
p324
aV0.86
p325
aI01
aa(lp326
V2017-11-26 10:45
p327
aV219.5
p328
aV0.83
p329
aV0.83
p330
aI01
aa(lp331
V2017-11-26 10:45
p332
aV220.5
p333
aV0.86
p334
aV0.80
p335
aI01
aa(lp336
V2017-11-26 10:45
p337
aV220.5
p338
aV0.83
p339
aV0.83
p340
aI01
aa(lp341
V2017-11-26 10:44
p342
aV221.5
p343
aV0.81
p344
aV0.85
p345
aI01
aa(lp346
V2017-11-26 10:44
p347
aV221.5
p348
aV0.83
p349
aV0.83
p350
aI01
aa(lp351
V2017-11-26 10:44
p352
aV221.5
p353
aV0.84
p354
aV0.82
p355
aI01
aa(lp356
V2017-11-26 10:44
p357
aV220.5
p358
aV0.82
p359
aV0.84
p360
aI01
aa(lp361
V2017-11-26 10:43
p362
aV219.5
p363
aV0.82
p364
aV0.84
p365
aI01
aa(lp366
V2017-11-26 10:43
p367
aV220.5
p368
aV0.83
p369
aV0.83
p370
aI01
aa(lp371
V2017-11-26 10:43
p372
aV219.5
p373
aV0.81
p374
aV0.85
p375
aI01
aa(lp376
V2017-11-26 10:42
p377
aV219.5
p378
aV0.80
p379
aV0.86
p380
aI01
aa(lp381
V2017-11-26 10:42
p382
aV221.5
p383
aV0.84
p384
aV0.82
p385
aI01
aa(lp386
V2017-11-26 10:42
p387
aV222.5
p388
aV0.83
p389
aV0.83
p390
aI01
aa(lp391
V2017-11-26 10:41
p392
aV221.5
p393
aV0.87
p394
aV0.79
p395
aI01
aa(lp396
V2017-11-26 10:41
p397
aV223.5
p398
aV0.86
p399
aV0.80
p400
aI01
aa(lp401
V2017-11-26 10:41
p402
aV222.5
p403
aV0.82
p404
aV0.84
p405
aI01
aa(lp406
V2017-11-26 10:40
p407
aV222.5
p408
aV0.85
p409
aV0.81
p410
aI01
aa(lp411
V2017-11-26 10:40
p412
aV221.5
p413
aV0.87
p414
aV0.79
p415
aI01
aa(lp416
V2017-11-26 10:40
p417
aV222.5
p418
aV0.84
p419
aV0.82
p420
aI01
aa(lp421
V2017-11-26 10:40
p422
aV221.5
p423
aV0.82
p424
aV0.84
p425
aI01
aa(lp426
V2017-11-26 10:37
p427
aV221.5
p428
aV0.83
p429
aV0.83
p430
aI01
aa(lp431
V2017-11-26 10:37
p432
aV220.5
p433
aV0.85
p434
aV0.81
p435
aI01
aa(lp436
V2017-11-26 10:37
p437
aV222.5
p438
aV0.84
p439
aV0.82
p440
aI01
aa(lp441
V2017-11-26 10:37
p442
aV220.5
p443
aV0.82
p444
aV0.84
p445
aI01
aa(lp446
V2017-11-26 10:37
p447
aV221.5
p448
aV0.85
p449
aV0.81
p450
aI01
aa(lp451
V2017-11-26 10:36
p452
aV221.5
p453
aV0.82
p454
aV0.84
p455
aI01
aa(lp456
V2017-11-26 10:36
p457
aV222.5
p458
aV0.85
p459
aV0.81
p460
aI01
aa(lp461
V2017-11-26 10:35
p462
aV223.5
p463
aV0.85
p464
aV0.81
p465
aI01
aa(lp466
V2017-11-26 10:35
p467
aV222.5
p468
aV0.83
p469
aV0.83
p470
aI01
aa(lp471
V2017-11-26 10:35
p472
aV221.5
p473
aV0.89
p474
aV0.77
p475
aI01
aa(lp476
V2017-11-26 10:35
p477
aV223.5
p478
aV0.87
p479
aV0.79
p480
aI01
aa(lp481
V2017-11-26 10:34
p482
aV223.5
p483
aV0.83
p484
aV0.83
p485
aI01
aa(lp486
V2017-11-26 10:34
p487
aV223.5
p488
aV0.82
p489
aV0.84
p490
aI01
aa(lp491
V2017-11-26 10:34
p492
aV223.5
p493
aV0.87
p494
aV0.79
p495
aI01
aa(lp496
V2017-11-26 10:34
p497
aV222.5
p498
aV0.85
p499
aV0.81
p500
aI01
aa(lp501
V2017-11-26 10:33
p502
aV223.5
p503
aV0.87
p504
aV0.79
p505
aI01
aa(lp506
V2017-11-26 10:33
p507
aV222.5
p508
aV0.82
p509
aV0.84
p510
aI01
aa(lp511
V2017-11-26 10:33
p512
aV224.5
p513
aV0.85
p514
aV0.81
p515
aI01
aa(lp516
V2017-11-26 10:32
p517
aV222.5
p518
aV0.89
p519
aV0.77
p520
aI01
aa(lp521
V2017-11-26 10:28
p522
aV221.5
p523
aV0.87
p524
aV0.79
p525
aI01
aa(lp526
V2017-11-26 10:28
p527
aV221.5
p528
aV0.84
p529
aV0.82
p530
aI01
aa(lp531
V2017-11-26 10:28
p532
aV218.5
p533
aV0.85
p534
aV0.81
p535
aI01
aa(lp536
V2017-11-26 10:27
p537
aV220.5
p538
aV0.85
p539
aV0.81
p540
aI01
aa(lp541
V2017-11-26 10:27
p542
aV219.5
p543
aV0.84
p544
aV0.82
p545
aI01
aa(lp546
V2017-11-26 10:27
p547
aV220.5
p548
aV0.89
p549
aV0.77
p550
aI01
aa(lp551
V2017-11-26 10:27
p552
aV220.5
p553
aV0.82
p554
aV0.84
p555
aI01
aa(lp556
V2017-11-26 10:27
p557
aV221.5
p558
aV0.87
p559
aV0.79
p560
aI01
aa(lp561
V2017-11-26 10:24
p562
aV222.5
p563
aV0.84
p564
aV0.82
p565
aI01
aa(lp566
V2017-11-26 10:23
p567
aV223.5
p568
aV0.83
p569
aV0.83
p570
aI01
aa(lp571
V2017-11-26 10:23
p572
aV223.5
p573
aV0.81
p574
aV0.85
p575
aI01
aa(lp576
V2017-11-26 10:23
p577
aV221.5
p578
aV0.87
p579
aV0.79
p580
aI01
aa(lp581
V2017-11-26 10:22
p582
aV220.5
p583
aV0.85
p584
aV0.81
p585
aI01
aa(lp586
V2017-11-26 10:22
p587
aV220.5
p588
aV0.67
p589
aV0.99
p590
aI01
aa(lp591
V2017-11-26 10:22
p592
aV220.5
p593
aV0.87
p594
aV0.79
p595
aI01
aa(lp596
V2017-11-26 10:22
p597
aV221.5
p598
aV0.83
p599
aV0.83
p600
aI01
aa(lp601
V2017-11-26 10:18
p602
aV223.5
p603
aV0.83
p604
aV0.83
p605
aI01
aa(lp606
V2017-11-26 10:16
p607
aV223.5
p608
aV0.88
p609
aV0.78
p610
aI01
aa(lp611
V2017-11-26 10:15
p612
aV223.5
p613
aV0.83
p614
aV0.83
p615
aI01
aa(lp616
V2017-11-26 10:09
p617
aV223.5
p618
aV0.78
p619
aV0.88
p620
aI01
aa(lp621
V2017-11-26 10:09
p622
aV222.5
p623
aV0.68
p624
aV0.98
p625
aI01
aa(lp626
V2017-11-26 10:00
p627
aV222.5
p628
aV0.81
p629
aV0.85
p630
aI01
aa(lp631
V2017-11-26 09:59
p632
aV222.5
p633
aV0.87
p634
aV0.79
p635
aI01
aa(lp636
V2017-11-26 09:59
p637
aV222.5
p638
aV0.81
p639
aV0.85
p640
aI01
aa(lp641
V2017-11-26 09:59
p642
aV222.5
p643
aV0.83
p644
aV0.83
p645
aI01
aa(lp646
V2017-11-26 09:59
p647
aV221.5
p648
aV0.81
p649
aV0.85
p650
aI01
aa(lp651
V2017-11-26 09:58
p652
aV222.5
p653
aV0.81
p654
aV0.85
p655
aI01
aa(lp656
V2017-11-26 09:58
p657
aV222.5
p658
aV0.83
p659
aV0.83
p660
aI01
aa(lp661
V2017-11-26 09:56
p662
aV224.5
p663
aV0.70
p664
aV0.96
p665
aI01
aa(lp666
V2017-11-26 09:56
p667
aV225.5
p668
aV0.83
p669
aV0.83
p670
aI01
aa(lp671
V2017-11-26 09:56
p672
aV225.5
p673
aV0.81
p674
aV0.85
p675
aI01
aa(lp676
V2017-11-26 09:56
p677
aV225.5
p678
aV0.83
p679
aV0.83
p680
aI01
aa(lp681
V2017-11-26 09:56
p682
aV224.5
p683
aV0.83
p684
aV0.83
p685
aI01
aa(lp686
V2017-11-26 09:55
p687
aV224.5
p688
aV0.87
p689
aV0.79
p690
aI01
aa(lp691
V2017-11-26 09:55
p692
aV224.5
p693
aV0.81
p694
aV0.85
p695
aI01
aa(lp696
V2017-11-26 09:55
p697
aV225.5
p698
aV0.81
p699
aV0.85
p700
aI01
aa(lp701
V2017-11-26 09:55
p702
aV226.5
p703
aV0.87
p704
aV0.79
p705
aI01
aa(lp706
V2017-11-26 09:55
p707
aV223.5
p708
aV0.87
p709
aV0.79
p710
aI01
aa(lp711
V2017-11-26 09:54
p712
aV224.5
p713
aV0.85
p714
aV0.81
p715
aI01
aa(lp716
V2017-11-26 09:54
p717
aV224.5
p718
aV0.81
p719
aV0.85
p720
aI01
aa(lp721
V2017-11-26 09:54
p722
aV224.5
p723
aV0.83
p724
aV0.83
p725
aI01
aa(lp726
V2017-11-26 09:54
p727
aV225.5
p728
aV0.87
p729
aV0.79
p730
aI01
aa(lp731
V2017-11-26 09:53
p732
aV226.5
p733
aV0.87
p734
aV0.79
p735
aI01
aa(lp736
V2017-11-26 09:53
p737
aV226.5
p738
aV0.82
p739
aV0.84
p740
aI01
aa(lp741
V2017-11-26 09:53
p742
aV226.5
p743
aV0.87
p744
aV0.79
p745
aI01
aa(lp746
V2017-11-26 09:53
p747
aV225.5
p748
aV0.87
p749
aV0.79
p750
aI01
aa(lp751
V2017-11-26 09:52
p752
aV225.5
p753
aV0.81
p754
aV0.85
p755
aI01
aa(lp756
V2017-11-26 09:52
p757
aV225.5
p758
aV0.83
p759
aV0.83
p760
aI01
aa(lp761
V2017-11-26 09:52
p762
aV224.5
p763
aV0.83
p764
aV0.83
p765
aI01
aa(lp766
V2017-11-26 09:52
p767
aV223.5
p768
aV0.87
p769
aV0.79
p770
aI01
aa(lp771
V2017-11-26 09:51
p772
aV224.5
p773
aV0.83
p774
aV0.83
p775
aI01
aa(lp776
V2017-11-26 09:51
p777
aV224.5
p778
aV0.85
p779
aV0.81
p780
aI01
aa(lp781
V2017-11-26 09:51
p782
aV225.5
p783
aV0.81
p784
aV0.85
p785
aI01
aa(lp786
V2017-11-26 09:51
p787
aV225.5
p788
aV0.83
p789
aV0.83
p790
aI01
aa(lp791
V2017-11-26 09:51
p792
aV226.5
p793
aV0.91
p794
aV0.75
p795
aI01
aa(lp796
V2017-11-26 09:48
p797
aV229.5
p798
aV0.83
p799
aV0.83
p800
aI01
aa(lp801
V2017-11-26 09:47
p802
aV229.5
p803
aV0.81
p804
aV0.85
p805
aI01
aa(lp806
V2017-11-26 09:47
p807
aV228.5
p808
aV0.83
p809
aV0.83
p810
aI01
aa(lp811
V2017-11-26 09:47
p812
aV228.5
p813
aV0.85
p814
aV0.81
p815
aI01
aa(lp816
V2017-11-26 09:47
p817
aV229.5
p818
aV0.87
p819
aV0.79
p820
aI01
aa(lp821
V2017-11-26 09:44
p822
aV229.5
p823
aV0.81
p824
aV0.85
p825
aI01
aa(lp826
V2017-11-26 09:44
p827
aV227.5
p828
aV0.83
p829
aV0.83
p830
aI01
aa(lp831
V2017-11-26 09:43
p832
aV227.5
p833
aV0.81
p834
aV0.85
p835
aI01
aa(lp836
V2017-11-26 09:42
p837
aV221.5
p838
aV0.533
p839
aV1.127
p840
aI01
aa(lp841
V2017-11-26 09:42
p842
aV231.5
p843
aV1.16
p844
aV0.50
p845
aI01
aa(lp846
V2017-11-26 09:42
p847
aV221.5
p848
aV0.50
p849
aV1.16
p850
aI01
aa(lp851
V2017-11-26 09:41
p852
aV237.5
p853
aV1.374
p854
aV0.286
p855
aI01
aa(lp856
V2017-11-26 09:41
p857
aV222.5
p858
aV0.50
p859
aV1.16
p860
aI01
aa(lp861
V2017-11-26 09:41
p862
aV221.5
p863
aV0.50
p864
aV1.16
p865
aI01
aa(lp866
V2017-11-26 09:41
p867
aV230.5
p868
aV1.127
p869
aV0.533
p870
aI01
aa(lp871
V2017-11-26 09:40
p872
aV226.5
p873
aV0.85
p874
aV0.81
p875
aI01
aa(lp876
V2017-11-26 09:40
p877
aV227.5
p878
aV0.85
p879
aV0.81
p880
aI01
aa(lp881
V2017-11-26 09:39
p882
aV227.5
p883
aV0.925
p884
aV0.735
p885
aI01
aa(lp886
V2017-11-26 09:37
p887
aV231.5
p888
aV1.127
p889
aV0.533
p890
aI01
aa(lp891
V2017-11-26 09:32
p892
aV217.5
p893
aV0.87
p894
aV0.79
p895
aI01
aa(lp896
V2017-11-26 09:32
p897
aV216.5
p898
aV0.85
p899
aV0.81
p900
aI01
aa(lp901
V2017-11-26 09:32
p902
aV217.5
p903
aV0.81
p904
aV0.85
p905
aI01
aa(lp906
V2017-11-26 09:31
p907
aV218.5
p908
aV0.85
p909
aV0.81
p910
aI01
aa(lp911
V2017-11-26 09:31
p912
aV218.5
p913
aV0.79
p914
aV0.87
p915
aI01
aa(lp916
V2017-11-26 09:31
p917
aV218.5
p918
aV0.81
p919
aV0.85
p920
aI01
aa(lp921
V2017-11-26 09:30
p922
aV217.5
p923
aV0.85
p924
aV0.81
p925
aI01
aa(lp926
V2017-11-26 09:30
p927
aV215.5
p928
aV0.87
p929
aV0.79
p930
aI01
aa(lp931
V2017-11-26 09:30
p932
aV215.5
p933
aV0.77
p934
aV0.89
p935
aI01
aa(lp936
V2017-11-26 09:30
p937
aV216.5
p938
aV0.89
p939
aV0.77
p940
aI01
aa(lp941
V2017-11-26 09:30
p942
aV217.5
p943
aV0.83
p944
aV0.83
p945
aI01
aa(lp946
V2017-11-26 09:27
p947
aV217.5
p948
aV0.85
p949
aV0.81
p950
aI01
aa(lp951
V2017-11-26 09:27
p952
aV217.5
p953
aV0.83
p954
aV0.83
p955
aI01
aa(lp956
V2017-11-26 09:25
p957
aV215.5
p958
aV0.70
p959
aV0.96
p960
aI01
aa(lp961
V2017-11-26 09:24
p962
aV216.5
p963
aV0.81
p964
aV0.85
p965
aI01
aa(lp966
V2017-11-26 09:24
p967
aV215.5
p968
aV0.83
p969
aV0.83
p970
aI01
aa(lp971
V2017-11-26 09:24
p972
aV215.5
p973
aV0.87
p974
aV0.79
p975
aI01
aa(lp976
V2017-11-26 09:24
p977
aV214.5
p978
aV0.83
p979
aV0.83
p980
aI01
aa(lp981
V2017-11-26 09:23
p982
aV216.5
p983
aV0.83
p984
aV0.83
p985
aI01
aa(lp986
V2017-11-26 09:22
p987
aV214.5
p988
aV0.83
p989
aV0.83
p990
aI01
aa(lp991
V2017-11-26 09:18
p992
aV212.5
p993
aV0.85
p994
aV0.81
p995
aI01
aa(lp996
V2017-11-26 09:18
p997
aV210.5
p998
aV0.75
p999
aV0.91
p1000
aI01
aa(lp1001
V2017-11-26 09:17
p1002
aV212.5
p1003
aV0.85
p1004
aV0.81
p1005
aI01
aa(lp1006
V2017-11-26 09:17
p1007
aV212.5
p1008
aV0.81
p1009
aV0.85
p1010
aI01
aa(lp1011
V2017-11-26 09:16
p1012
aV211.5
p1013
aV0.87
p1014
aV0.79
p1015
aI01
aa(lp1016
V2017-11-26 09:16
p1017
aV211.5
p1018
aV0.81
p1019
aV0.85
p1020
aI01
aa(lp1021
V2017-11-26 09:16
p1022
aV212.5
p1023
aV0.83
p1024
aV0.83
p1025
aI01
aa(lp1026
V2017-11-26 09:15
p1027
aV212.5
p1028
aV0.81
p1029
aV0.85
p1030
aI01
aa(lp1031
V2017-11-26 09:15
p1032
aV211.5
p1033
aV0.75
p1034
aV0.91
p1035
aI01
aa(lp1036
V2017-11-26 09:15
p1037
aV210.5
p1038
aV0.83
p1039
aV0.83
p1040
aI01
aa(lp1041
V2017-11-26 09:14
p1042
aV211.5
p1043
aV0.87
p1044
aV0.79
p1045
aI01
aa(lp1046
V2017-11-26 09:14
p1047
aV210.5
p1048
aV0.85
p1049
aV0.81
p1050
aI01
aa(lp1051
V2017-11-26 09:14
p1052
aV211.5
p1053
aV0.77
p1054
aV0.89
p1055
aI01
aa(lp1056
V2017-11-26 09:14
p1057
aV212.5
p1058
aV0.87
p1059
aV0.79
p1060
aI01
aa(lp1061
V2017-11-26 09:13
p1062
aV212.5
p1063
aV0.83
p1064
aV0.83
p1065
aI01
aa(lp1066
V2017-11-26 09:12
p1067
aV213.5
p1068
aV0.87
p1069
aV0.79
p1070
aI01
aa(lp1071
V2017-11-26 09:12
p1072
aV211.5
p1073
aV0.83
p1074
aV0.83
p1075
aI01
aa(lp1076
V2017-11-26 09:12
p1077
aV212.5
p1078
aV0.83
p1079
aV0.83
p1080
aI01
aa(lp1081
V2017-11-26 09:12
p1082
aV211.5
p1083
aV0.85
p1084
aV0.81
p1085
aI01
aa(lp1086
V2017-11-26 09:11
p1087
aV212.5
p1088
aV0.83
p1089
aV0.83
p1090
aI01
aa(lp1091
V2017-11-26 09:11
p1092
aV211.5
p1093
aV0.87
p1094
aV0.79
p1095
aI01
aa(lp1096
V2017-11-26 09:00
p1097
aV213.5
p1098
aV0.83
p1099
aV0.83
p1100
aI00
aa(lp1101
V2017-11-26 08:50
p1102
aV213.5
p1103
aV0.88
p1104
aV0.96
p1105
aI00
aa(lp1106
V2017-11-26 08:09
p1107
aV213.5
p1108
aV0.94
p1109
aV0.90
p1110
aI00
aa(lp1111
V2017-11-26 07:57
p1112
aV213.5
p1113
aV0.93
p1114
aV0.91
p1115
aI00
aa(lp1116
V2017-11-26 06:58
p1117
aV216.5
p1118
aV0.92
p1119
aV0.92
p1120
aI00
aa(lp1121
V2017-11-26 06:17
p1122
aV216.5
p1123
aV0.86
p1124
aV0.98
p1125
aI00
aa(lp1126
V2017-11-26 02:50
p1127
aV216.5
p1128
aV0.84
p1129
aV1.00
p1130
aI00
aa(lp1131
V2017-11-25 23:52
p1132
aV216.5
p1133
aV0.94
p1134
aV0.90
p1135
aI00
aasS'sbo'
p1136
(lp1137
(lp1138
V2017-11-26 11:01
p1139
aV220.5
p1140
aV1.11
p1141
aV0.60
p1142
aI01
aa(lp1143
V2017-11-26 10:58
p1144
aV219.5
p1145
aV0.70
p1146
aV1.00
p1147
aI01
aa(lp1148
V2017-11-26 10:58
p1149
aV220.5
p1150
aV1.11
p1151
aV0.60
p1152
aI01
aa(lp1153
V2017-11-26 10:57
p1154
aV220.5
p1155
aV1.05
p1156
aV0.65
p1157
aI01
aa(lp1158
V2017-11-26 10:57
p1159
aV220.5
p1160
aV1.00
p1161
aV0.70
p1162
aI01
aa(lp1163
V2017-11-26 10:57
p1164
aV220.5
p1165
aV0.75
p1166
aV0.95
p1167
aI01
aa(lp1168
V2017-11-26 10:56
p1169
aV220.5
p1170
aV0.85
p1171
aV0.85
p1172
aI01
aa(lp1173
V2017-11-26 10:56
p1174
aV220.5
p1175
aV0.90
p1176
aV0.80
p1177
aI01
aa(lp1178
V2017-11-26 10:55
p1179
aV220.5
p1180
aV0.75
p1181
aV0.95
p1182
aI01
aa(lp1183
V2017-11-26 10:54
p1184
aV220.5
p1185
aV0.65
p1186
aV1.05
p1187
aI01
aa(lp1188
V2017-11-26 10:54
p1189
aV220.5
p1190
aV0.55
p1191
aV1.17
p1192
aI01
aa(lp1193
V2017-11-26 10:54
p1194
aV220.5
p1195
aV0.70
p1196
aV1.00
p1197
aI01
aa(lp1198
V2017-11-26 10:54
p1199
aV220.5
p1200
aV0.60
p1201
aV1.11
p1202
aI01
aa(lp1203
V2017-11-26 10:53
p1204
aV219.5
p1205
aV0.50
p1206
aV1.25
p1207
aI01
aa(lp1208
V2017-11-26 10:53
p1209
aV219.5
p1210
aV0.60
p1211
aV1.11
p1212
aI01
aa(lp1213
V2017-11-26 10:52
p1214
aV219.5
p1215
aV0.70
p1216
aV1.00
p1217
aI01
aa(lp1218
V2017-11-26 10:52
p1219
aV219.5
p1220
aV0.95
p1221
aV0.75
p1222
aI01
aa(lp1223
V2017-11-26 10:52
p1224
aV220.5
p1225
aV1.11
p1226
aV0.60
p1227
aI01
aa(lp1228
V2017-11-26 10:51
p1229
aV220.5
p1230
aV1.00
p1231
aV0.70
p1232
aI01
aa(lp1233
V2017-11-26 10:50
p1234
aV220.5
p1235
aV0.90
p1236
aV0.80
p1237
aI01
aa(lp1238
V2017-11-26 10:50
p1239
aV220.5
p1240
aV0.85
p1241
aV0.85
p1242
aI01
aa(lp1243
V2017-11-26 10:50
p1244
aV220.5
p1245
aV0.70
p1246
aV1.00
p1247
aI01
aa(lp1248
V2017-11-26 10:49
p1249
aV221.5
p1250
aV1.11
p1251
aV0.60
p1252
aI01
aa(lp1253
V2017-11-26 10:48
p1254
aV221.5
p1255
aV1.05
p1256
aV0.65
p1257
aI01
aa(lp1258
V2017-11-26 10:47
p1259
aV221.5
p1260
aV1.00
p1261
aV0.70
p1262
aI01
aa(lp1263
V2017-11-26 10:47
p1264
aV220.5
p1265
aV0.95
p1266
aV0.75
p1267
aI01
aa(lp1268
V2017-11-26 10:47
p1269
aV220.5
p1270
aV1.33
p1271
aV0.45
p1272
aI01
aa(lp1273
V2017-11-26 10:45
p1274
aV220.5
p1275
aV1.11
p1276
aV0.60
p1277
aI01
aa(lp1278
V2017-11-26 10:45
p1279
aV220.5
p1280
aV0.95
p1281
aV0.75
p1282
aI01
aa(lp1283
V2017-11-26 10:45
p1284
aV222.5
p1285
aV1.17
p1286
aV0.55
p1287
aI01
aa(lp1288
V2017-11-26 10:44
p1289
aV222.5
p1290
aV1.05
p1291
aV0.65
p1292
aI01
aa(lp1293
V2017-11-26 10:44
p1294
aV222.5
p1295
aV0.90
p1296
aV0.80
p1297
aI01
aa(lp1298
V2017-11-26 10:44
p1299
aV222.5
p1300
aV0.95
p1301
aV0.75
p1302
aI01
aa(lp1303
V2017-11-26 10:43
p1304
aV222.5
p1305
aV1.25
p1306
aV0.50
p1307
aI01
aa(lp1308
V2017-11-26 10:43
p1309
aV222.5
p1310
aV1.05
p1311
aV0.65
p1312
aI01
aa(lp1313
V2017-11-26 10:42
p1314
aV222.5
p1315
aV1.11
p1316
aV0.60
p1317
aI01
aa(lp1318
V2017-11-26 10:42
p1319
aV222.5
p1320
aV0.95
p1321
aV0.75
p1322
aI01
aa(lp1323
V2017-11-26 10:41
p1324
aV222.5
p1325
aV0.85
p1326
aV0.85
p1327
aI01
aa(lp1328
V2017-11-26 10:41
p1329
aV222.5
p1330
aV0.70
p1331
aV1.00
p1332
aI01
aa(lp1333
V2017-11-26 10:38
p1334
aV222.5
p1335
aV1.05
p1336
aV0.65
p1337
aI01
aa(lp1338
V2017-11-26 10:37
p1339
aV222.5
p1340
aV1.17
p1341
aV0.55
p1342
aI01
aa(lp1343
V2017-11-26 10:37
p1344
aV222.5
p1345
aV1.25
p1346
aV0.50
p1347
aI01
aa(lp1348
V2017-11-26 10:37
p1349
aV222.5
p1350
aV1.00
p1351
aV0.70
p1352
aI01
aa(lp1353
V2017-11-26 10:36
p1354
aV222.5
p1355
aV0.90
p1356
aV0.80
p1357
aI01
aa(lp1358
V2017-11-26 10:35
p1359
aV222.5
p1360
aV0.80
p1361
aV0.90
p1362
aI01
aa(lp1363
V2017-11-26 10:34
p1364
aV222.5
p1365
aV0.70
p1366
aV1.00
p1367
aI01
aa(lp1368
V2017-11-26 10:33
p1369
aV222.5
p1370
aV0.75
p1371
aV0.95
p1372
aI01
aa(lp1373
V2017-11-26 10:33
p1374
aV222.5
p1375
aV0.60
p1376
aV1.11
p1377
aI01
aa(lp1378
V2017-11-26 10:33
p1379
aV222.5
p1380
aV0.70
p1381
aV1.00
p1382
aI01
aa(lp1383
V2017-11-26 10:32
p1384
aV222.5
p1385
aV0.75
p1386
aV0.95
p1387
aI01
aa(lp1388
V2017-11-26 10:32
p1389
aV222.5
p1390
aV0.70
p1391
aV1.00
p1392
aI01
aa(lp1393
V2017-11-26 10:31
p1394
aV222.5
p1395
aV0.75
p1396
aV0.95
p1397
aI01
aa(lp1398
V2017-11-26 10:28
p1399
aV222.5
p1400
aV0.90
p1401
aV0.80
p1402
aI01
aa(lp1403
V2017-11-26 10:28
p1404
aV222.5
p1405
aV0.80
p1406
aV0.90
p1407
aI01
aa(lp1408
V2017-11-26 10:28
p1409
aV224.5
p1410
aV1.05
p1411
aV0.65
p1412
aI01
aa(lp1413
V2017-11-26 10:27
p1414
aV224.5
p1415
aV1.11
p1416
aV0.60
p1417
aI01
aa(lp1418
V2017-11-26 10:27
p1419
aV223.5
p1420
aV1.00
p1421
aV0.70
p1422
aI01
aa(lp1423
V2017-11-26 10:26
p1424
aV223.5
p1425
aV0.85
p1426
aV0.85
p1427
aI01
aa(lp1428
V2017-11-26 10:24
p1429
aV223.5
p1430
aV0.95
p1431
aV0.75
p1432
aI01
aa(lp1433
V2017-11-26 10:24
p1434
aV224.5
p1435
aV1.11
p1436
aV0.60
p1437
aI01
aa(lp1438
V2017-11-26 10:23
p1439
aV224.5
p1440
aV1.00
p1441
aV0.70
p1442
aI01
aa(lp1443
V2017-11-26 10:23
p1444
aV223.5
p1445
aV1.05
p1446
aV0.65
p1447
aI01
aa(lp1448
V2017-11-26 10:22
p1449
aV223.5
p1450
aV1.25
p1451
aV0.50
p1452
aI01
aa(lp1453
V2017-11-26 10:22
p1454
aV223.5
p1455
aV1.05
p1456
aV0.65
p1457
aI01
aa(lp1458
V2017-11-26 10:21
p1459
aV223.5
p1460
aV0.95
p1461
aV0.75
p1462
aI01
aa(lp1463
V2017-11-26 10:21
p1464
aV223.5
p1465
aV0.65
p1466
aV1.05
p1467
aI01
aa(lp1468
V2017-11-26 10:15
p1469
aV223.5
p1470
aV0.85
p1471
aV1.01
p1472
aI01
aa(lp1473
V2017-11-26 10:11
p1474
aV223.5
p1475
aV0.86
p1476
aV1.00
p1477
aI01
aa(lp1478
V2017-11-26 10:07
p1479
aV223.5
p1480
aV0.88
p1481
aV0.98
p1482
aI01
aa(lp1483
V2017-11-26 10:03
p1484
aV222.5
p1485
aV0.90
p1486
aV0.80
p1487
aI01
aa(lp1488
V2017-11-26 10:03
p1489
aV222.5
p1490
aV1.05
p1491
aV0.65
p1492
aI01
aa(lp1493
V2017-11-26 10:01
p1494
aV221.5
p1495
aV0.95
p1496
aV0.75
p1497
aI01
aa(lp1498
V2017-11-26 10:01
p1499
aV221.5
p1500
aV1.00
p1501
aV0.70
p1502
aI01
aa(lp1503
V2017-11-26 10:00
p1504
aV221.5
p1505
aV0.85
p1506
aV0.85
p1507
aI01
aa(lp1508
V2017-11-26 09:59
p1509
aV225.5
p1510
aV1.25
p1511
aV0.50
p1512
aI01
aa(lp1513
V2017-11-26 09:58
p1514
aV225.5
p1515
aV1.17
p1516
aV0.55
p1517
aI01
aa(lp1518
V2017-11-26 09:57
p1519
aV225.5
p1520
aV1.25
p1521
aV0.50
p1522
aI01
aa(lp1523
V2017-11-26 09:57
p1524
aV225.5
p1525
aV1.05
p1526
aV0.65
p1527
aI01
aa(lp1528
V2017-11-26 09:56
p1529
aV225.5
p1530
aV0.95
p1531
aV0.75
p1532
aI01
aa(lp1533
V2017-11-26 09:55
p1534
aV225.5
p1535
aV0.80
p1536
aV0.90
p1537
aI01
aa(lp1538
V2017-11-26 09:55
p1539
aV225.5
p1540
aV0.85
p1541
aV0.85
p1542
aI01
aa(lp1543
V2017-11-26 09:54
p1544
aV225.5
p1545
aV0.95
p1546
aV0.75
p1547
aI01
aa(lp1548
V2017-11-26 09:54
p1549
aV227.5
p1550
aV1.05
p1551
aV0.65
p1552
aI01
aa(lp1553
V2017-11-26 09:53
p1554
aV227.5
p1555
aV0.90
p1556
aV0.80
p1557
aI01
aa(lp1558
V2017-11-26 09:52
p1559
aV227.5
p1560
aV1.05
p1561
aV0.65
p1562
aI01
aa(lp1563
V2017-11-26 09:51
p1564
aV229.5
p1565
aV1.25
p1566
aV0.50
p1567
aI01
aa(lp1568
V2017-11-26 09:51
p1569
aV229.5
p1570
aV1.17
p1571
aV0.55
p1572
aI01
aa(lp1573
V2017-11-26 09:50
p1574
aV229.5
p1575
aV1.11
p1576
aV0.60
p1577
aI01
aa(lp1578
V2017-11-26 09:50
p1579
aV229.5
p1580
aV0.95
p1581
aV0.75
p1582
aI01
aa(lp1583
V2017-11-26 09:48
p1584
aV230.5
p1585
aV1.11
p1586
aV0.60
p1587
aI01
aa(lp1588
V2017-11-26 09:47
p1589
aV229.5
p1590
aV0.65
p1591
aV1.05
p1592
aI01
aa(lp1593
V2017-11-26 09:46
p1594
aV229.5
p1595
aV0.70
p1596
aV1.00
p1597
aI01
aa(lp1598
V2017-11-26 09:45
p1599
aV229.5
p1600
aV0.75
p1601
aV0.95
p1602
aI01
aa(lp1603
V2017-11-26 09:44
p1604
aV227.5
p1605
aV0.55
p1606
aV1.17
p1607
aI01
aa(lp1608
V2017-11-26 09:44
p1609
aV227.5
p1610
aV0.65
p1611
aV1.05
p1612
aI01
aa(lp1613
V2017-11-26 09:44
p1614
aV227.5
p1615
aV0.90
p1616
aV0.80
p1617
aI01
aa(lp1618
V2017-11-26 09:43
p1619
aV227.5
p1620
aV1.05
p1621
aV0.65
p1622
aI01
aa(lp1623
V2017-11-26 09:42
p1624
aV227.5
p1625
aV1.00
p1626
aV0.70
p1627
aI01
aa(lp1628
V2017-11-26 09:42
p1629
aV227.5
p1630
aV0.90
p1631
aV0.80
p1632
aI01
aa(lp1633
V2017-11-26 09:41
p1634
aV227.5
p1635
aV0.85
p1636
aV0.85
p1637
aI01
aa(lp1638
V2017-11-26 09:41
p1639
aV227.5
p1640
aV0.90
p1641
aV0.80
p1642
aI01
aa(lp1643
V2017-11-26 09:40
p1644
aV227.5
p1645
aV0.85
p1646
aV0.85
p1647
aI01
aa(lp1648
V2017-11-26 09:39
p1649
aV226.5
p1650
aV0.70
p1651
aV1.00
p1652
aI01
aa(lp1653
V2017-11-26 09:38
p1654
aV226.5
p1655
aV0.80
p1656
aV0.90
p1657
aI01
aa(lp1658
V2017-11-26 09:36
p1659
aV226.5
p1660
aV0.85
p1661
aV0.85
p1662
aI01
aa(lp1663
V2017-11-26 09:36
p1664
aV226.5
p1665
aV0.80
p1666
aV0.90
p1667
aI01
aa(lp1668
V2017-11-26 09:35
p1669
aV222.5
p1670
aV0.80
p1671
aV0.90
p1672
aI01
aa(lp1673
V2017-11-26 09:35
p1674
aV222.5
p1675
aV0.85
p1676
aV0.85
p1677
aI01
aa(lp1678
V2017-11-26 09:34
p1679
aV220.5
p1680
aV0.85
p1681
aV0.85
p1682
aI01
aa(lp1683
V2017-11-26 09:34
p1684
aV218.5
p1685
aV0.85
p1686
aV0.85
p1687
aI01
aa(lp1688
V2017-11-26 09:33
p1689
aV218.5
p1690
aV0.90
p1691
aV0.80
p1692
aI01
aa(lp1693
V2017-11-26 09:32
p1694
aV216.5
p1695
aV0.75
p1696
aV0.95
p1697
aI01
aa(lp1698
V2017-11-26 09:31
p1699
aV216.5
p1700
aV0.70
p1701
aV1.00
p1702
aI01
aa(lp1703
V2017-11-26 09:30
p1704
aV216.5
p1705
aV0.75
p1706
aV0.95
p1707
aI01
aa(lp1708
V2017-11-26 09:27
p1709
aV215.5
p1710
aV0.70
p1711
aV1.00
p1712
aI01
aa(lp1713
V2017-11-26 09:26
p1714
aV215.5
p1715
aV0.85
p1716
aV0.85
p1717
aI01
aa(lp1718
V2017-11-26 09:26
p1719
aV215.5
p1720
aV0.75
p1721
aV0.95
p1722
aI01
aa(lp1723
V2017-11-26 09:25
p1724
aV215.5
p1725
aV0.65
p1726
aV1.05
p1727
aI01
aa(lp1728
V2017-11-26 09:24
p1729
aV215.5
p1730
aV0.70
p1731
aV1.00
p1732
aI01
aa(lp1733
V2017-11-26 09:24
p1734
aV215.5
p1735
aV0.75
p1736
aV0.95
p1737
aI01
aa(lp1738
V2017-11-26 09:22
p1739
aV213.5
p1740
aV0.60
p1741
aV1.11
p1742
aI01
aa(lp1743
V2017-11-26 09:21
p1744
aV212.5
p1745
aV0.65
p1746
aV1.05
p1747
aI01
aa(lp1748
V2017-11-26 09:20
p1749
aV213.5
p1750
aV0.80
p1751
aV0.90
p1752
aI01
aa(lp1753
V2017-11-26 09:20
p1754
aV213.5
p1755
aV0.85
p1756
aV0.85
p1757
aI01
aa(lp1758
V2017-11-26 09:18
p1759
aV213.5
p1760
aV0.90
p1761
aV0.80
p1762
aI01
aa(lp1763
V2017-11-26 09:18
p1764
aV212.5
p1765
aV0.80
p1766
aV0.90
p1767
aI01
aa(lp1768
V2017-11-26 09:16
p1769
aV212.5
p1770
aV0.70
p1771
aV1.00
p1772
aI01
aa(lp1773
V2017-11-26 09:16
p1774
aV213.5
p1775
aV0.85
p1776
aV0.85
p1777
aI01
aa(lp1778
V2017-11-26 09:15
p1779
aV213.5
p1780
aV0.95
p1781
aV0.75
p1782
aI01
aa(lp1783
V2017-11-26 09:14
p1784
aV213.5
p1785
aV1.00
p1786
aV0.70
p1787
aI01
aa(lp1788
V2017-11-26 09:14
p1789
aV213.5
p1790
aV0.80
p1791
aV0.90
p1792
aI01
aa(lp1793
V2017-11-26 09:13
p1794
aV213.5
p1795
aV0.95
p1796
aV0.75
p1797
aI01
aa(lp1798
V2017-11-26 09:13
p1799
aV213.5
p1800
aV0.90
p1801
aV0.80
p1802
aI01
aa(lp1803
V2017-11-26 09:12
p1804
aV213.5
p1805
aV0.80
p1806
aV0.90
p1807
aI01
aa(lp1808
V2017-11-26 09:12
p1809
aV213.5
p1810
aV0.95
p1811
aV0.75
p1812
aI01
aa(lp1813
V2017-11-26 09:12
p1814
aV213.5
p1815
aV0.90
p1816
aV0.80
p1817
aI01
aa(lp1818
V2017-11-26 09:11
p1819
aV213.5
p1820
aV0.80
p1821
aV0.90
p1822
aI00
aa(lp1823
V2017-11-26 09:02
p1824
aV213.5
p1825
aV0.65
p1826
aV1.05
p1827
aI00
aa(lp1828
V2017-11-26 09:00
p1829
aV213.5
p1830
aV0.75
p1831
aV0.95
p1832
aI00
aa(lp1833
V2017-11-26 08:48
p1834
aV214
p1835
aV0.97
p1836
aV0.91
p1837
aI00
aa(lp1838
V2017-11-26 08:10
p1839
aV214
p1840
aV1.00
p1841
aV0.88
p1842
aI00
aa(lp1843
V2017-11-26 07:55
p1844
aV214
p1845
aV0.98
p1846
aV0.90
p1847
aI00
aa(lp1848
V2017-11-26 06:08
p1849
aV215.5
p1850
aV0.82
p1851
aV1.06
p1852
aI00
aa(lp1853
V2017-11-26 02:43
p1854
aV215.5
p1855
aV0.80
p1856
aV1.08
p1857
aI00
aa(lp1858
V2017-11-26 00:27
p1859
aV215.5
p1860
aV0.88
p1861
aV1.00
p1862
aI00
aa(lp1863
V2017-11-25 23:54
p1864
aV215.5
p1865
aV0.83
p1866
aV1.05
p1867
aI00
aa(lp1868
V2017-11-25 23:41
p1869
aV215.5
p1870
aV0.89
p1871
aV0.99
p1872
aI00
aasS'wade'
p1873
(lp1874
(lp1875
V2017-11-26 08:48
p1876
aV214
p1877
aV0.90
p1878
aV0.90
p1879
aI00
aa(lp1880
V2017-11-26 07:53
p1881
aV213.5
p1882
aV0.90
p1883
aV0.90
p1884
aI00
aa(lp1885
V2017-11-26 07:35
p1886
aV217
p1887
aV0.90
p1888
aV0.90
p1889
aI00
aa(lp1890
V2017-11-26 06:05
p1891
aV216.5
p1892
aV0.90
p1893
aV0.90
p1894
aI00
aa(lp1895
V2017-11-26 02:47
p1896
aV217
p1897
aV0.90
p1898
aV0.90
p1899
aI00
aa(lp1900
V2017-11-26 02:40
p1901
aV216.5
p1902
aV0.90
p1903
aV0.90
p1904
aI00
aa(lp1905
V2017-11-26 00:36
p1906
aV216
p1907
aV0.90
p1908
aV0.90
p1909
aI00
aa(lp1910
V2017-11-25 23:38
p1911
aV216.5
p1912
aV0.90
p1913
aV0.90
p1914
aI00
aa(lp1915
V2017-11-25 23:35
p1916
aV217
p1917
aV0.90
p1918
aV0.90
p1919
aI00
aa(lp1920
V2017-11-25 23:30
p1921
aV218
p1922
aV0.90
p1923
aV0.90
p1924
aI00
aa(lp1925
V2017-11-25 23:20
p1926
aV218.5
p1927
aV0.90
p1928
aV0.90
p1929
aI00
aa(lp1930
V2017-11-25 15:51
p1931
aV219.5
p1932
aV0.90
p1933
aV0.90
p1934
aI00
aa(lp1935
V2017-11-25 04:50
p1936
aV218.5
p1937
aV0.90
p1938
aV0.90
p1939
aI00
aa(lp1940
V2017-11-25 04:17
p1941
aV219
p1942
aV0.90
p1943
aV0.90
p1944
aI00
aasS'game_id'
p1945
V290129
p1946
sS'bet365'
p1947
(lp1948
(lp1949
V2017-11-26 11:02
p1950
aV217.5
p1951
aV0.76
p1952
aV1.00
p1953
aI01
aa(lp1954
V2017-11-26 11:01
p1955
aV216.5
p1956
aV0.76
p1957
aV1.00
p1958
aI01
aa(lp1959
V2017-11-26 11:01
p1960
aV218.5
p1961
aV0.95
p1962
aV0.80
p1963
aI01
aa(lp1964
V2017-11-26 10:59
p1965
aV219.5
p1966
aV0.80
p1967
aV0.95
p1968
aI01
aa(lp1969
V2017-11-26 10:55
p1970
aV221.5
p1971
aV0.86
p1972
aV0.86
p1973
aI01
aa(lp1974
V2017-11-26 10:55
p1975
aV219.5
p1976
aV0.86
p1977
aV0.86
p1978
aI01
aa(lp1979
V2017-11-26 10:54
p1980
aV221.5
p1981
aV0.90
p1982
aV0.83
p1983
aI01
aa(lp1984
V2017-11-26 10:54
p1985
aV222.5
p1986
aV0.95
p1987
aV0.80
p1988
aI01
aa(lp1989
V2017-11-26 10:54
p1990
aV222.5
p1991
aV0.83
p1992
aV0.90
p1993
aI01
aa(lp1994
V2017-11-26 10:53
p1995
aV222.5
p1996
aV0.95
p1997
aV0.80
p1998
aI01
aa(lp1999
V2017-11-26 10:53
p2000
aV221.5
p2001
aV0.90
p2002
aV0.83
p2003
aI01
aa(lp2004
V2017-11-26 10:52
p2005
aV221.5
p2006
aV0.95
p2007
aV0.80
p2008
aI01
aa(lp2009
V2017-11-26 10:52
p2010
aV219.5
p2011
aV0.80
p2012
aV0.95
p2013
aI01
aa(lp2014
V2017-11-26 10:52
p2015
aV218.5
p2016
aV0.86
p2017
aV0.86
p2018
aI01
aa(lp2019
V2017-11-26 10:51
p2020
aV219.5
p2021
aV0.90
p2022
aV0.83
p2023
aI01
aa(lp2024
V2017-11-26 10:51
p2025
aV220.5
p2026
aV0.86
p2027
aV0.86
p2028
aI01
aa(lp2029
V2017-11-26 10:51
p2030
aV221.5
p2031
aV0.90
p2032
aV0.83
p2033
aI01
aa(lp2034
V2017-11-26 10:50
p2035
aV220.5
p2036
aV0.80
p2037
aV0.95
p2038
aI01
aa(lp2039
V2017-11-26 10:47
p2040
aV221.5
p2041
aV0.86
p2042
aV0.86
p2043
aI01
aa(lp2044
V2017-11-26 10:47
p2045
aV219.5
p2046
aV0.80
p2047
aV0.95
p2048
aI01
aa(lp2049
V2017-11-26 10:46
p2050
aV220.5
p2051
aV0.86
p2052
aV0.86
p2053
aI01
aa(lp2054
V2017-11-26 10:46
p2055
aV221.5
p2056
aV0.90
p2057
aV0.83
p2058
aI01
aa(lp2059
V2017-11-26 10:46
p2060
aV219.5
p2061
aV0.86
p2062
aV0.86
p2063
aI01
aa(lp2064
V2017-11-26 10:45
p2065
aV219.5
p2066
aV0.90
p2067
aV0.83
p2068
aI01
aa(lp2069
V2017-11-26 10:45
p2070
aV220.5
p2071
aV0.90
p2072
aV0.83
p2073
aI01
aa(lp2074
V2017-11-26 10:44
p2075
aV221.5
p2076
aV0.83
p2077
aV0.90
p2078
aI01
aa(lp2079
V2017-11-26 10:43
p2080
aV221.5
p2081
aV0.86
p2082
aV0.86
p2083
aI01
aa(lp2084
V2017-11-26 10:43
p2085
aV221.5
p2086
aV0.95
p2087
aV0.80
p2088
aI01
aa(lp2089
V2017-11-26 10:42
p2090
aV219.5
p2091
aV0.83
p2092
aV0.90
p2093
aI01
aa(lp2094
V2017-11-26 10:42
p2095
aV221.5
p2096
aV0.86
p2097
aV0.86
p2098
aI01
aa(lp2099
V2017-11-26 10:42
p2100
aV222.5
p2101
aV0.83
p2102
aV0.90
p2103
aI01
aa(lp2104
V2017-11-26 10:41
p2105
aV221.5
p2106
aV0.86
p2107
aV0.86
p2108
aI01
aa(lp2109
V2017-11-26 10:41
p2110
aV223.5
p2111
aV0.86
p2112
aV0.86
p2113
aI01
aa(lp2114
V2017-11-26 10:40
p2115
aV223.5
p2116
aV0.90
p2117
aV0.83
p2118
aI01
aa(lp2119
V2017-11-26 10:40
p2120
aV221.5
p2121
aV0.90
p2122
aV0.83
p2123
aI01
aa(lp2124
V2017-11-26 10:40
p2125
aV221.5
p2126
aV0.86
p2127
aV0.86
p2128
aI01
aa(lp2129
V2017-11-26 10:38
p2130
aV222.5
p2131
aV0.90
p2132
aV0.83
p2133
aI01
aa(lp2134
V2017-11-26 10:37
p2135
aV221.5
p2136
aV0.86
p2137
aV0.86
p2138
aI01
aa(lp2139
V2017-11-26 10:36
p2140
aV220.5
p2141
aV0.80
p2142
aV0.95
p2143
aI01
aa(lp2144
V2017-11-26 10:36
p2145
aV222.5
p2146
aV0.95
p2147
aV0.80
p2148
aI01
aa(lp2149
V2017-11-26 10:36
p2150
aV222.5
p2151
aV0.86
p2152
aV0.86
p2153
aI01
aa(lp2154
V2017-11-26 10:35
p2155
aV223.5
p2156
aV0.86
p2157
aV0.86
p2158
aI01
aa(lp2159
V2017-11-26 10:35
p2160
aV222.5
p2161
aV0.83
p2162
aV0.90
p2163
aI01
aa(lp2164
V2017-11-26 10:35
p2165
aV222.5
p2166
aV0.90
p2167
aV0.83
p2168
aI01
aa(lp2169
V2017-11-26 10:34
p2170
aV223.5
p2171
aV0.86
p2172
aV0.86
p2173
aI01
aa(lp2174
V2017-11-26 10:34
p2175
aV223.5
p2176
aV0.90
p2177
aV0.83
p2178
aI01
aa(lp2179
V2017-11-26 10:33
p2180
aV222.5
p2181
aV0.86
p2182
aV0.86
p2183
aI01
aa(lp2184
V2017-11-26 10:33
p2185
aV224.5
p2186
aV0.90
p2187
aV0.83
p2188
aI01
aa(lp2189
V2017-11-26 10:32
p2190
aV222.5
p2191
aV0.86
p2192
aV0.86
p2193
aI01
aa(lp2194
V2017-11-26 10:32
p2195
aV221.5
p2196
aV0.86
p2197
aV0.86
p2198
aI01
aa(lp2199
V2017-11-26 10:32
p2200
aV222.5
p2201
aV0.90
p2202
aV0.83
p2203
aI01
aa(lp2204
V2017-11-26 10:28
p2205
aV220.5
p2206
aV0.83
p2207
aV0.90
p2208
aI01
aa(lp2209
V2017-11-26 10:28
p2210
aV218.5
p2211
aV0.86
p2212
aV0.86
p2213
aI01
aa(lp2214
V2017-11-26 10:27
p2215
aV220.5
p2216
aV0.90
p2217
aV0.83
p2218
aI01
aa(lp2219
V2017-11-26 10:27
p2220
aV220.5
p2221
aV0.83
p2222
aV0.90
p2223
aI01
aa(lp2224
V2017-11-26 10:24
p2225
aV221.5
p2226
aV0.86
p2227
aV0.86
p2228
aI01
aa(lp2229
V2017-11-26 10:23
p2230
aV223.5
p2231
aV0.86
p2232
aV0.86
p2233
aI01
aa(lp2234
V2017-11-26 10:23
p2235
aV222.5
p2236
aV0.83
p2237
aV0.90
p2238
aI01
aa(lp2239
V2017-11-26 10:22
p2240
aV221.5
p2241
aV0.90
p2242
aV0.83
p2243
aI01
aa(lp2244
V2017-11-26 10:22
p2245
aV220.5
p2246
aV0.83
p2247
aV0.90
p2248
aI01
aa(lp2249
V2017-11-26 10:21
p2250
aV221.5
p2251
aV0.90
p2252
aV0.83
p2253
aI01
aa(lp2254
V2017-11-26 10:21
p2255
aV222.5
p2256
aV0.90
p2257
aV0.83
p2258
aI01
aa(lp2259
V2017-11-26 10:09
p2260
aV223.5
p2261
aV0.83
p2262
aV0.90
p2263
aI01
aa(lp2264
V2017-11-26 10:09
p2265
aV224.5
p2266
aV0.86
p2267
aV0.86
p2268
aI01
aa(lp2269
V2017-11-26 10:07
p2270
aV224.5
p2271
aV0.83
p2272
aV0.90
p2273
aI01
aa(lp2274
V2017-11-26 10:05
p2275
aV223.5
p2276
aV0.83
p2277
aV0.90
p2278
aI01
aa(lp2279
V2017-11-26 10:05
p2280
aV224.5
p2281
aV0.83
p2282
aV0.90
p2283
aI01
aa(lp2284
V2017-11-26 10:04
p2285
aV226.5
p2286
aV0.83
p2287
aV0.90
p2288
aI01
aa(lp2289
V2017-11-26 10:04
p2290
aV226.5
p2291
aV0.86
p2292
aV0.86
p2293
aI01
aa(lp2294
V2017-11-26 10:03
p2295
aV224.5
p2296
aV0.86
p2297
aV0.86
p2298
aI01
aa(lp2299
V2017-11-26 10:03
p2300
aV223.5
p2301
aV0.86
p2302
aV0.86
p2303
aI01
aa(lp2304
V2017-11-26 09:59
p2305
aV221.5
p2306
aV0.86
p2307
aV0.86
p2308
aI01
aa(lp2309
V2017-11-26 09:59
p2310
aV222.5
p2311
aV0.83
p2312
aV0.90
p2313
aI01
aa(lp2314
V2017-11-26 09:59
p2315
aV222.5
p2316
aV0.86
p2317
aV0.86
p2318
aI01
aa(lp2319
V2017-11-26 09:58
p2320
aV221.5
p2321
aV0.90
p2322
aV0.83
p2323
aI01
aa(lp2324
V2017-11-26 09:58
p2325
aV221.5
p2326
aV0.86
p2327
aV0.86
p2328
aI01
aa(lp2329
V2017-11-26 09:58
p2330
aV222.5
p2331
aV0.83
p2332
aV0.90
p2333
aI01
aa(lp2334
V2017-11-26 09:58
p2335
aV222.5
p2336
aV0.86
p2337
aV0.86
p2338
aI01
aa(lp2339
V2017-11-26 09:57
p2340
aV223.5
p2341
aV0.86
p2342
aV0.86
p2343
aI01
aa(lp2344
V2017-11-26 09:57
p2345
aV221.5
p2346
aV0.83
p2347
aV0.90
p2348
aI01
aa(lp2349
V2017-11-26 09:57
p2350
aV222.5
p2351
aV0.86
p2352
aV0.86
p2353
aI01
aa(lp2354
V2017-11-26 09:57
p2355
aV225.5
p2356
aV0.90
p2357
aV0.83
p2358
aI01
aa(lp2359
V2017-11-26 09:56
p2360
aV226.5
p2361
aV0.90
p2362
aV0.83
p2363
aI01
aa(lp2364
V2017-11-26 09:56
p2365
aV225.5
p2366
aV0.86
p2367
aV0.86
p2368
aI01
aa(lp2369
V2017-11-26 09:54
p2370
aV224.5
p2371
aV0.90
p2372
aV0.83
p2373
aI01
aa(lp2374
V2017-11-26 09:54
p2375
aV225.5
p2376
aV0.86
p2377
aV0.86
p2378
aI01
aa(lp2379
V2017-11-26 09:53
p2380
aV227.5
p2381
aV0.86
p2382
aV0.86
p2383
aI01
aa(lp2384
V2017-11-26 09:52
p2385
aV226.5
p2386
aV0.83
p2387
aV0.90
p2388
aI01
aa(lp2389
V2017-11-26 09:52
p2390
aV226.5
p2391
aV0.86
p2392
aV0.86
p2393
aI01
aa(lp2394
V2017-11-26 09:52
p2395
aV224.5
p2396
aV0.83
p2397
aV0.90
p2398
aI01
aa(lp2399
V2017-11-26 09:51
p2400
aV225.5
p2401
aV0.86
p2402
aV0.86
p2403
aI01
aa(lp2404
V2017-11-26 09:51
p2405
aV226.5
p2406
aV0.90
p2407
aV0.83
p2408
aI01
aa(lp2409
V2017-11-26 09:51
p2410
aV225.5
p2411
aV0.83
p2412
aV0.90
p2413
aI01
aa(lp2414
V2017-11-26 09:50
p2415
aV227.5
p2416
aV0.86
p2417
aV0.86
p2418
aI01
aa(lp2419
V2017-11-26 09:50
p2420
aV228.5
p2421
aV0.90
p2422
aV0.83
p2423
aI01
aa(lp2424
V2017-11-26 09:44
p2425
aV229.5
p2426
aV0.86
p2427
aV0.86
p2428
aI01
aa(lp2429
V2017-11-26 09:43
p2430
aV228.5
p2431
aV0.90
p2432
aV0.83
p2433
aI01
aa(lp2434
V2017-11-26 09:43
p2435
aV226.5
p2436
aV0.86
p2437
aV0.86
p2438
aI01
aa(lp2439
V2017-11-26 09:43
p2440
aV226.5
p2441
aV0.83
p2442
aV0.90
p2443
aI01
aa(lp2444
V2017-11-26 09:43
p2445
aV226.5
p2446
aV0.86
p2447
aV0.86
p2448
aI01
aa(lp2449
V2017-11-26 09:42
p2450
aV227.5
p2451
aV0.86
p2452
aV0.86
p2453
aI01
aa(lp2454
V2017-11-26 09:42
p2455
aV226.5
p2456
aV0.86
p2457
aV0.86
p2458
aI01
aa(lp2459
V2017-11-26 09:41
p2460
aV227.5
p2461
aV0.86
p2462
aV0.86
p2463
aI01
aa(lp2464
V2017-11-26 09:40
p2465
aV226.5
p2466
aV0.90
p2467
aV0.83
p2468
aI01
aa(lp2469
V2017-11-26 09:38
p2470
aV227.5
p2471
aV0.86
p2472
aV0.86
p2473
aI01
aa(lp2474
V2017-11-26 09:37
p2475
aV225.5
p2476
aV0.83
p2477
aV0.90
p2478
aI01
aa(lp2479
V2017-11-26 09:37
p2480
aV225.5
p2481
aV0.86
p2482
aV0.86
p2483
aI01
aa(lp2484
V2017-11-26 09:36
p2485
aV224.5
p2486
aV0.83
p2487
aV0.90
p2488
aI01
aa(lp2489
V2017-11-26 09:36
p2490
aV224.5
p2491
aV0.90
p2492
aV0.83
p2493
aI01
aa(lp2494
V2017-11-26 09:34
p2495
aV219.5
p2496
aV0.86
p2497
aV0.86
p2498
aI01
aa(lp2499
V2017-11-26 09:33
p2500
aV217.5
p2501
aV0.86
p2502
aV0.86
p2503
aI01
aa(lp2504
V2017-11-26 09:32
p2505
aV218.5
p2506
aV0.90
p2507
aV0.83
p2508
aI01
aa(lp2509
V2017-11-26 09:32
p2510
aV217.5
p2511
aV0.90
p2512
aV0.83
p2513
aI01
aa(lp2514
V2017-11-26 09:32
p2515
aV217.5
p2516
aV0.86
p2517
aV0.86
p2518
aI01
aa(lp2519
V2017-11-26 09:32
p2520
aV216.5
p2521
aV0.86
p2522
aV0.86
p2523
aI01
aa(lp2524
V2017-11-26 09:31
p2525
aV217.5
p2526
aV0.90
p2527
aV0.83
p2528
aI01
aa(lp2529
V2017-11-26 09:31
p2530
aV218.5
p2531
aV0.86
p2532
aV0.86
p2533
aI01
aa(lp2534
V2017-11-26 09:31
p2535
aV218.5
p2536
aV0.90
p2537
aV0.83
p2538
aI01
aa(lp2539
V2017-11-26 09:31
p2540
aV216.5
p2541
aV0.86
p2542
aV0.86
p2543
aI01
aa(lp2544
V2017-11-26 09:30
p2545
aV217.5
p2546
aV0.86
p2547
aV0.86
p2548
aI01
aa(lp2549
V2017-11-26 09:30
p2550
aV215.5
p2551
aV0.86
p2552
aV0.86
p2553
aI01
aa(lp2554
V2017-11-26 09:27
p2555
aV216.5
p2556
aV0.86
p2557
aV0.86
p2558
aI01
aa(lp2559
V2017-11-26 09:24
p2560
aV216.5
p2561
aV0.90
p2562
aV0.83
p2563
aI01
aa(lp2564
V2017-11-26 09:23
p2565
aV216.5
p2566
aV0.86
p2567
aV0.86
p2568
aI01
aa(lp2569
V2017-11-26 09:23
p2570
aV216.5
p2571
aV0.90
p2572
aV0.83
p2573
aI01
aa(lp2574
V2017-11-26 09:22
p2575
aV212.5
p2576
aV0.83
p2577
aV0.90
p2578
aI01
aa(lp2579
V2017-11-26 09:21
p2580
aV210.5
p2581
aV0.83
p2582
aV0.90
p2583
aI01
aa(lp2584
V2017-11-26 09:18
p2585
aV212.5
p2586
aV0.86
p2587
aV0.86
p2588
aI01
aa(lp2589
V2017-11-26 09:17
p2590
aV213.5
p2591
aV0.90
p2592
aV0.83
p2593
aI01
aa(lp2594
V2017-11-26 09:17
p2595
aV212.5
p2596
aV0.86
p2597
aV0.86
p2598
aI01
aa(lp2599
V2017-11-26 09:16
p2600
aV211.5
p2601
aV0.86
p2602
aV0.86
p2603
aI01
aa(lp2604
V2017-11-26 09:16
p2605
aV212.5
p2606
aV0.86
p2607
aV0.86
p2608
aI01
aa(lp2609
V2017-11-26 09:16
p2610
aV210.5
p2611
aV0.86
p2612
aV0.86
p2613
aI01
aa(lp2614
V2017-11-26 09:15
p2615
aV212.5
p2616
aV0.90
p2617
aV0.83
p2618
aI01
aa(lp2619
V2017-11-26 09:15
p2620
aV210.5
p2621
aV0.86
p2622
aV0.86
p2623
aI01
aa(lp2624
V2017-11-26 09:15
p2625
aV211.5
p2626
aV0.86
p2627
aV0.86
p2628
aI01
aa(lp2629
V2017-11-26 09:15
p2630
aV210.5
p2631
aV0.86
p2632
aV0.86
p2633
aI01
aa(lp2634
V2017-11-26 09:14
p2635
aV211.5
p2636
aV0.86
p2637
aV0.86
p2638
aI01
aa(lp2639
V2017-11-26 09:14
p2640
aV210.5
p2641
aV0.86
p2642
aV0.86
p2643
aI01
aa(lp2644
V2017-11-26 09:14
p2645
aV211.5
p2646
aV0.83
p2647
aV0.90
p2648
aI01
aa(lp2649
V2017-11-26 09:13
p2650
aV211.5
p2651
aV0.86
p2652
aV0.86
p2653
aI01
aa(lp2654
V2017-11-26 09:13
p2655
aV211.5
p2656
aV0.83
p2657
aV0.90
p2658
aI01
aa(lp2659
V2017-11-26 09:12
p2660
aV213.5
p2661
aV0.86
p2662
aV0.86
p2663
aI01
aa(lp2664
V2017-11-26 09:12
p2665
aV210.5
p2666
aV0.86
p2667
aV0.86
p2668
aI01
aa(lp2669
V2017-11-26 09:12
p2670
aV211.5
p2671
aV0.86
p2672
aV0.86
p2673
aI01
aa(lp2674
V2017-11-26 09:11
p2675
aV213.5
p2676
aV0.90
p2677
aV0.83
p2678
aI00
aa(lp2679
V2017-11-26 08:59
p2680
aV213.5
p2681
aV0.90
p2682
aV0.90
p2683
aI00
aa(lp2684
V2017-11-26 08:51
p2685
aV214
p2686
aV0.90
p2687
aV0.90
p2688
aI00
aa(lp2689
V2017-11-26 08:47
p2690
aV213.5
p2691
aV0.90
p2692
aV0.90
p2693
aI00
aa(lp2694
V2017-11-26 07:50
p2695
aV213
p2696
aV0.90
p2697
aV0.90
p2698
aI00
aa(lp2699
V2017-11-26 02:36
p2700
aV216.5
p2701
aV0.90
p2702
aV0.90
p2703
aI00
aa(lp2704
V2017-11-26 00:31
p2705
aV216
p2706
aV0.90
p2707
aV0.90
p2708
aI00
aa(lp2709
V2017-11-26 00:16
p2710
aV216.5
p2711
aV0.90
p2712
aV0.90
p2713
aI00
aa(lp2714
V2017-11-26 00:12
p2715
aV216
p2716
aV0.90
p2717
aV0.90
p2718
aI00
aa(lp2719
V2017-11-25 23:51
p2720
aV216.5
p2721
aV0.90
p2722
aV0.90
p2723
aI00
aa(lp2724
V2017-11-25 23:49
p2725
aV217
p2726
aV0.90
p2727
aV0.90
p2728
aI00
aa(lp2729
V2017-11-25 23:35
p2730
aV216
p2731
aV0.90
p2732
aV0.90
p2733
aI00
aa(lp2734
V2017-11-25 23:33
p2735
aV217
p2736
aV1.00
p2737
aV0.83
p2738
aI00
aa(lp2739
V2017-11-25 23:31
p2740
aV217.5
p2741
aV0.90
p2742
aV0.90
p2743
aI00
aa(lp2744
V2017-11-25 23:14
p2745
aV218
p2746
aV0.90
p2747
aV0.90
p2748
aI00
aassb.