ccopy_reg
_reconstructor
p0
(cmy_oddsportal.items
WinOverUnderItem
p1
c__builtin__
object
p2
Ntp3
Rp4
(dp5
S'_values'
p6
(dp7
S'ysb8'
p8
(lp9
(lp10
V2018-01-09 08:31
p11
aV223
p12
aV0.95
p13
aV0.95
p14
aI00
aa(lp15
V2018-01-09 08:07
p16
aV222.5
p17
aV0.95
p18
aV0.95
p19
aI00
aa(lp20
V2018-01-09 07:51
p21
aV222
p22
aV0.95
p23
aV0.95
p24
aI00
aa(lp25
V2018-01-09 00:24
p26
aV222.5
p27
aV0.95
p28
aV0.95
p29
aI00
aa(lp30
V2018-01-09 00:11
p31
aV222
p32
aV0.95
p33
aV0.95
p34
aI00
aa(lp35
V2018-01-08 22:36
p36
aV221.5
p37
aV0.95
p38
aV0.95
p39
aI00
aa(lp40
V2018-01-08 21:23
p41
aV221
p42
aV0.95
p43
aV0.95
p44
aI00
aa(lp45
V2018-01-08 21:22
p46
aV220.5
p47
aV0.91
p48
aV1.00
p49
aI00
aa(lp50
V2018-01-08 20:04
p51
aV220.5
p52
aV0.95
p53
aV0.95
p54
aI00
aa(lp55
V2018-01-08 15:49
p56
aV220
p57
aV0.95
p58
aV0.95
p59
aI00
aasS'macau'
p60
(lp61
(lp62
V2018-01-09 09:03
p63
aV221.5
p64
aV0.66
p65
aV1.00
p66
aI00
aa(lp67
V2018-01-09 09:01
p68
aV221.5
p69
aV0.74
p70
aV0.92
p71
aI00
aa(lp72
V2018-01-09 08:24
p73
aV221.5
p74
aV0.74
p75
aV0.96
p76
aI00
aa(lp77
V2018-01-09 00:22
p78
aV221.5
p79
aV0.820
p80
aV0.88
p81
aI00
aa(lp82
V2018-01-08 22:58
p83
aV220.5
p84
aV0.80
p85
aV0.90
p86
aI00
aa(lp87
V2018-01-08 11:52
p88
aV220.5
p89
aV0.85
p90
aV0.85
p91
aI00
aasS'title'
p92
V\u000a                \u660e\u5c3c\u8607\u9054\u6728\u72fc\u000a                vs\u000a                \u514b\u91cc\u592b\u862d\u9a0e\u58eb\u000a            
p93
sS'crown'
p94
(lp95
(lp96
V2018-01-09 10:56
p97
aV227.5
p98
aV0.83
p99
aV0.83
p100
aI01
aa(lp101
V2018-01-09 10:48
p102
aV222.5
p103
aV0.83
p104
aV0.83
p105
aI01
aa(lp106
V2018-01-09 10:47
p107
aV220.5
p108
aV0.83
p109
aV0.83
p110
aI01
aa(lp111
V2018-01-09 10:45
p112
aV221.5
p113
aV0.83
p114
aV0.83
p115
aI01
aa(lp116
V2018-01-09 10:44
p117
aV220.5
p118
aV0.83
p119
aV0.83
p120
aI01
aa(lp121
V2018-01-09 10:43
p122
aV219.5
p123
aV0.83
p124
aV0.83
p125
aI01
aa(lp126
V2018-01-09 10:43
p127
aV217.5
p128
aV0.83
p129
aV0.83
p130
aI01
aa(lp131
V2018-01-09 10:42
p132
aV218.5
p133
aV0.83
p134
aV0.83
p135
aI01
aa(lp136
V2018-01-09 10:41
p137
aV219.5
p138
aV0.83
p139
aV0.83
p140
aI01
aa(lp141
V2018-01-09 10:41
p142
aV220.5
p143
aV0.83
p144
aV0.83
p145
aI01
aa(lp146
V2018-01-09 10:40
p147
aV221.5
p148
aV0.83
p149
aV0.83
p150
aI01
aa(lp151
V2018-01-09 10:40
p152
aV220.5
p153
aV0.83
p154
aV0.83
p155
aI01
aa(lp156
V2018-01-09 10:39
p157
aV219.5
p158
aV0.83
p159
aV0.83
p160
aI01
aa(lp161
V2018-01-09 10:39
p162
aV218.5
p163
aV0.83
p164
aV0.83
p165
aI01
aa(lp166
V2018-01-09 10:39
p167
aV217.5
p168
aV0.83
p169
aV0.83
p170
aI01
aa(lp171
V2018-01-09 10:38
p172
aV218.5
p173
aV0.83
p174
aV0.83
p175
aI01
aa(lp176
V2018-01-09 10:38
p177
aV219.5
p178
aV0.83
p179
aV0.83
p180
aI01
aa(lp181
V2018-01-09 10:35
p182
aV220.5
p183
aV0.83
p184
aV0.83
p185
aI01
aa(lp186
V2018-01-09 10:35
p187
aV219.5
p188
aV0.83
p189
aV0.83
p190
aI01
aa(lp191
V2018-01-09 10:34
p192
aV220.5
p193
aV0.83
p194
aV0.83
p195
aI01
aa(lp196
V2018-01-09 10:33
p197
aV218.5
p198
aV0.83
p199
aV0.83
p200
aI01
aa(lp201
V2018-01-09 10:33
p202
aV219.5
p203
aV0.83
p204
aV0.83
p205
aI01
aa(lp206
V2018-01-09 10:33
p207
aV220.5
p208
aV0.83
p209
aV0.83
p210
aI01
aa(lp211
V2018-01-09 10:32
p212
aV219.5
p213
aV0.83
p214
aV0.83
p215
aI01
aa(lp216
V2018-01-09 10:32
p217
aV218.5
p218
aV0.83
p219
aV0.83
p220
aI01
aa(lp221
V2018-01-09 10:32
p222
aV219.5
p223
aV0.83
p224
aV0.83
p225
aI01
aa(lp226
V2018-01-09 10:31
p227
aV220.5
p228
aV0.83
p229
aV0.83
p230
aI01
aa(lp231
V2018-01-09 10:29
p232
aV219.5
p233
aV0.83
p234
aV0.83
p235
aI01
aa(lp236
V2018-01-09 10:28
p237
aV218.5
p238
aV0.83
p239
aV0.83
p240
aI01
aa(lp241
V2018-01-09 10:28
p242
aV219.5
p243
aV0.83
p244
aV0.83
p245
aI01
aa(lp246
V2018-01-09 10:28
p247
aV220.5
p248
aV0.83
p249
aV0.83
p250
aI01
aa(lp251
V2018-01-09 10:27
p252
aV218.5
p253
aV0.83
p254
aV0.83
p255
aI01
aa(lp256
V2018-01-09 10:27
p257
aV217.5
p258
aV0.83
p259
aV0.83
p260
aI01
aa(lp261
V2018-01-09 10:26
p262
aV219.5
p263
aV0.83
p264
aV0.83
p265
aI01
aa(lp266
V2018-01-09 10:26
p267
aV218.5
p268
aV0.83
p269
aV0.83
p270
aI01
aa(lp271
V2018-01-09 10:26
p272
aV217.5
p273
aV0.83
p274
aV0.83
p275
aI01
aa(lp276
V2018-01-09 10:26
p277
aV218.5
p278
aV0.83
p279
aV0.83
p280
aI01
aa(lp281
V2018-01-09 10:25
p282
aV219.5
p283
aV0.83
p284
aV0.83
p285
aI01
aa(lp286
V2018-01-09 10:22
p287
aV218.5
p288
aV0.83
p289
aV0.83
p290
aI01
aa(lp291
V2018-01-09 10:22
p292
aV217.5
p293
aV0.83
p294
aV0.83
p295
aI01
aa(lp296
V2018-01-09 10:22
p297
aV216.5
p298
aV0.83
p299
aV0.83
p300
aI01
aa(lp301
V2018-01-09 10:21
p302
aV217.5
p303
aV0.83
p304
aV0.83
p305
aI01
aa(lp306
V2018-01-09 10:21
p307
aV216.5
p308
aV0.83
p309
aV0.83
p310
aI01
aa(lp311
V2018-01-09 10:21
p312
aV217.5
p313
aV0.83
p314
aV0.83
p315
aI01
aa(lp316
V2018-01-09 10:21
p317
aV218.5
p318
aV0.83
p319
aV0.83
p320
aI01
aa(lp321
V2018-01-09 10:20
p322
aV217.5
p323
aV0.83
p324
aV0.83
p325
aI01
aa(lp326
V2018-01-09 10:20
p327
aV216.5
p328
aV0.83
p329
aV0.83
p330
aI01
aa(lp331
V2018-01-09 10:20
p332
aV217.5
p333
aV0.83
p334
aV0.83
p335
aI01
aa(lp336
V2018-01-09 10:19
p337
aV218.5
p338
aV0.83
p339
aV0.83
p340
aI01
aa(lp341
V2018-01-09 10:19
p342
aV219.5
p343
aV0.83
p344
aV0.83
p345
aI01
aa(lp346
V2018-01-09 10:19
p347
aV222.5
p348
aV0.83
p349
aV0.83
p350
aI01
aa(lp351
V2018-01-09 10:18
p352
aV220.5
p353
aV0.83
p354
aV0.83
p355
aI01
aa(lp356
V2018-01-09 10:10
p357
aV219.5
p358
aV0.83
p359
aV0.83
p360
aI01
aa(lp361
V2018-01-09 10:06
p362
aV218.5
p363
aV0.83
p364
aV0.83
p365
aI01
aa(lp366
V2018-01-09 10:00
p367
aV220.5
p368
aV0.83
p369
aV0.83
p370
aI01
aa(lp371
V2018-01-09 10:00
p372
aV221.5
p373
aV0.83
p374
aV0.83
p375
aI01
aa(lp376
V2018-01-09 10:00
p377
aV222.5
p378
aV0.83
p379
aV0.83
p380
aI01
aa(lp381
V2018-01-09 09:59
p382
aV221.5
p383
aV0.83
p384
aV0.83
p385
aI01
aa(lp386
V2018-01-09 09:59
p387
aV222.5
p388
aV0.83
p389
aV0.83
p390
aI01
aa(lp391
V2018-01-09 09:59
p392
aV221.5
p393
aV0.83
p394
aV0.83
p395
aI01
aa(lp396
V2018-01-09 09:59
p397
aV222.5
p398
aV0.83
p399
aV0.83
p400
aI01
aa(lp401
V2018-01-09 09:59
p402
aV221.5
p403
aV0.83
p404
aV0.83
p405
aI01
aa(lp406
V2018-01-09 09:58
p407
aV222.5
p408
aV0.83
p409
aV0.83
p410
aI01
aa(lp411
V2018-01-09 09:58
p412
aV223.5
p413
aV0.83
p414
aV0.83
p415
aI01
aa(lp416
V2018-01-09 09:58
p417
aV221.5
p418
aV0.83
p419
aV0.83
p420
aI01
aa(lp421
V2018-01-09 09:57
p422
aV222.5
p423
aV0.83
p424
aV0.83
p425
aI01
aa(lp426
V2018-01-09 09:54
p427
aV223.5
p428
aV0.83
p429
aV0.83
p430
aI01
aa(lp431
V2018-01-09 09:53
p432
aV224.5
p433
aV0.83
p434
aV0.83
p435
aI01
aa(lp436
V2018-01-09 09:53
p437
aV223.5
p438
aV0.83
p439
aV0.83
p440
aI01
aa(lp441
V2018-01-09 09:53
p442
aV224.5
p443
aV0.83
p444
aV0.83
p445
aI01
aa(lp446
V2018-01-09 09:53
p447
aV222.5
p448
aV0.83
p449
aV0.83
p450
aI01
aa(lp451
V2018-01-09 09:52
p452
aV221.5
p453
aV0.83
p454
aV0.83
p455
aI01
aa(lp456
V2018-01-09 09:52
p457
aV219.5
p458
aV0.83
p459
aV0.83
p460
aI01
aa(lp461
V2018-01-09 09:51
p462
aV220.5
p463
aV0.83
p464
aV0.83
p465
aI01
aa(lp466
V2018-01-09 09:51
p467
aV222.5
p468
aV0.83
p469
aV0.83
p470
aI01
aa(lp471
V2018-01-09 09:51
p472
aV223.5
p473
aV0.83
p474
aV0.83
p475
aI01
aa(lp476
V2018-01-09 09:50
p477
aV222.5
p478
aV0.83
p479
aV0.83
p480
aI01
aa(lp481
V2018-01-09 09:49
p482
aV221.5
p483
aV0.83
p484
aV0.83
p485
aI01
aa(lp486
V2018-01-09 09:49
p487
aV220.5
p488
aV0.83
p489
aV0.83
p490
aI01
aa(lp491
V2018-01-09 09:48
p492
aV218.5
p493
aV0.83
p494
aV0.83
p495
aI01
aa(lp496
V2018-01-09 09:48
p497
aV219.5
p498
aV0.83
p499
aV0.83
p500
aI01
aa(lp501
V2018-01-09 09:47
p502
aV218.5
p503
aV0.83
p504
aV0.83
p505
aI01
aa(lp506
V2018-01-09 09:46
p507
aV219.5
p508
aV0.83
p509
aV0.83
p510
aI01
aa(lp511
V2018-01-09 09:46
p512
aV218.5
p513
aV0.83
p514
aV0.83
p515
aI01
aa(lp516
V2018-01-09 09:45
p517
aV219.5
p518
aV0.83
p519
aV0.83
p520
aI01
aa(lp521
V2018-01-09 09:44
p522
aV218.5
p523
aV0.83
p524
aV0.83
p525
aI01
aa(lp526
V2018-01-09 09:42
p527
aV217.5
p528
aV0.83
p529
aV0.83
p530
aI01
aa(lp531
V2018-01-09 09:41
p532
aV215.5
p533
aV0.83
p534
aV0.83
p535
aI01
aa(lp536
V2018-01-09 09:41
p537
aV214.5
p538
aV0.83
p539
aV0.83
p540
aI01
aa(lp541
V2018-01-09 09:41
p542
aV215.5
p543
aV0.83
p544
aV0.83
p545
aI01
aa(lp546
V2018-01-09 09:41
p547
aV213.5
p548
aV0.83
p549
aV0.83
p550
aI01
aa(lp551
V2018-01-09 09:41
p552
aV214.5
p553
aV0.83
p554
aV0.83
p555
aI01
aa(lp556
V2018-01-09 09:40
p557
aV215.5
p558
aV0.83
p559
aV0.83
p560
aI01
aa(lp561
V2018-01-09 09:39
p562
aV216.5
p563
aV0.83
p564
aV0.83
p565
aI01
aa(lp566
V2018-01-09 09:39
p567
aV215.5
p568
aV0.83
p569
aV0.83
p570
aI01
aa(lp571
V2018-01-09 09:38
p572
aV214.5
p573
aV0.83
p574
aV0.83
p575
aI01
aa(lp576
V2018-01-09 09:38
p577
aV215.5
p578
aV0.83
p579
aV0.83
p580
aI01
aa(lp581
V2018-01-09 09:37
p582
aV213.5
p583
aV0.83
p584
aV0.83
p585
aI01
aa(lp586
V2018-01-09 09:37
p587
aV212.5
p588
aV0.83
p589
aV0.83
p590
aI01
aa(lp591
V2018-01-09 09:37
p592
aV213.5
p593
aV0.83
p594
aV0.83
p595
aI01
aa(lp596
V2018-01-09 09:36
p597
aV214.5
p598
aV0.83
p599
aV0.83
p600
aI01
aa(lp601
V2018-01-09 09:33
p602
aV213.5
p603
aV0.83
p604
aV0.83
p605
aI01
aa(lp606
V2018-01-09 09:32
p607
aV214.5
p608
aV0.83
p609
aV0.83
p610
aI01
aa(lp611
V2018-01-09 09:32
p612
aV215.5
p613
aV0.83
p614
aV0.83
p615
aI01
aa(lp616
V2018-01-09 09:32
p617
aV214.5
p618
aV0.83
p619
aV0.83
p620
aI01
aa(lp621
V2018-01-09 09:31
p622
aV213.5
p623
aV0.83
p624
aV0.83
p625
aI01
aa(lp626
V2018-01-09 09:31
p627
aV212.5
p628
aV0.83
p629
aV0.83
p630
aI01
aa(lp631
V2018-01-09 09:29
p632
aV213.5
p633
aV0.83
p634
aV0.83
p635
aI01
aa(lp636
V2018-01-09 09:29
p637
aV212.5
p638
aV0.83
p639
aV0.83
p640
aI01
aa(lp641
V2018-01-09 09:29
p642
aV211.5
p643
aV0.83
p644
aV0.83
p645
aI01
aa(lp646
V2018-01-09 09:27
p647
aV210.5
p648
aV0.83
p649
aV0.83
p650
aI01
aa(lp651
V2018-01-09 09:27
p652
aV211.5
p653
aV0.83
p654
aV0.83
p655
aI01
aa(lp656
V2018-01-09 09:27
p657
aV209.5
p658
aV0.83
p659
aV0.83
p660
aI01
aa(lp661
V2018-01-09 09:26
p662
aV210.5
p663
aV0.83
p664
aV0.83
p665
aI01
aa(lp666
V2018-01-09 09:26
p667
aV211.5
p668
aV0.83
p669
aV0.83
p670
aI01
aa(lp671
V2018-01-09 09:25
p672
aV210.5
p673
aV0.83
p674
aV0.83
p675
aI01
aa(lp676
V2018-01-09 09:23
p677
aV211.5
p678
aV0.83
p679
aV0.83
p680
aI01
aa(lp681
V2018-01-09 09:22
p682
aV212.5
p683
aV0.83
p684
aV0.83
p685
aI01
aa(lp686
V2018-01-09 09:22
p687
aV213.5
p688
aV0.83
p689
aV0.83
p690
aI01
aa(lp691
V2018-01-09 09:21
p692
aV211.5
p693
aV0.83
p694
aV0.83
p695
aI01
aa(lp696
V2018-01-09 09:21
p697
aV212.5
p698
aV0.83
p699
aV0.83
p700
aI01
aa(lp701
V2018-01-09 09:21
p702
aV213.5
p703
aV0.83
p704
aV0.83
p705
aI01
aa(lp706
V2018-01-09 09:21
p707
aV214.5
p708
aV0.83
p709
aV0.83
p710
aI01
aa(lp711
V2018-01-09 09:21
p712
aV213.5
p713
aV0.83
p714
aV0.83
p715
aI01
aa(lp716
V2018-01-09 09:20
p717
aV214.5
p718
aV0.83
p719
aV0.83
p720
aI01
aa(lp721
V2018-01-09 09:20
p722
aV213.5
p723
aV0.83
p724
aV0.83
p725
aI01
aa(lp726
V2018-01-09 09:20
p727
aV214.5
p728
aV0.83
p729
aV0.83
p730
aI01
aa(lp731
V2018-01-09 09:19
p732
aV215.5
p733
aV0.83
p734
aV0.83
p735
aI01
aa(lp736
V2018-01-09 09:17
p737
aV216.5
p738
aV0.83
p739
aV0.83
p740
aI01
aa(lp741
V2018-01-09 09:16
p742
aV217.5
p743
aV0.83
p744
aV0.83
p745
aI01
aa(lp746
V2018-01-09 09:16
p747
aV216.5
p748
aV0.83
p749
aV0.83
p750
aI01
aa(lp751
V2018-01-09 09:15
p752
aV217.5
p753
aV0.83
p754
aV0.83
p755
aI01
aa(lp756
V2018-01-09 09:15
p757
aV218.5
p758
aV0.83
p759
aV0.83
p760
aI01
aa(lp761
V2018-01-09 09:14
p762
aV217.5
p763
aV0.83
p764
aV0.83
p765
aI01
aa(lp766
V2018-01-09 09:14
p767
aV216.5
p768
aV0.83
p769
aV0.83
p770
aI01
aa(lp771
V2018-01-09 09:14
p772
aV217.5
p773
aV0.83
p774
aV0.83
p775
aI01
aa(lp776
V2018-01-09 09:13
p777
aV216.5
p778
aV0.83
p779
aV0.83
p780
aI01
aa(lp781
V2018-01-09 09:13
p782
aV217.5
p783
aV0.83
p784
aV0.83
p785
aI01
aa(lp786
V2018-01-09 09:13
p787
aV218.5
p788
aV0.83
p789
aV0.83
p790
aI01
aa(lp791
V2018-01-09 09:12
p792
aV219.5
p793
aV0.83
p794
aV0.83
p795
aI01
aa(lp796
V2018-01-09 09:12
p797
aV220.5
p798
aV0.83
p799
aV0.83
p800
aI01
aa(lp801
V2018-01-09 09:11
p802
aV221.5
p803
aV0.83
p804
aV0.83
p805
aI01
aa(lp806
V2018-01-09 09:11
p807
aV220.5
p808
aV0.83
p809
aV0.83
p810
aI01
aa(lp811
V2018-01-09 09:11
p812
aV219.5
p813
aV0.83
p814
aV0.83
p815
aI01
aa(lp816
V2018-01-09 09:11
p817
aV220.5
p818
aV0.83
p819
aV0.83
p820
aI01
aa(lp821
V2018-01-09 09:10
p822
aV221.5
p823
aV0.83
p824
aV0.83
p825
aI00
aa(lp826
V2018-01-09 09:00
p827
aV222.5
p828
aV0.83
p829
aV0.83
p830
aI00
aa(lp831
V2018-01-09 08:09
p832
aV221.5
p833
aV0.78
p834
aV1.08
p835
aI00
aa(lp836
V2018-01-09 08:08
p837
aV221.5
p838
aV0.80
p839
aV1.06
p840
aI00
aa(lp841
V2018-01-09 07:52
p842
aV221.5
p843
aV0.83
p844
aV1.03
p845
aI00
aa(lp846
V2018-01-09 07:52
p847
aV221.5
p848
aV0.82
p849
aV1.04
p850
aI00
aa(lp851
V2018-01-09 07:22
p852
aV221.5
p853
aV0.80
p854
aV1.06
p855
aI00
aa(lp856
V2018-01-09 04:22
p857
aV221.5
p858
aV0.77
p859
aV1.09
p860
aI00
aa(lp861
V2018-01-09 04:20
p862
aV221.5
p863
aV0.78
p864
aV1.08
p865
aI00
aa(lp866
V2018-01-09 04:16
p867
aV221.5
p868
aV0.80
p869
aV1.06
p870
aI00
aa(lp871
V2018-01-09 01:00
p872
aV221.5
p873
aV0.78
p874
aV1.06
p875
aI00
aa(lp876
V2018-01-09 01:00
p877
aV222.5
p878
aV0.86
p879
aV0.98
p880
aI00
aa(lp881
V2018-01-09 00:42
p882
aV221.5
p883
aV0.78
p884
aV1.06
p885
aI00
aa(lp886
V2018-01-09 00:20
p887
aV221.5
p888
aV0.80
p889
aV1.04
p890
aI00
aa(lp891
V2018-01-09 00:19
p892
aV221.5
p893
aV0.82
p894
aV1.02
p895
aI00
aa(lp896
V2018-01-09 00:17
p897
aV221.5
p898
aV0.87
p899
aV0.97
p900
aI00
aa(lp901
V2018-01-09 00:12
p902
aV220.5
p903
aV0.80
p904
aV1.04
p905
aI00
aa(lp906
V2018-01-08 21:23
p907
aV220.5
p908
aV0.82
p909
aV1.02
p910
aI00
aa(lp911
V2018-01-08 11:17
p912
aV220.5
p913
aV0.92
p914
aV0.92
p915
aI00
aasS'sbo'
p916
(lp917
(lp918
V2018-01-09 10:59
p919
aV229.5
p920
aV1.11
p921
aV0.60
p922
aI01
aa(lp923
V2018-01-09 10:58
p924
aV229.5
p925
aV0.70
p926
aV1.00
p927
aI01
aa(lp928
V2018-01-09 10:57
p929
aV228.5
p930
aV0.70
p931
aV1.00
p932
aI01
aa(lp933
V2018-01-09 10:55
p934
aV228.5
p935
aV0.80
p936
aV0.90
p937
aI01
aa(lp938
V2018-01-09 10:55
p939
aV229.5
p940
aV1.00
p941
aV0.70
p942
aI01
aa(lp943
V2018-01-09 10:54
p944
aV229.5
p945
aV1.25
p946
aV0.50
p947
aI01
aa(lp948
V2018-01-09 10:53
p949
aV229.5
p950
aV1.00
p951
aV0.70
p952
aI01
aa(lp953
V2018-01-09 10:53
p954
aV229.5
p955
aV0.90
p956
aV0.80
p957
aI01
aa(lp958
V2018-01-09 10:52
p959
aV227.5
p960
aV0.70
p961
aV1.00
p962
aI01
aa(lp963
V2018-01-09 10:52
p964
aV227.5
p965
aV0.80
p966
aV0.90
p967
aI01
aa(lp968
V2018-01-09 10:52
p969
aV225.5
p970
aV0.70
p971
aV1.00
p972
aI01
aa(lp973
V2018-01-09 10:52
p974
aV225.5
p975
aV0.90
p976
aV0.80
p977
aI01
aa(lp978
V2018-01-09 10:50
p979
aV225.5
p980
aV1.00
p981
aV0.70
p982
aI01
aa(lp983
V2018-01-09 10:50
p984
aV225.5
p985
aV0.90
p986
aV0.80
p987
aI01
aa(lp988
V2018-01-09 10:50
p989
aV223.5
p990
aV0.70
p991
aV1.00
p992
aI01
aa(lp993
V2018-01-09 10:50
p994
aV223.5
p995
aV0.80
p996
aV0.90
p997
aI01
aa(lp998
V2018-01-09 10:49
p999
aV223.5
p1000
aV0.90
p1001
aV0.80
p1002
aI01
aa(lp1003
V2018-01-09 10:49
p1004
aV223.5
p1005
aV0.80
p1006
aV0.90
p1007
aI01
aa(lp1008
V2018-01-09 10:49
p1009
aV221.5
p1010
aV0.55
p1011
aV1.17
p1012
aI01
aa(lp1013
V2018-01-09 10:49
p1014
aV221.5
p1015
aV0.70
p1016
aV1.00
p1017
aI01
aa(lp1018
V2018-01-09 10:48
p1019
aV220.5
p1020
aV0.85
p1021
aV0.85
p1022
aI01
aa(lp1023
V2018-01-09 10:45
p1024
aV220.5
p1025
aV0.70
p1026
aV1.00
p1027
aI01
aa(lp1028
V2018-01-09 10:45
p1029
aV220.5
p1030
aV0.65
p1031
aV1.05
p1032
aI01
aa(lp1033
V2018-01-09 10:45
p1034
aV220.5
p1035
aV0.80
p1036
aV0.90
p1037
aI01
aa(lp1038
V2018-01-09 10:44
p1039
aV220.5
p1040
aV0.90
p1041
aV0.80
p1042
aI01
aa(lp1043
V2018-01-09 10:43
p1044
aV219.5
p1045
aV0.80
p1046
aV0.90
p1047
aI01
aa(lp1048
V2018-01-09 10:43
p1049
aV219.5
p1050
aV1.00
p1051
aV0.70
p1052
aI01
aa(lp1053
V2018-01-09 10:42
p1054
aV220.5
p1055
aV1.00
p1056
aV0.70
p1057
aI01
aa(lp1058
V2018-01-09 10:41
p1059
aV220.5
p1060
aV1.17
p1061
aV0.55
p1062
aI01
aa(lp1063
V2018-01-09 10:41
p1064
aV220.5
p1065
aV0.80
p1066
aV0.90
p1067
aI01
aa(lp1068
V2018-01-09 10:40
p1069
aV219.5
p1070
aV0.70
p1071
aV1.00
p1072
aI01
aa(lp1073
V2018-01-09 10:40
p1074
aV219.5
p1075
aV0.85
p1076
aV0.85
p1077
aI01
aa(lp1078
V2018-01-09 10:40
p1079
aV219.5
p1080
aV1.00
p1081
aV0.70
p1082
aI01
aa(lp1083
V2018-01-09 10:39
p1084
aV219.5
p1085
aV0.80
p1086
aV0.90
p1087
aI01
aa(lp1088
V2018-01-09 10:39
p1089
aV219.5
p1090
aV0.90
p1091
aV0.80
p1092
aI01
aa(lp1093
V2018-01-09 10:39
p1094
aV219.5
p1095
aV1.00
p1096
aV0.70
p1097
aI01
aa(lp1098
V2018-01-09 10:39
p1099
aV220.5
p1100
aV1.25
p1101
aV0.50
p1102
aI01
aa(lp1103
V2018-01-09 10:38
p1104
aV220.5
p1105
aV1.00
p1106
aV0.70
p1107
aI01
aa(lp1108
V2018-01-09 10:35
p1109
aV220.5
p1110
aV0.85
p1111
aV0.85
p1112
aI01
aa(lp1113
V2018-01-09 10:35
p1114
aV219.5
p1115
aV0.65
p1116
aV1.05
p1117
aI01
aa(lp1118
V2018-01-09 10:35
p1119
aV219.5
p1120
aV0.85
p1121
aV0.85
p1122
aI01
aa(lp1123
V2018-01-09 10:34
p1124
aV219.5
p1125
aV0.70
p1126
aV1.00
p1127
aI01
aa(lp1128
V2018-01-09 10:34
p1129
aV219.5
p1130
aV0.90
p1131
aV0.80
p1132
aI01
aa(lp1133
V2018-01-09 10:33
p1134
aV220.5
p1135
aV0.90
p1136
aV0.80
p1137
aI01
aa(lp1138
V2018-01-09 10:33
p1139
aV220.5
p1140
aV0.80
p1141
aV0.90
p1142
aI01
aa(lp1143
V2018-01-09 10:33
p1144
aV219.5
p1145
aV0.60
p1146
aV1.11
p1147
aI01
aa(lp1148
V2018-01-09 10:31
p1149
aV219.5
p1150
aV0.80
p1151
aV0.90
p1152
aI01
aa(lp1153
V2018-01-09 10:28
p1154
aV219.5
p1155
aV0.85
p1156
aV0.85
p1157
aI01
aa(lp1158
V2018-01-09 10:28
p1159
aV218.5
p1160
aV0.70
p1161
aV1.00
p1162
aI01
aa(lp1163
V2018-01-09 10:28
p1164
aV218.5
p1165
aV0.90
p1166
aV0.80
p1167
aI01
aa(lp1168
V2018-01-09 10:27
p1169
aV218.5
p1170
aV1.00
p1171
aV0.70
p1172
aI01
aa(lp1173
V2018-01-09 10:25
p1174
aV218.5
p1175
aV0.80
p1176
aV0.90
p1177
aI01
aa(lp1178
V2018-01-09 10:22
p1179
aV218.5
p1180
aV0.85
p1181
aV0.85
p1182
aI01
aa(lp1183
V2018-01-09 10:21
p1184
aV218.5
p1185
aV0.80
p1186
aV0.90
p1187
aI01
aa(lp1188
V2018-01-09 10:21
p1189
aV218.5
p1190
aV0.90
p1191
aV0.80
p1192
aI01
aa(lp1193
V2018-01-09 10:21
p1194
aV218.5
p1195
aV0.70
p1196
aV1.00
p1197
aI01
aa(lp1198
V2018-01-09 10:20
p1199
aV218.5
p1200
aV0.80
p1201
aV0.90
p1202
aI01
aa(lp1203
V2018-01-09 10:20
p1204
aV218.5
p1205
aV0.85
p1206
aV0.85
p1207
aI01
aa(lp1208
V2018-01-09 10:20
p1209
aV219.5
p1210
aV0.85
p1211
aV0.85
p1212
aI01
aa(lp1213
V2018-01-09 10:20
p1214
aV219.5
p1215
aV0.75
p1216
aV0.95
p1217
aI01
aa(lp1218
V2018-01-09 10:19
p1219
aV219.5
p1220
aV0.60
p1221
aV1.11
p1222
aI01
aa(lp1223
V2018-01-09 10:18
p1224
aV219.5
p1225
aV0.70
p1226
aV1.00
p1227
aI01
aa(lp1228
V2018-01-09 10:18
p1229
aV219.5
p1230
aV0.85
p1231
aV0.85
p1232
aI01
aa(lp1233
V2018-01-09 10:18
p1234
aV218.5
p1235
aV0.68
p1236
aV1.02
p1237
aI01
aa(lp1238
V2018-01-09 10:15
p1239
aV218.5
p1240
aV0.84
p1241
aV1.02
p1242
aI01
aa(lp1243
V2018-01-09 10:09
p1244
aV218.5
p1245
aV0.87
p1246
aV0.99
p1247
aI01
aa(lp1248
V2018-01-09 10:06
p1249
aV218.5
p1250
aV0.90
p1251
aV0.96
p1252
aI01
aa(lp1253
V2018-01-09 10:06
p1254
aV218.5
p1255
aV0.93
p1256
aV0.93
p1257
aI01
aa(lp1258
V2018-01-09 10:00
p1259
aV224.5
p1260
aV1.00
p1261
aV0.70
p1262
aI01
aa(lp1263
V2018-01-09 09:59
p1264
aV224.5
p1265
aV1.11
p1266
aV0.60
p1267
aI01
aa(lp1268
V2018-01-09 09:59
p1269
aV224.5
p1270
aV1.00
p1271
aV0.70
p1272
aI01
aa(lp1273
V2018-01-09 09:59
p1274
aV224.5
p1275
aV0.90
p1276
aV0.80
p1277
aI01
aa(lp1278
V2018-01-09 09:58
p1279
aV224.5
p1280
aV0.80
p1281
aV0.90
p1282
aI01
aa(lp1283
V2018-01-09 09:57
p1284
aV224.5
p1285
aV1.00
p1286
aV0.70
p1287
aI01
aa(lp1288
V2018-01-09 09:55
p1289
aV224.5
p1290
aV0.85
p1291
aV0.85
p1292
aI01
aa(lp1293
V2018-01-09 09:55
p1294
aV224.5
p1295
aV1.00
p1296
aV0.70
p1297
aI01
aa(lp1298
V2018-01-09 09:54
p1299
aV224.5
p1300
aV0.90
p1301
aV0.80
p1302
aI01
aa(lp1303
V2018-01-09 09:54
p1304
aV224.5
p1305
aV1.00
p1306
aV0.70
p1307
aI01
aa(lp1308
V2018-01-09 09:54
p1309
aV224.5
p1310
aV0.80
p1311
aV0.90
p1312
aI01
aa(lp1313
V2018-01-09 09:54
p1314
aV224.5
p1315
aV0.90
p1316
aV0.80
p1317
aI01
aa(lp1318
V2018-01-09 09:53
p1319
aV224.5
p1320
aV1.00
p1321
aV0.70
p1322
aI01
aa(lp1323
V2018-01-09 09:53
p1324
aV223.5
p1325
aV0.90
p1326
aV0.80
p1327
aI01
aa(lp1328
V2018-01-09 09:52
p1329
aV221.5
p1330
aV0.85
p1331
aV0.85
p1332
aI01
aa(lp1333
V2018-01-09 09:52
p1334
aV221.5
p1335
aV1.00
p1336
aV0.70
p1337
aI01
aa(lp1338
V2018-01-09 09:51
p1339
aV221.5
p1340
aV0.85
p1341
aV0.85
p1342
aI01
aa(lp1343
V2018-01-09 09:51
p1344
aV223.5
p1345
aV0.85
p1346
aV0.85
p1347
aI01
aa(lp1348
V2018-01-09 09:51
p1349
aV223.5
p1350
aV1.00
p1351
aV0.70
p1352
aI01
aa(lp1353
V2018-01-09 09:50
p1354
aV221.5
p1355
aV0.70
p1356
aV1.00
p1357
aI01
aa(lp1358
V2018-01-09 09:49
p1359
aV221.5
p1360
aV0.85
p1361
aV0.85
p1362
aI01
aa(lp1363
V2018-01-09 09:49
p1364
aV219.5
p1365
aV0.70
p1366
aV1.00
p1367
aI01
aa(lp1368
V2018-01-09 09:49
p1369
aV219.5
p1370
aV0.90
p1371
aV0.80
p1372
aI01
aa(lp1373
V2018-01-09 09:46
p1374
aV219.5
p1375
aV0.80
p1376
aV0.90
p1377
aI01
aa(lp1378
V2018-01-09 09:45
p1379
aV219.5
p1380
aV0.90
p1381
aV0.80
p1382
aI01
aa(lp1383
V2018-01-09 09:43
p1384
aV218.5
p1385
aV0.75
p1386
aV0.95
p1387
aI01
aa(lp1388
V2018-01-09 09:42
p1389
aV218.5
p1390
aV0.85
p1391
aV0.85
p1392
aI01
aa(lp1393
V2018-01-09 09:42
p1394
aV218.5
p1395
aV0.80
p1396
aV0.90
p1397
aI01
aa(lp1398
V2018-01-09 09:39
p1399
aV218.5
p1400
aV0.90
p1401
aV0.80
p1402
aI01
aa(lp1403
V2018-01-09 09:39
p1404
aV216.5
p1405
aV0.85
p1406
aV0.85
p1407
aI01
aa(lp1408
V2018-01-09 09:38
p1409
aV216.5
p1410
aV0.90
p1411
aV0.80
p1412
aI01
aa(lp1413
V2018-01-09 09:38
p1414
aV216.5
p1415
aV0.85
p1416
aV0.85
p1417
aI01
aa(lp1418
V2018-01-09 09:38
p1419
aV216.5
p1420
aV1.11
p1421
aV0.60
p1422
aI01
aa(lp1423
V2018-01-09 09:37
p1424
aV216.5
p1425
aV1.00
p1426
aV0.70
p1427
aI01
aa(lp1428
V2018-01-09 09:37
p1429
aV216.5
p1430
aV1.11
p1431
aV0.60
p1432
aI01
aa(lp1433
V2018-01-09 09:36
p1434
aV216.5
p1435
aV0.90
p1436
aV0.80
p1437
aI01
aa(lp1438
V2018-01-09 09:36
p1439
aV214.5
p1440
aV0.85
p1441
aV0.85
p1442
aI01
aa(lp1443
V2018-01-09 09:33
p1444
aV215.5
p1445
aV1.00
p1446
aV0.70
p1447
aI01
aa(lp1448
V2018-01-09 09:32
p1449
aV214.5
p1450
aV0.80
p1451
aV0.90
p1452
aI01
aa(lp1453
V2018-01-09 09:31
p1454
aV214.5
p1455
aV0.90
p1456
aV0.80
p1457
aI01
aa(lp1458
V2018-01-09 09:31
p1459
aV214.5
p1460
aV1.11
p1461
aV0.60
p1462
aI01
aa(lp1463
V2018-01-09 09:30
p1464
aV214.5
p1465
aV0.90
p1466
aV0.80
p1467
aI01
aa(lp1468
V2018-01-09 09:29
p1469
aV212.5
p1470
aV1.00
p1471
aV0.70
p1472
aI01
aa(lp1473
V2018-01-09 09:28
p1474
aV212.5
p1475
aV1.11
p1476
aV0.60
p1477
aI01
aa(lp1478
V2018-01-09 09:27
p1479
aV212.5
p1480
aV1.25
p1481
aV0.50
p1482
aI01
aa(lp1483
V2018-01-09 09:27
p1484
aV212.5
p1485
aV1.11
p1486
aV0.60
p1487
aI01
aa(lp1488
V2018-01-09 09:26
p1489
aV212.5
p1490
aV0.90
p1491
aV0.80
p1492
aI01
aa(lp1493
V2018-01-09 09:26
p1494
aV212.5
p1495
aV0.80
p1496
aV0.90
p1497
aI01
aa(lp1498
V2018-01-09 09:25
p1499
aV212.5
p1500
aV1.00
p1501
aV0.70
p1502
aI01
aa(lp1503
V2018-01-09 09:25
p1504
aV213.5
p1505
aV1.11
p1506
aV0.60
p1507
aI01
aa(lp1508
V2018-01-09 09:23
p1509
aV212.5
p1510
aV0.95
p1511
aV0.75
p1512
aI01
aa(lp1513
V2018-01-09 09:22
p1514
aV213.5
p1515
aV1.11
p1516
aV0.60
p1517
aI01
aa(lp1518
V2018-01-09 09:21
p1519
aV216.5
p1520
aV1.25
p1521
aV0.50
p1522
aI01
aa(lp1523
V2018-01-09 09:21
p1524
aV216.5
p1525
aV1.11
p1526
aV0.60
p1527
aI01
aa(lp1528
V2018-01-09 09:21
p1529
aV216.5
p1530
aV1.00
p1531
aV0.70
p1532
aI01
aa(lp1533
V2018-01-09 09:20
p1534
aV216.5
p1535
aV1.11
p1536
aV0.60
p1537
aI01
aa(lp1538
V2018-01-09 09:20
p1539
aV218.5
p1540
aV1.25
p1541
aV0.50
p1542
aI01
aa(lp1543
V2018-01-09 09:19
p1544
aV218.5
p1545
aV1.11
p1546
aV0.60
p1547
aI01
aa(lp1548
V2018-01-09 09:17
p1549
aV218.5
p1550
aV1.00
p1551
aV0.70
p1552
aI01
aa(lp1553
V2018-01-09 09:13
p1554
aV220.5
p1555
aV1.25
p1556
aV0.50
p1557
aI01
aa(lp1558
V2018-01-09 09:13
p1559
aV220.5
p1560
aV1.11
p1561
aV0.60
p1562
aI01
aa(lp1563
V2018-01-09 09:13
p1564
aV221.5
p1565
aV1.11
p1566
aV0.60
p1567
aI01
aa(lp1568
V2018-01-09 09:12
p1569
aV221.5
p1570
aV0.90
p1571
aV0.80
p1572
aI01
aa(lp1573
V2018-01-09 09:12
p1574
aV221.5
p1575
aV0.80
p1576
aV0.90
p1577
aI01
aa(lp1578
V2018-01-09 09:11
p1579
aV221.5
p1580
aV0.90
p1581
aV0.80
p1582
aI01
aa(lp1583
V2018-01-09 09:11
p1584
aV221.5
p1585
aV0.80
p1586
aV0.90
p1587
aI01
aa(lp1588
V2018-01-09 09:00
p1589
aV221.5
p1590
aV0.65
p1591
aV1.05
p1592
aI00
aa(lp1593
V2018-01-09 08:40
p1594
aV221
p1595
aV0.72
p1596
aV1.19
p1597
aI00
aa(lp1598
V2018-01-09 08:34
p1599
aV221
p1600
aV0.73
p1601
aV1.17
p1602
aI00
aa(lp1603
V2018-01-09 08:17
p1604
aV220.5
p1605
aV0.71
p1606
aV1.20
p1607
aI00
aa(lp1608
V2018-01-09 08:14
p1609
aV220.5
p1610
aV0.73
p1611
aV1.17
p1612
aI00
aa(lp1613
V2018-01-09 08:07
p1614
aV220.5
p1615
aV0.76
p1616
aV1.13
p1617
aI00
aa(lp1618
V2018-01-09 07:57
p1619
aV220.5
p1620
aV0.78
p1621
aV1.11
p1622
aI00
aa(lp1623
V2018-01-09 07:54
p1624
aV220.5
p1625
aV0.80
p1626
aV1.08
p1627
aI00
aa(lp1628
V2018-01-09 04:29
p1629
aV220.5
p1630
aV0.75
p1631
aV1.14
p1632
aI00
aa(lp1633
V2018-01-09 01:06
p1634
aV220.5
p1635
aV0.73
p1636
aV1.17
p1637
aI00
aa(lp1638
V2018-01-09 00:15
p1639
aV220.5
p1640
aV0.75
p1641
aV1.14
p1642
aI00
aa(lp1643
V2018-01-08 23:59
p1644
aV220.5
p1645
aV0.80
p1646
aV1.08
p1647
aI00
aa(lp1648
V2018-01-08 23:14
p1649
aV220.5
p1650
aV0.84
p1651
aV1.04
p1652
aI00
aa(lp1653
V2018-01-08 22:38
p1654
aV220.5
p1655
aV0.81
p1656
aV1.07
p1657
aI00
aa(lp1658
V2018-01-08 21:23
p1659
aV220.5
p1660
aV0.85
p1661
aV1.03
p1662
aI00
aa(lp1663
V2018-01-08 21:22
p1664
aV220.5
p1665
aV0.88
p1666
aV1.00
p1667
aI00
aa(lp1668
V2018-01-08 19:44
p1669
aV220.5
p1670
aV0.92
p1671
aV0.96
p1672
aI00
aa(lp1673
V2018-01-08 19:41
p1674
aV220.5
p1675
aV0.83
p1676
aV1.05
p1677
aI00
aa(lp1678
V2018-01-08 17:44
p1679
aV220.5
p1680
aV0.94
p1681
aV0.94
p1682
aI00
aa(lp1683
V2018-01-08 16:46
p1684
aV220.5
p1685
aV0.95
p1686
aV0.93
p1687
aI00
aa(lp1688
V2018-01-08 16:44
p1689
aV220.5
p1690
aV0.94
p1691
aV0.94
p1692
aI00
aa(lp1693
V2018-01-08 10:11
p1694
aV220.5
p1695
aV0.93
p1696
aV0.95
p1697
aI00
aa(lp1698
V2018-01-08 07:10
p1699
aV220.5
p1700
aV0.91
p1701
aV0.95
p1702
aI00
aasS'wade'
p1703
(lp1704
(lp1705
V2018-01-09 08:59
p1706
aV223.5
p1707
aV0.90
p1708
aV0.80
p1709
aI00
aa(lp1710
V2018-01-09 08:55
p1711
aV221.5
p1712
aV0.75
p1713
aV1.00
p1714
aI00
aa(lp1715
V2018-01-09 08:52
p1716
aV223.5
p1717
aV0.90
p1718
aV0.80
p1719
aI00
aa(lp1720
V2018-01-09 08:50
p1721
aV221.5
p1722
aV0.75
p1723
aV1.00
p1724
aI00
aa(lp1725
V2018-01-09 08:49
p1726
aV220.5
p1727
aV0.70
p1728
aV1.05
p1729
aI00
aa(lp1730
V2018-01-09 08:13
p1731
aV223
p1732
aV0.90
p1733
aV0.90
p1734
aI00
aa(lp1735
V2018-01-09 08:07
p1736
aV222.5
p1737
aV0.90
p1738
aV0.90
p1739
aI00
aa(lp1740
V2018-01-09 07:54
p1741
aV222
p1742
aV0.90
p1743
aV0.90
p1744
aI00
aa(lp1745
V2018-01-09 00:24
p1746
aV222.5
p1747
aV0.90
p1748
aV0.90
p1749
aI00
aa(lp1750
V2018-01-09 00:12
p1751
aV222
p1752
aV0.90
p1753
aV0.90
p1754
aI00
aa(lp1755
V2018-01-09 00:05
p1756
aV221.5
p1757
aV0.90
p1758
aV0.90
p1759
aI00
aa(lp1760
V2018-01-08 23:49
p1761
aV222
p1762
aV0.90
p1763
aV0.90
p1764
aI00
aa(lp1765
V2018-01-08 23:14
p1766
aV221.5
p1767
aV0.90
p1768
aV0.90
p1769
aI00
aa(lp1770
V2018-01-08 22:39
p1771
aV222
p1772
aV0.90
p1773
aV0.90
p1774
aI00
aa(lp1775
V2018-01-08 21:24
p1776
aV221.5
p1777
aV0.90
p1778
aV0.90
p1779
aI00
aa(lp1780
V2018-01-08 21:23
p1781
aV221
p1782
aV0.90
p1783
aV0.90
p1784
aI00
aa(lp1785
V2018-01-08 19:42
p1786
aV220.5
p1787
aV0.90
p1788
aV0.90
p1789
aI00
aa(lp1790
V2018-01-08 19:08
p1791
aV220
p1792
aV0.90
p1793
aV0.90
p1794
aI00
aa(lp1795
V2018-01-08 17:41
p1796
aV220.5
p1797
aV0.90
p1798
aV0.90
p1799
aI00
aa(lp1800
V2018-01-08 16:45
p1801
aV220
p1802
aV0.90
p1803
aV0.90
p1804
aI00
aa(lp1805
V2018-01-08 07:11
p1806
aV220.5
p1807
aV0.90
p1808
aV0.90
p1809
aI00
aa(lp1810
V2018-01-08 06:17
p1811
aV220
p1812
aV0.90
p1813
aV0.90
p1814
aI00
aa(lp1815
V2018-01-08 05:08
p1816
aV219
p1817
aV0.90
p1818
aV0.90
p1819
aI00
aasS'game_id'
p1820
V290337
p1821
sS'bet365'
p1822
(lp1823
(lp1824
V2018-01-09 11:00
p1825
aV226.5
p1826
aV0.86
p1827
aV0.86
p1828
aI01
aa(lp1829
V2018-01-09 11:00
p1830
aV227.5
p1831
aV0.90
p1832
aV0.83
p1833
aI01
aa(lp1834
V2018-01-09 11:00
p1835
aV228.5
p1836
aV0.95
p1837
aV0.80
p1838
aI01
aa(lp1839
V2018-01-09 10:59
p1840
aV227.5
p1841
aV0.80
p1842
aV0.95
p1843
aI01
aa(lp1844
V2018-01-09 10:58
p1845
aV227.5
p1846
aV0.86
p1847
aV0.86
p1848
aI01
aa(lp1849
V2018-01-09 10:58
p1850
aV229.5
p1851
aV0.86
p1852
aV0.86
p1853
aI01
aa(lp1854
V2018-01-09 10:54
p1855
aV228.5
p1856
aV0.83
p1857
aV0.90
p1858
aI01
aa(lp1859
V2018-01-09 10:54
p1860
aV226.5
p1861
aV0.86
p1862
aV0.86
p1863
aI01
aa(lp1864
V2018-01-09 10:53
p1865
aV228.5
p1866
aV0.90
p1867
aV0.83
p1868
aI01
aa(lp1869
V2018-01-09 10:53
p1870
aV228.5
p1871
aV0.80
p1872
aV0.95
p1873
aI01
aa(lp1874
V2018-01-09 10:53
p1875
aV229.5
p1876
aV0.95
p1877
aV0.80
p1878
aI01
aa(lp1879
V2018-01-09 10:52
p1880
aV228.5
p1881
aV0.95
p1882
aV0.80
p1883
aI01
aa(lp1884
V2018-01-09 10:52
p1885
aV227.5
p1886
aV0.86
p1887
aV0.86
p1888
aI01
aa(lp1889
V2018-01-09 10:51
p1890
aV226.5
p1891
aV0.80
p1892
aV0.95
p1893
aI01
aa(lp1894
V2018-01-09 10:51
p1895
aV224.5
p1896
aV0.83
p1897
aV0.90
p1898
aI01
aa(lp1899
V2018-01-09 10:50
p1900
aV227.5
p1901
aV0.90
p1902
aV0.83
p1903
aI01
aa(lp1904
V2018-01-09 10:47
p1905
aV222.5
p1906
aV0.90
p1907
aV0.83
p1908
aI01
aa(lp1909
V2018-01-09 10:44
p1910
aV220.5
p1911
aV0.86
p1912
aV0.86
p1913
aI01
aa(lp1914
V2018-01-09 10:44
p1915
aV220.5
p1916
aV0.83
p1917
aV0.90
p1918
aI01
aa(lp1919
V2018-01-09 10:44
p1920
aV220.5
p1921
aV0.90
p1922
aV0.83
p1923
aI01
aa(lp1924
V2018-01-09 10:43
p1925
aV220.5
p1926
aV0.95
p1927
aV0.80
p1928
aI01
aa(lp1929
V2018-01-09 10:43
p1930
aV217.5
p1931
aV0.86
p1932
aV0.86
p1933
aI01
aa(lp1934
V2018-01-09 10:43
p1935
aV217.5
p1936
aV0.83
p1937
aV0.90
p1938
aI01
aa(lp1939
V2018-01-09 10:42
p1940
aV219.5
p1941
aV0.90
p1942
aV0.83
p1943
aI01
aa(lp1944
V2018-01-09 10:42
p1945
aV219.5
p1946
aV0.95
p1947
aV0.80
p1948
aI01
aa(lp1949
V2018-01-09 10:41
p1950
aV218.5
p1951
aV0.83
p1952
aV0.90
p1953
aI01
aa(lp1954
V2018-01-09 10:41
p1955
aV219.5
p1956
aV0.86
p1957
aV0.86
p1958
aI01
aa(lp1959
V2018-01-09 10:40
p1960
aV220.5
p1961
aV0.80
p1962
aV0.95
p1963
aI01
aa(lp1964
V2018-01-09 10:40
p1965
aV219.5
p1966
aV0.90
p1967
aV0.83
p1968
aI01
aa(lp1969
V2018-01-09 10:39
p1970
aV218.5
p1971
aV0.83
p1972
aV0.90
p1973
aI01
aa(lp1974
V2018-01-09 10:39
p1975
aV217.5
p1976
aV0.83
p1977
aV0.90
p1978
aI01
aa(lp1979
V2018-01-09 10:39
p1980
aV216.5
p1981
aV0.90
p1982
aV0.83
p1983
aI01
aa(lp1984
V2018-01-09 10:36
p1985
aV220.5
p1986
aV0.90
p1987
aV0.83
p1988
aI01
aa(lp1989
V2018-01-09 10:35
p1990
aV218.5
p1991
aV0.86
p1992
aV0.86
p1993
aI01
aa(lp1994
V2018-01-09 10:34
p1995
aV219.5
p1996
aV0.86
p1997
aV0.86
p1998
aI01
aa(lp1999
V2018-01-09 10:33
p2000
aV217.5
p2001
aV0.86
p2002
aV0.86
p2003
aI01
aa(lp2004
V2018-01-09 10:33
p2005
aV218.5
p2006
aV0.90
p2007
aV0.83
p2008
aI01
aa(lp2009
V2018-01-09 10:33
p2010
aV220.5
p2011
aV0.86
p2012
aV0.86
p2013
aI01
aa(lp2014
V2018-01-09 10:32
p2015
aV220.5
p2016
aV0.90
p2017
aV0.83
p2018
aI01
aa(lp2019
V2018-01-09 10:32
p2020
aV218.5
p2021
aV0.83
p2022
aV0.90
p2023
aI01
aa(lp2024
V2018-01-09 10:28
p2025
aV218.5
p2026
aV0.90
p2027
aV0.83
p2028
aI01
aa(lp2029
V2018-01-09 10:27
p2030
aV216.5
p2031
aV0.83
p2032
aV0.90
p2033
aI01
aa(lp2034
V2018-01-09 10:27
p2035
aV216.5
p2036
aV0.86
p2037
aV0.86
p2038
aI01
aa(lp2039
V2018-01-09 10:26
p2040
aV218.5
p2041
aV0.90
p2042
aV0.83
p2043
aI01
aa(lp2044
V2018-01-09 10:26
p2045
aV216.5
p2046
aV0.86
p2047
aV0.86
p2048
aI01
aa(lp2049
V2018-01-09 10:25
p2050
aV217.5
p2051
aV0.86
p2052
aV0.86
p2053
aI01
aa(lp2054
V2018-01-09 10:25
p2055
aV218.5
p2056
aV0.90
p2057
aV0.83
p2058
aI01
aa(lp2059
V2018-01-09 10:22
p2060
aV217.5
p2061
aV0.86
p2062
aV0.86
p2063
aI01
aa(lp2064
V2018-01-09 10:21
p2065
aV216.5
p2066
aV0.86
p2067
aV0.86
p2068
aI01
aa(lp2069
V2018-01-09 10:21
p2070
aV215.5
p2071
aV0.86
p2072
aV0.86
p2073
aI01
aa(lp2074
V2018-01-09 10:21
p2075
aV216.5
p2076
aV0.86
p2077
aV0.86
p2078
aI01
aa(lp2079
V2018-01-09 10:20
p2080
aV215.5
p2081
aV0.86
p2082
aV0.86
p2083
aI01
aa(lp2084
V2018-01-09 10:20
p2085
aV216.5
p2086
aV0.83
p2087
aV0.90
p2088
aI01
aa(lp2089
V2018-01-09 10:19
p2090
aV217.5
p2091
aV0.86
p2092
aV0.86
p2093
aI01
aa(lp2094
V2018-01-09 10:19
p2095
aV219.5
p2096
aV0.83
p2097
aV0.90
p2098
aI01
aa(lp2099
V2018-01-09 10:18
p2100
aV218.5
p2101
aV0.86
p2102
aV0.86
p2103
aI01
aa(lp2104
V2018-01-09 10:18
p2105
aV217.5
p2106
aV0.83
p2107
aV0.90
p2108
aI01
aa(lp2109
V2018-01-09 10:06
p2110
aV218.5
p2111
aV0.90
p2112
aV0.83
p2113
aI01
aa(lp2114
V2018-01-09 10:02
p2115
aV217.5
p2116
aV0.86
p2117
aV0.86
p2118
aI01
aa(lp2119
V2018-01-09 10:02
p2120
aV215.5
p2121
aV0.83
p2122
aV0.90
p2123
aI01
aa(lp2124
V2018-01-09 10:02
p2125
aV217.5
p2126
aV0.86
p2127
aV0.86
p2128
aI01
aa(lp2129
V2018-01-09 10:01
p2130
aV218.5
p2131
aV0.86
p2132
aV0.86
p2133
aI01
aa(lp2134
V2018-01-09 10:00
p2135
aV219.5
p2136
aV0.83
p2137
aV0.90
p2138
aI01
aa(lp2139
V2018-01-09 10:00
p2140
aV220.5
p2141
aV0.83
p2142
aV0.90
p2143
aI01
aa(lp2144
V2018-01-09 09:59
p2145
aV222.5
p2146
aV0.86
p2147
aV0.86
p2148
aI01
aa(lp2149
V2018-01-09 09:58
p2150
aV223.5
p2151
aV0.86
p2152
aV0.86
p2153
aI01
aa(lp2154
V2018-01-09 09:58
p2155
aV221.5
p2156
aV0.90
p2157
aV0.83
p2158
aI01
aa(lp2159
V2018-01-09 09:57
p2160
aV221.5
p2161
aV0.83
p2162
aV0.90
p2163
aI01
aa(lp2164
V2018-01-09 09:54
p2165
aV223.5
p2166
aV0.86
p2167
aV0.86
p2168
aI01
aa(lp2169
V2018-01-09 09:53
p2170
aV224.5
p2171
aV0.90
p2172
aV0.83
p2173
aI01
aa(lp2174
V2018-01-09 09:53
p2175
aV223.5
p2176
aV0.86
p2177
aV0.86
p2178
aI01
aa(lp2179
V2018-01-09 09:52
p2180
aV222.5
p2181
aV0.86
p2182
aV0.86
p2183
aI01
aa(lp2184
V2018-01-09 09:52
p2185
aV222.5
p2186
aV0.90
p2187
aV0.83
p2188
aI01
aa(lp2189
V2018-01-09 09:52
p2190
aV221.5
p2191
aV0.83
p2192
aV0.90
p2193
aI01
aa(lp2194
V2018-01-09 09:52
p2195
aV221.5
p2196
aV0.90
p2197
aV0.83
p2198
aI01
aa(lp2199
V2018-01-09 09:51
p2200
aV221.5
p2201
aV0.86
p2202
aV0.86
p2203
aI01
aa(lp2204
V2018-01-09 09:51
p2205
aV222.5
p2206
aV0.86
p2207
aV0.86
p2208
aI01
aa(lp2209
V2018-01-09 09:51
p2210
aV223.5
p2211
aV0.86
p2212
aV0.86
p2213
aI01
aa(lp2214
V2018-01-09 09:50
p2215
aV222.5
p2216
aV0.83
p2217
aV0.90
p2218
aI01
aa(lp2219
V2018-01-09 09:50
p2220
aV222.5
p2221
aV0.86
p2222
aV0.86
p2223
aI01
aa(lp2224
V2018-01-09 09:49
p2225
aV221.5
p2226
aV0.86
p2227
aV0.86
p2228
aI01
aa(lp2229
V2018-01-09 09:49
p2230
aV220.5
p2231
aV0.86
p2232
aV0.86
p2233
aI01
aa(lp2234
V2018-01-09 09:49
p2235
aV219.5
p2236
aV0.90
p2237
aV0.83
p2238
aI01
aa(lp2239
V2018-01-09 09:48
p2240
aV219.5
p2241
aV0.86
p2242
aV0.86
p2243
aI01
aa(lp2244
V2018-01-09 09:48
p2245
aV220.5
p2246
aV0.86
p2247
aV0.86
p2248
aI01
aa(lp2249
V2018-01-09 09:47
p2250
aV219.5
p2251
aV0.86
p2252
aV0.86
p2253
aI01
aa(lp2254
V2018-01-09 09:47
p2255
aV219.5
p2256
aV0.90
p2257
aV0.83
p2258
aI01
aa(lp2259
V2018-01-09 09:47
p2260
aV217.5
p2261
aV0.83
p2262
aV0.90
p2263
aI01
aa(lp2264
V2018-01-09 09:46
p2265
aV218.5
p2266
aV0.83
p2267
aV0.90
p2268
aI01
aa(lp2269
V2018-01-09 09:45
p2270
aV218.5
p2271
aV0.86
p2272
aV0.86
p2273
aI01
aa(lp2274
V2018-01-09 09:42
p2275
aV217.5
p2276
aV0.86
p2277
aV0.86
p2278
aI01
aa(lp2279
V2018-01-09 09:42
p2280
aV218.5
p2281
aV0.86
p2282
aV0.86
p2283
aI01
aa(lp2284
V2018-01-09 09:41
p2285
aV216.5
p2286
aV0.90
p2287
aV0.83
p2288
aI01
aa(lp2289
V2018-01-09 09:40
p2290
aV214.5
p2291
aV0.86
p2292
aV0.86
p2293
aI01
aa(lp2294
V2018-01-09 09:40
p2295
aV215.5
p2296
aV0.86
p2297
aV0.86
p2298
aI01
aa(lp2299
V2018-01-09 09:40
p2300
aV216.5
p2301
aV0.86
p2302
aV0.86
p2303
aI01
aa(lp2304
V2018-01-09 09:39
p2305
aV217.5
p2306
aV0.86
p2307
aV0.86
p2308
aI01
aa(lp2309
V2018-01-09 09:39
p2310
aV217.5
p2311
aV0.90
p2312
aV0.83
p2313
aI01
aa(lp2314
V2018-01-09 09:38
p2315
aV215.5
p2316
aV0.83
p2317
aV0.90
p2318
aI01
aa(lp2319
V2018-01-09 09:37
p2320
aV213.5
p2321
aV0.90
p2322
aV0.83
p2323
aI01
aa(lp2324
V2018-01-09 09:37
p2325
aV214.5
p2326
aV0.83
p2327
aV0.90
p2328
aI01
aa(lp2329
V2018-01-09 09:36
p2330
aV215.5
p2331
aV0.86
p2332
aV0.86
p2333
aI01
aa(lp2334
V2018-01-09 09:32
p2335
aV214.5
p2336
aV0.86
p2337
aV0.86
p2338
aI01
aa(lp2339
V2018-01-09 09:32
p2340
aV215.5
p2341
aV0.86
p2342
aV0.86
p2343
aI01
aa(lp2344
V2018-01-09 09:32
p2345
aV214.5
p2346
aV0.90
p2347
aV0.83
p2348
aI01
aa(lp2349
V2018-01-09 09:31
p2350
aV213.5
p2351
aV0.86
p2352
aV0.86
p2353
aI01
aa(lp2354
V2018-01-09 09:31
p2355
aV212.5
p2356
aV0.86
p2357
aV0.86
p2358
aI01
aa(lp2359
V2018-01-09 09:31
p2360
aV211.5
p2361
aV0.86
p2362
aV0.86
p2363
aI01
aa(lp2364
V2018-01-09 09:30
p2365
aV212.5
p2366
aV0.83
p2367
aV0.90
p2368
aI01
aa(lp2369
V2018-01-09 09:29
p2370
aV213.5
p2371
aV0.86
p2372
aV0.86
p2373
aI01
aa(lp2374
V2018-01-09 09:29
p2375
aV212.5
p2376
aV0.86
p2377
aV0.86
p2378
aI01
aa(lp2379
V2018-01-09 09:29
p2380
aV212.5
p2381
aV0.90
p2382
aV0.83
p2383
aI01
aa(lp2384
V2018-01-09 09:28
p2385
aV210.5
p2386
aV0.86
p2387
aV0.86
p2388
aI01
aa(lp2389
V2018-01-09 09:28
p2390
aV211.5
p2391
aV0.90
p2392
aV0.83
p2393
aI01
aa(lp2394
V2018-01-09 09:28
p2395
aV210.5
p2396
aV0.83
p2397
aV0.90
p2398
aI01
aa(lp2399
V2018-01-09 09:27
p2400
aV209.5
p2401
aV0.86
p2402
aV0.86
p2403
aI01
aa(lp2404
V2018-01-09 09:26
p2405
aV211.5
p2406
aV0.86
p2407
aV0.86
p2408
aI01
aa(lp2409
V2018-01-09 09:25
p2410
aV208.5
p2411
aV0.83
p2412
aV0.90
p2413
aI01
aa(lp2414
V2018-01-09 09:25
p2415
aV210.5
p2416
aV0.86
p2417
aV0.86
p2418
aI01
aa(lp2419
V2018-01-09 09:22
p2420
aV211.5
p2421
aV0.86
p2422
aV0.86
p2423
aI01
aa(lp2424
V2018-01-09 09:21
p2425
aV209.5
p2426
aV0.83
p2427
aV0.90
p2428
aI01
aa(lp2429
V2018-01-09 09:21
p2430
aV213.5
p2431
aV0.90
p2432
aV0.83
p2433
aI01
aa(lp2434
V2018-01-09 09:21
p2435
aV211.5
p2436
aV0.86
p2437
aV0.86
p2438
aI01
aa(lp2439
V2018-01-09 09:20
p2440
aV213.5
p2441
aV0.86
p2442
aV0.86
p2443
aI01
aa(lp2444
V2018-01-09 09:20
p2445
aV213.5
p2446
aV0.90
p2447
aV0.83
p2448
aI01
aa(lp2449
V2018-01-09 09:20
p2450
aV214.5
p2451
aV0.86
p2452
aV0.86
p2453
aI01
aa(lp2454
V2018-01-09 09:19
p2455
aV215.5
p2456
aV0.86
p2457
aV0.86
p2458
aI01
aa(lp2459
V2018-01-09 09:16
p2460
aV216.5
p2461
aV0.86
p2462
aV0.86
p2463
aI01
aa(lp2464
V2018-01-09 09:15
p2465
aV216.5
p2466
aV0.83
p2467
aV0.90
p2468
aI01
aa(lp2469
V2018-01-09 09:15
p2470
aV217.5
p2471
aV0.86
p2472
aV0.86
p2473
aI01
aa(lp2474
V2018-01-09 09:15
p2475
aV217.5
p2476
aV0.90
p2477
aV0.83
p2478
aI01
aa(lp2479
V2018-01-09 09:14
p2480
aV216.5
p2481
aV0.90
p2482
aV0.83
p2483
aI01
aa(lp2484
V2018-01-09 09:14
p2485
aV214.5
p2486
aV0.86
p2487
aV0.86
p2488
aI01
aa(lp2489
V2018-01-09 09:13
p2490
aV216.5
p2491
aV0.86
p2492
aV0.86
p2493
aI01
aa(lp2494
V2018-01-09 09:13
p2495
aV215.5
p2496
aV0.86
p2497
aV0.86
p2498
aI01
aa(lp2499
V2018-01-09 09:13
p2500
aV216.5
p2501
aV0.86
p2502
aV0.86
p2503
aI01
aa(lp2504
V2018-01-09 09:12
p2505
aV218.5
p2506
aV0.86
p2507
aV0.86
p2508
aI01
aa(lp2509
V2018-01-09 09:12
p2510
aV219.5
p2511
aV0.86
p2512
aV0.86
p2513
aI01
aa(lp2514
V2018-01-09 09:12
p2515
aV221.5
p2516
aV0.86
p2517
aV0.86
p2518
aI01
aa(lp2519
V2018-01-09 09:11
p2520
aV220.5
p2521
aV0.86
p2522
aV0.86
p2523
aI01
aa(lp2524
V2018-01-09 09:11
p2525
aV218.5
p2526
aV0.83
p2527
aV0.90
p2528
aI01
aa(lp2529
V2018-01-09 09:10
p2530
aV221.5
p2531
aV0.86
p2532
aV0.86
p2533
aI00
aa(lp2534
V2018-01-09 08:15
p2535
aV223
p2536
aV0.90
p2537
aV0.90
p2538
aI00
aa(lp2539
V2018-01-09 08:09
p2540
aV222.5
p2541
aV0.90
p2542
aV0.90
p2543
aI00
aa(lp2544
V2018-01-09 07:53
p2545
aV222
p2546
aV0.90
p2547
aV0.90
p2548
aI00
aa(lp2549
V2018-01-09 00:11
p2550
aV222.5
p2551
aV0.90
p2552
aV0.90
p2553
aI00
aa(lp2554
V2018-01-08 22:37
p2555
aV221.5
p2556
aV0.90
p2557
aV0.90
p2558
aI00
aa(lp2559
V2018-01-08 21:28
p2560
aV221
p2561
aV0.90
p2562
aV0.90
p2563
aI00
aa(lp2564
V2018-01-08 20:51
p2565
aV220.5
p2566
aV0.90
p2567
aV0.90
p2568
aI00
aa(lp2569
V2018-01-08 10:01
p2570
aV220
p2571
aV0.90
p2572
aV0.90
p2573
aI00
aassb.