ccopy_reg
_reconstructor
p0
(cmy_oddsportal.items
WinOverUnderItem
p1
c__builtin__
object
p2
Ntp3
Rp4
(dp5
S'_values'
p6
(dp7
S'ysb8'
p8
(lp9
(lp10
V2018-02-05 01:03
p11
aV208.5
p12
aV0.95
p13
aV0.95
p14
aI00
aa(lp15
V2018-02-05 01:01
p16
aV209
p17
aV0.95
p18
aV0.95
p19
aI00
aa(lp20
V2018-02-05 00:58
p21
aV209.5
p22
aV0.95
p23
aV0.95
p24
aI00
aa(lp25
V2018-02-05 00:54
p26
aV209
p27
aV0.95
p28
aV0.95
p29
aI00
aa(lp30
V2018-02-05 00:12
p31
aV208.5
p32
aV0.95
p33
aV0.95
p34
aI00
aa(lp35
V2018-02-04 13:34
p36
aV208
p37
aV0.95
p38
aV0.95
p39
aI00
aasS'macau'
p40
(lp41
(lp42
V2018-02-05 01:09
p43
aV208.5
p44
aV0.80
p45
aV0.86
p46
aI00
aa(lp47
V2018-02-05 01:05
p48
aV208.5
p49
aV0.76
p50
aV0.90
p51
aI00
aa(lp52
V2018-02-05 01:01
p53
aV208.5
p54
aV0.70
p55
aV0.96
p56
aI00
aa(lp57
V2018-02-05 01:00
p58
aV208.5
p59
aV0.78
p60
aV0.88
p61
aI00
aa(lp62
V2018-02-05 00:49
p63
aV208.5
p64
aV0.78
p65
aV0.92
p66
aI00
aa(lp67
V2018-02-05 00:46
p68
aV208.5
p69
aV0.80
p70
aV0.90
p71
aI00
aa(lp72
V2018-02-05 00:44
p73
aV208.5
p74
aV0.820
p75
aV0.88
p76
aI00
aa(lp77
V2018-02-04 13:17
p78
aV208.5
p79
aV0.85
p80
aV0.85
p81
aI00
aasS'title'
p82
V\u000a                \u591a\u502b\u591a\u901f\u9f8d\u000a                vs\u000a                \u5b5f\u83f2\u65af\u7070\u718a\u000a            
p83
sS'crown'
p84
(lp85
(lp86
V2018-02-05 02:59
p87
aV197.5
p88
aV0.83
p89
aV0.83
p90
aI01
aa(lp91
V2018-02-05 02:59
p92
aV196.5
p93
aV0.83
p94
aV0.83
p95
aI01
aa(lp96
V2018-02-05 02:59
p97
aV197.5
p98
aV0.83
p99
aV0.83
p100
aI01
aa(lp101
V2018-02-05 02:56
p102
aV199.5
p103
aV0.83
p104
aV0.83
p105
aI01
aa(lp106
V2018-02-05 02:53
p107
aV201.5
p108
aV0.83
p109
aV0.83
p110
aI01
aa(lp111
V2018-02-05 02:53
p112
aV200.5
p113
aV0.83
p114
aV0.83
p115
aI01
aa(lp116
V2018-02-05 02:52
p117
aV199.5
p118
aV0.83
p119
aV0.83
p120
aI01
aa(lp121
V2018-02-05 02:52
p122
aV198.5
p123
aV0.83
p124
aV0.83
p125
aI01
aa(lp126
V2018-02-05 02:51
p127
aV199.5
p128
aV0.83
p129
aV0.83
p130
aI01
aa(lp131
V2018-02-05 02:51
p132
aV200.5
p133
aV0.83
p134
aV0.83
p135
aI01
aa(lp136
V2018-02-05 02:51
p137
aV201.5
p138
aV0.83
p139
aV0.83
p140
aI01
aa(lp141
V2018-02-05 02:50
p142
aV202.5
p143
aV0.83
p144
aV0.83
p145
aI01
aa(lp146
V2018-02-05 02:50
p147
aV200.5
p148
aV0.83
p149
aV0.83
p150
aI01
aa(lp151
V2018-02-05 02:49
p152
aV201.5
p153
aV0.83
p154
aV0.83
p155
aI01
aa(lp156
V2018-02-05 02:48
p157
aV200.5
p158
aV0.83
p159
aV0.83
p160
aI01
aa(lp161
V2018-02-05 02:47
p162
aV202.5
p163
aV0.83
p164
aV0.83
p165
aI01
aa(lp166
V2018-02-05 02:45
p167
aV202.5
p168
aV0.86
p169
aV0.80
p170
aI01
aa(lp171
V2018-02-05 02:45
p172
aV204.5
p173
aV0.86
p174
aV0.80
p175
aI01
aa(lp176
V2018-02-05 02:43
p177
aV205.5
p178
aV0.86
p179
aV0.80
p180
aI01
aa(lp181
V2018-02-05 02:43
p182
aV206.5
p183
aV0.86
p184
aV0.80
p185
aI01
aa(lp186
V2018-02-05 02:41
p187
aV205.5
p188
aV0.86
p189
aV0.80
p190
aI01
aa(lp191
V2018-02-05 02:41
p192
aV205.5
p193
aV0.88
p194
aV0.78
p195
aI01
aa(lp196
V2018-02-05 02:39
p197
aV205.5
p198
aV0.83
p199
aV0.83
p200
aI01
aa(lp201
V2018-02-05 02:38
p202
aV204.5
p203
aV0.83
p204
aV0.83
p205
aI01
aa(lp206
V2018-02-05 02:38
p207
aV203.5
p208
aV0.83
p209
aV0.83
p210
aI01
aa(lp211
V2018-02-05 02:38
p212
aV202.5
p213
aV0.83
p214
aV0.83
p215
aI01
aa(lp216
V2018-02-05 02:04
p217
aV201.5
p218
aV0.83
p219
aV0.83
p220
aI01
aa(lp221
V2018-02-05 01:58
p222
aV202.5
p223
aV0.83
p224
aV0.83
p225
aI01
aa(lp226
V2018-02-05 01:58
p227
aV201.5
p228
aV0.83
p229
aV0.83
p230
aI01
aa(lp231
V2018-02-05 01:57
p232
aV202.5
p233
aV0.83
p234
aV0.83
p235
aI01
aa(lp236
V2018-02-05 01:57
p237
aV203.5
p238
aV0.83
p239
aV0.83
p240
aI01
aa(lp241
V2018-02-05 01:56
p242
aV202.5
p243
aV0.83
p244
aV0.83
p245
aI01
aa(lp246
V2018-02-05 01:56
p247
aV202.5
p248
aV0.86
p249
aV0.80
p250
aI01
aa(lp251
V2018-02-05 01:53
p252
aV206.5
p253
aV0.86
p254
aV0.80
p255
aI01
aa(lp256
V2018-02-05 01:53
p257
aV206.5
p258
aV0.83
p259
aV0.83
p260
aI01
aa(lp261
V2018-02-05 01:51
p262
aV204.5
p263
aV0.83
p264
aV0.83
p265
aI01
aa(lp266
V2018-02-05 01:51
p267
aV202.5
p268
aV0.83
p269
aV0.83
p270
aI01
aa(lp271
V2018-02-05 01:50
p272
aV204.5
p273
aV0.83
p274
aV0.83
p275
aI01
aa(lp276
V2018-02-05 01:49
p277
aV205.5
p278
aV0.83
p279
aV0.83
p280
aI01
aa(lp281
V2018-02-05 01:48
p282
aV204.5
p283
aV0.83
p284
aV0.83
p285
aI01
aa(lp286
V2018-02-05 01:47
p287
aV205.5
p288
aV0.83
p289
aV0.83
p290
aI01
aa(lp291
V2018-02-05 01:47
p292
aV203.5
p293
aV0.83
p294
aV0.83
p295
aI01
aa(lp296
V2018-02-05 01:46
p297
aV204.5
p298
aV0.83
p299
aV0.83
p300
aI01
aa(lp301
V2018-02-05 01:45
p302
aV205.5
p303
aV0.83
p304
aV0.83
p305
aI01
aa(lp306
V2018-02-05 01:44
p307
aV206.5
p308
aV0.83
p309
aV0.83
p310
aI01
aa(lp311
V2018-02-05 01:44
p312
aV205.5
p313
aV0.83
p314
aV0.83
p315
aI01
aa(lp316
V2018-02-05 01:44
p317
aV204.5
p318
aV0.83
p319
aV0.83
p320
aI01
aa(lp321
V2018-02-05 01:44
p322
aV205.5
p323
aV0.83
p324
aV0.83
p325
aI01
aa(lp326
V2018-02-05 01:44
p327
aV203.5
p328
aV0.83
p329
aV0.83
p330
aI01
aa(lp331
V2018-02-05 01:43
p332
aV203.5
p333
aV0.83
p334
aV0.83
p335
aI01
aa(lp336
V2018-02-05 01:43
p337
aV204.5
p338
aV0.83
p339
aV0.83
p340
aI01
aa(lp341
V2018-02-05 01:40
p342
aV205.5
p343
aV0.83
p344
aV0.83
p345
aI01
aa(lp346
V2018-02-05 01:39
p347
aV204.5
p348
aV0.83
p349
aV0.83
p350
aI01
aa(lp351
V2018-02-05 01:38
p352
aV205.5
p353
aV0.83
p354
aV0.83
p355
aI01
aa(lp356
V2018-02-05 01:37
p357
aV204.5
p358
aV0.83
p359
aV0.83
p360
aI01
aa(lp361
V2018-02-05 01:34
p362
aV203.5
p363
aV0.83
p364
aV0.83
p365
aI01
aa(lp366
V2018-02-05 01:34
p367
aV202.5
p368
aV0.83
p369
aV0.83
p370
aI01
aa(lp371
V2018-02-05 01:34
p372
aV203.5
p373
aV0.83
p374
aV0.83
p375
aI01
aa(lp376
V2018-02-05 01:33
p377
aV204.5
p378
aV0.83
p379
aV0.83
p380
aI01
aa(lp381
V2018-02-05 01:32
p382
aV207.5
p383
aV0.83
p384
aV0.83
p385
aI01
aa(lp386
V2018-02-05 01:32
p387
aV206.5
p388
aV0.83
p389
aV0.83
p390
aI01
aa(lp391
V2018-02-05 01:31
p392
aV207.5
p393
aV0.83
p394
aV0.83
p395
aI01
aa(lp396
V2018-02-05 01:31
p397
aV206.5
p398
aV0.83
p399
aV0.83
p400
aI01
aa(lp401
V2018-02-05 01:28
p402
aV208.5
p403
aV0.83
p404
aV0.83
p405
aI01
aa(lp406
V2018-02-05 01:27
p407
aV207.5
p408
aV0.83
p409
aV0.83
p410
aI01
aa(lp411
V2018-02-05 01:27
p412
aV206.5
p413
aV0.83
p414
aV0.83
p415
aI01
aa(lp416
V2018-02-05 01:27
p417
aV207.5
p418
aV0.83
p419
aV0.83
p420
aI01
aa(lp421
V2018-02-05 01:26
p422
aV206.5
p423
aV0.83
p424
aV0.83
p425
aI01
aa(lp426
V2018-02-05 01:26
p427
aV207.5
p428
aV0.83
p429
aV0.83
p430
aI01
aa(lp431
V2018-02-05 01:26
p432
aV208.5
p433
aV0.83
p434
aV0.83
p435
aI01
aa(lp436
V2018-02-05 01:25
p437
aV207.5
p438
aV0.83
p439
aV0.83
p440
aI01
aa(lp441
V2018-02-05 01:24
p442
aV208.5
p443
aV0.83
p444
aV0.83
p445
aI01
aa(lp446
V2018-02-05 01:24
p447
aV207.5
p448
aV0.83
p449
aV0.83
p450
aI01
aa(lp451
V2018-02-05 01:24
p452
aV205.5
p453
aV0.83
p454
aV0.83
p455
aI01
aa(lp456
V2018-02-05 01:23
p457
aV207.5
p458
aV0.83
p459
aV0.83
p460
aI01
aa(lp461
V2018-02-05 01:23
p462
aV208.5
p463
aV0.83
p464
aV0.83
p465
aI01
aa(lp466
V2018-02-05 01:23
p467
aV209.5
p468
aV0.83
p469
aV0.83
p470
aI01
aa(lp471
V2018-02-05 01:22
p472
aV208.5
p473
aV0.83
p474
aV0.83
p475
aI01
aa(lp476
V2018-02-05 01:06
p477
aV208.5
p478
aV0.83
p479
aV0.83
p480
aI00
aa(lp481
V2018-02-05 00:12
p482
aV208.5
p483
aV0.93
p484
aV0.93
p485
aI00
aa(lp486
V2018-02-05 00:12
p487
aV208.5
p488
aV0.96
p489
aV0.90
p490
aI00
aa(lp491
V2018-02-04 23:34
p492
aV208.5
p493
aV0.93
p494
aV0.93
p495
aI00
aa(lp496
V2018-02-04 23:32
p497
aV208.5
p498
aV0.94
p499
aV0.92
p500
aI00
aa(lp501
V2018-02-04 20:18
p502
aV208.5
p503
aV0.92
p504
aV0.92
p505
aI00
aa(lp506
V2018-02-04 15:26
p507
aV208.5
p508
aV0.94
p509
aV0.90
p510
aI00
aa(lp511
V2018-02-04 15:25
p512
aV209.5
p513
aV1.04
p514
aV0.80
p515
aI00
aa(lp516
V2018-02-04 14:38
p517
aV208.5
p518
aV0.94
p519
aV0.90
p520
aI00
aa(lp521
V2018-02-04 11:48
p522
aV208.5
p523
aV0.92
p524
aV0.92
p525
aI00
aa(lp526
V2018-02-04 11:48
p527
aV207.5
p528
aV0.81
p529
aV1.03
p530
aI00
aa(lp531
V2018-02-04 11:37
p532
aV208.5
p533
aV0.92
p534
aV0.92
p535
aI00
aa(lp536
V2018-02-04 11:37
p537
aV207.5
p538
aV0.81
p539
aV1.03
p540
aI00
aa(lp541
V2018-02-04 10:55
p542
aV208.5
p543
aV0.92
p544
aV0.92
p545
aI00
aasS'sbo'
p546
(lp547
(lp548
V2018-02-05 02:56
p549
aV200.5
p550
aV1.00
p551
aV0.70
p552
aI01
aa(lp553
V2018-02-05 02:54
p554
aV201.5
p555
aV1.25
p556
aV0.50
p557
aI01
aa(lp558
V2018-02-05 02:53
p559
aV201.5
p560
aV0.85
p561
aV0.85
p562
aI01
aa(lp563
V2018-02-05 02:52
p564
aV200.5
p565
aV1.11
p566
aV0.60
p567
aI01
aa(lp568
V2018-02-05 02:51
p569
aV201.5
p570
aV1.25
p571
aV0.50
p572
aI01
aa(lp573
V2018-02-05 02:50
p574
aV201.5
p575
aV1.00
p576
aV0.70
p577
aI01
aa(lp578
V2018-02-05 02:49
p579
aV201.5
p580
aV1.25
p581
aV0.50
p582
aI01
aa(lp583
V2018-02-05 02:47
p584
aV200.5
p585
aV0.70
p586
aV1.00
p587
aI01
aa(lp588
V2018-02-05 02:45
p589
aV205.5
p590
aV1.11
p591
aV0.60
p592
aI01
aa(lp593
V2018-02-05 02:43
p594
aV206.5
p595
aV1.00
p596
aV0.70
p597
aI01
aa(lp598
V2018-02-05 02:42
p599
aV205.5
p600
aV0.75
p601
aV0.95
p602
aI01
aa(lp603
V2018-02-05 02:41
p604
aV206.5
p605
aV1.11
p606
aV0.60
p607
aI01
aa(lp608
V2018-02-05 02:40
p609
aV206.5
p610
aV0.90
p611
aV0.80
p612
aI01
aa(lp613
V2018-02-05 02:39
p614
aV205.5
p615
aV0.70
p616
aV1.00
p617
aI01
aa(lp618
V2018-02-05 02:38
p619
aV201.5
p620
aV0.85
p621
aV0.85
p622
aI01
aa(lp623
V2018-02-05 02:37
p624
aV201.5
p625
aV1.00
p626
aV0.70
p627
aI01
aa(lp628
V2018-02-05 02:36
p629
aV201.5
p630
aV0.80
p631
aV0.90
p632
aI01
aa(lp633
V2018-02-05 02:34
p634
aV203.5
p635
aV1.11
p636
aV0.60
p637
aI01
aa(lp638
V2018-02-05 02:33
p639
aV201.5
p640
aV0.80
p641
aV0.90
p642
aI01
aa(lp643
V2018-02-05 02:32
p644
aV201.5
p645
aV1.11
p646
aV0.60
p647
aI01
aa(lp648
V2018-02-05 02:30
p649
aV199.5
p650
aV0.90
p651
aV0.80
p652
aI01
aa(lp653
V2018-02-05 02:29
p654
aV199.5
p655
aV1.00
p656
aV0.70
p657
aI01
aa(lp658
V2018-02-05 02:28
p659
aV199.5
p660
aV1.11
p661
aV0.60
p662
aI01
aa(lp663
V2018-02-05 02:25
p664
aV200.5
p665
aV1.11
p666
aV0.60
p667
aI01
aa(lp668
V2018-02-05 02:22
p669
aV202.5
p670
aV1.11
p671
aV0.60
p672
aI01
aa(lp673
V2018-02-05 02:21
p674
aV202.5
p675
aV0.80
p676
aV0.90
p677
aI01
aa(lp678
V2018-02-05 02:20
p679
aV202.5
p680
aV1.00
p681
aV0.70
p682
aI01
aa(lp683
V2018-02-05 02:19
p684
aV201.5
p685
aV0.85
p686
aV0.85
p687
aI01
aa(lp688
V2018-02-05 02:13
p689
aV201.5
p690
aV0.92
p691
aV0.94
p692
aI01
aa(lp693
V2018-02-05 02:12
p694
aV201.5
p695
aV0.90
p696
aV0.96
p697
aI01
aa(lp698
V2018-02-05 02:06
p699
aV201.5
p700
aV0.93
p701
aV0.93
p702
aI01
aa(lp703
V2018-02-05 01:58
p704
aV204.5
p705
aV1.11
p706
aV0.60
p707
aI01
aa(lp708
V2018-02-05 01:57
p709
aV204.5
p710
aV1.00
p711
aV0.70
p712
aI01
aa(lp713
V2018-02-05 01:56
p714
aV205.5
p715
aV1.00
p716
aV0.70
p717
aI01
aa(lp718
V2018-02-05 01:53
p719
aV206.5
p720
aV1.05
p721
aV0.65
p722
aI01
aa(lp723
V2018-02-05 01:52
p724
aV205.5
p725
aV0.80
p726
aV0.90
p727
aI01
aa(lp728
V2018-02-05 01:50
p729
aV205.5
p730
aV1.11
p731
aV0.60
p732
aI01
aa(lp733
V2018-02-05 01:49
p734
aV205.5
p735
aV1.00
p736
aV0.70
p737
aI01
aa(lp738
V2018-02-05 01:48
p739
aV205.5
p740
aV0.70
p741
aV1.00
p742
aI01
aa(lp743
V2018-02-05 01:47
p744
aV205.5
p745
aV1.11
p746
aV0.60
p747
aI01
aa(lp748
V2018-02-05 01:46
p749
aV205.5
p750
aV0.80
p751
aV0.90
p752
aI01
aa(lp753
V2018-02-05 01:45
p754
aV205.5
p755
aV0.90
p756
aV0.80
p757
aI01
aa(lp758
V2018-02-05 01:44
p759
aV205.5
p760
aV1.11
p761
aV0.60
p762
aI01
aa(lp763
V2018-02-05 01:43
p764
aV205.5
p765
aV0.95
p766
aV0.75
p767
aI01
aa(lp768
V2018-02-05 01:39
p769
aV204.5
p770
aV0.70
p771
aV1.00
p772
aI01
aa(lp773
V2018-02-05 01:37
p774
aV205.5
p775
aV0.80
p776
aV0.90
p777
aI01
aa(lp778
V2018-02-05 01:34
p779
aV204.5
p780
aV0.80
p781
aV0.90
p782
aI01
aa(lp783
V2018-02-05 01:31
p784
aV208.5
p785
aV1.00
p786
aV0.70
p787
aI01
aa(lp788
V2018-02-05 01:26
p789
aV208.5
p790
aV0.70
p791
aV1.00
p792
aI01
aa(lp793
V2018-02-05 01:25
p794
aV208.5
p795
aV1.00
p796
aV0.70
p797
aI01
aa(lp798
V2018-02-05 01:24
p799
aV208.5
p800
aV0.80
p801
aV0.90
p802
aI01
aa(lp803
V2018-02-05 01:23
p804
aV208.5
p805
aV0.60
p806
aV1.11
p807
aI01
aa(lp808
V2018-02-05 01:22
p809
aV208.5
p810
aV0.80
p811
aV0.90
p812
aI01
aa(lp813
V2018-02-05 01:21
p814
aV210.5
p815
aV0.90
p816
aV0.80
p817
aI01
aa(lp818
V2018-02-05 01:20
p819
aV210.5
p820
aV0.70
p821
aV1.00
p822
aI01
aa(lp823
V2018-02-05 01:18
p824
aV209.5
p825
aV0.60
p826
aV1.11
p827
aI01
aa(lp828
V2018-02-05 01:17
p829
aV209.5
p830
aV0.65
p831
aV1.05
p832
aI01
aa(lp833
V2018-02-05 01:17
p834
aV210.5
p835
aV0.70
p836
aV1.00
p837
aI01
aa(lp838
V2018-02-05 01:16
p839
aV210.5
p840
aV0.85
p841
aV0.85
p842
aI01
aa(lp843
V2018-02-05 01:15
p844
aV210.5
p845
aV0.90
p846
aV0.80
p847
aI01
aa(lp848
V2018-02-05 01:14
p849
aV210.5
p850
aV0.80
p851
aV0.90
p852
aI01
aa(lp853
V2018-02-05 01:13
p854
aV210.5
p855
aV0.75
p856
aV0.95
p857
aI01
aa(lp858
V2018-02-05 01:12
p859
aV208.5
p860
aV0.85
p861
aV0.85
p862
aI01
aa(lp863
V2018-02-05 01:07
p864
aV208.5
p865
aV0.80
p866
aV0.90
p867
aI00
aa(lp868
V2018-02-05 01:00
p869
aV208.5
p870
aV0.75
p871
aV0.95
p872
aI00
aa(lp873
V2018-02-05 00:58
p874
aV208
p875
aV0.80
p876
aV1.08
p877
aI00
aa(lp878
V2018-02-05 00:54
p879
aV208
p880
aV0.82
p881
aV1.06
p882
aI00
aa(lp883
V2018-02-05 00:41
p884
aV208
p885
aV0.87
p886
aV1.01
p887
aI00
aa(lp888
V2018-02-05 00:28
p889
aV208
p890
aV0.90
p891
aV0.98
p892
aI00
aa(lp893
V2018-02-05 00:15
p894
aV208
p895
aV0.88
p896
aV1.00
p897
aI00
aa(lp898
V2018-02-05 00:10
p899
aV208
p900
aV0.95
p901
aV0.93
p902
aI00
aa(lp903
V2018-02-04 23:00
p904
aV208
p905
aV0.94
p906
aV0.94
p907
aI00
aa(lp908
V2018-02-04 15:11
p909
aV208
p910
aV0.92
p911
aV0.96
p912
aI00
aa(lp913
V2018-02-04 14:28
p914
aV208
p915
aV0.88
p916
aV1.00
p917
aI00
aa(lp918
V2018-02-04 10:31
p919
aV208
p920
aV0.90
p921
aV0.98
p922
aI00
aa(lp923
V2018-02-04 06:14
p924
aV208.5
p925
aV0.93
p926
aV0.93
p927
aI00
aasS'wade'
p928
(lp929
(lp930
V2018-02-05 00:58
p931
aV209.5
p932
aV0.90
p933
aV0.80
p934
aI00
aa(lp935
V2018-02-05 00:56
p936
aV206.5
p937
aV0.70
p938
aV1.05
p939
aI00
aa(lp940
V2018-02-05 00:54
p941
aV206.5
p942
aV0.70
p943
aV1.00
p944
aI00
aa(lp945
V2018-02-05 00:52
p946
aV210.5
p947
aV1.05
p948
aV0.70
p949
aI00
aa(lp950
V2018-02-05 00:50
p951
aV206.5
p952
aV0.70
p953
aV1.00
p954
aI00
aa(lp955
V2018-02-05 00:48
p956
aV210.5
p957
aV1.05
p958
aV0.70
p959
aI00
aa(lp960
V2018-02-05 00:14
p961
aV208.5
p962
aV0.90
p963
aV0.90
p964
aI00
aa(lp965
V2018-02-04 11:25
p966
aV208
p967
aV0.90
p968
aV0.90
p969
aI00
aa(lp970
V2018-02-04 06:13
p971
aV208.5
p972
aV0.90
p973
aV0.90
p974
aI00
aa(lp975
V2018-02-04 05:22
p976
aV208
p977
aV0.90
p978
aV0.90
p979
aI00
aasS'game_id'
p980
V290529
p981
sS'bet365'
p982
(lp983
(lp984
V2018-02-05 02:59
p985
aV197.5
p986
aV0.86
p987
aV0.86
p988
aI01
aa(lp989
V2018-02-05 02:59
p990
aV196.5
p991
aV1.00
p992
aV0.76
p993
aI01
aa(lp994
V2018-02-05 02:58
p995
aV197.5
p996
aV0.95
p997
aV0.80
p998
aI01
aa(lp999
V2018-02-05 02:56
p1000
aV199.5
p1001
aV0.86
p1002
aV0.86
p1003
aI01
aa(lp1004
V2018-02-05 02:56
p1005
aV199.5
p1006
aV0.80
p1007
aV0.95
p1008
aI01
aa(lp1009
V2018-02-05 02:55
p1010
aV200.5
p1011
aV1.00
p1012
aV0.76
p1013
aI01
aa(lp1014
V2018-02-05 02:55
p1015
aV200.5
p1016
aV0.90
p1017
aV0.83
p1018
aI01
aa(lp1019
V2018-02-05 02:54
p1020
aV199.5
p1021
aV0.83
p1022
aV0.90
p1023
aI01
aa(lp1024
V2018-02-05 02:54
p1025
aV201.5
p1026
aV0.83
p1027
aV0.90
p1028
aI01
aa(lp1029
V2018-02-05 02:53
p1030
aV201.5
p1031
aV0.86
p1032
aV0.86
p1033
aI01
aa(lp1034
V2018-02-05 02:53
p1035
aV200.5
p1036
aV0.86
p1037
aV0.86
p1038
aI01
aa(lp1039
V2018-02-05 02:52
p1040
aV200.5
p1041
aV0.83
p1042
aV0.90
p1043
aI01
aa(lp1044
V2018-02-05 02:52
p1045
aV200.5
p1046
aV0.90
p1047
aV0.83
p1048
aI01
aa(lp1049
V2018-02-05 02:52
p1050
aV198.5
p1051
aV0.86
p1052
aV0.86
p1053
aI01
aa(lp1054
V2018-02-05 02:51
p1055
aV199.5
p1056
aV0.86
p1057
aV0.86
p1058
aI01
aa(lp1059
V2018-02-05 02:51
p1060
aV201.5
p1061
aV0.86
p1062
aV0.86
p1063
aI01
aa(lp1064
V2018-02-05 02:48
p1065
aV200.5
p1066
aV0.90
p1067
aV0.83
p1068
aI01
aa(lp1069
V2018-02-05 02:47
p1070
aV201.5
p1071
aV0.80
p1072
aV0.95
p1073
aI01
aa(lp1074
V2018-02-05 02:44
p1075
aV205.5
p1076
aV0.86
p1077
aV0.86
p1078
aI01
aa(lp1079
V2018-02-05 02:43
p1080
aV206.5
p1081
aV0.86
p1082
aV0.86
p1083
aI01
aa(lp1084
V2018-02-05 02:43
p1085
aV206.5
p1086
aV0.83
p1087
aV0.90
p1088
aI01
aa(lp1089
V2018-02-05 02:39
p1090
aV205.5
p1091
aV0.80
p1092
aV0.95
p1093
aI01
aa(lp1094
V2018-02-05 02:38
p1095
aV204.5
p1096
aV0.86
p1097
aV0.86
p1098
aI01
aa(lp1099
V2018-02-05 02:38
p1100
aV202.5
p1101
aV0.90
p1102
aV0.83
p1103
aI01
aa(lp1104
V2018-02-05 02:37
p1105
aV202.5
p1106
aV0.95
p1107
aV0.80
p1108
aI01
aa(lp1109
V2018-02-05 02:36
p1110
aV201.5
p1111
aV0.86
p1112
aV0.86
p1113
aI01
aa(lp1114
V2018-02-05 02:34
p1115
aV202.5
p1116
aV0.90
p1117
aV0.83
p1118
aI01
aa(lp1119
V2018-02-05 02:33
p1120
aV203.5
p1121
aV0.86
p1122
aV0.86
p1123
aI01
aa(lp1124
V2018-02-05 02:32
p1125
aV201.5
p1126
aV0.86
p1127
aV0.86
p1128
aI01
aa(lp1129
V2018-02-05 02:32
p1130
aV199.5
p1131
aV0.86
p1132
aV0.86
p1133
aI01
aa(lp1134
V2018-02-05 02:31
p1135
aV200.5
p1136
aV0.90
p1137
aV0.83
p1138
aI01
aa(lp1139
V2018-02-05 02:30
p1140
aV198.5
p1141
aV0.90
p1142
aV0.83
p1143
aI01
aa(lp1144
V2018-02-05 02:30
p1145
aV199.5
p1146
aV0.86
p1147
aV0.86
p1148
aI01
aa(lp1149
V2018-02-05 02:26
p1150
aV199.5
p1151
aV0.90
p1152
aV0.83
p1153
aI01
aa(lp1154
V2018-02-05 02:26
p1155
aV198.5
p1156
aV0.83
p1157
aV0.90
p1158
aI01
aa(lp1159
V2018-02-05 02:25
p1160
aV198.5
p1161
aV0.86
p1162
aV0.86
p1163
aI01
aa(lp1164
V2018-02-05 02:23
p1165
aV197.5
p1166
aV0.86
p1167
aV0.86
p1168
aI01
aa(lp1169
V2018-02-05 02:22
p1170
aV199.5
p1171
aV0.86
p1172
aV0.86
p1173
aI01
aa(lp1174
V2018-02-05 02:22
p1175
aV201.5
p1176
aV0.90
p1177
aV0.83
p1178
aI01
aa(lp1179
V2018-02-05 02:21
p1180
aV202.5
p1181
aV0.86
p1182
aV0.86
p1183
aI01
aa(lp1184
V2018-02-05 02:20
p1185
aV200.5
p1186
aV0.86
p1187
aV0.86
p1188
aI01
aa(lp1189
V2018-02-05 02:05
p1190
aV201.5
p1191
aV0.86
p1192
aV0.86
p1193
aI01
aa(lp1194
V2018-02-05 02:04
p1195
aV201.5
p1196
aV0.90
p1197
aV0.83
p1198
aI01
aa(lp1199
V2018-02-05 01:58
p1200
aV201.5
p1201
aV0.86
p1202
aV0.86
p1203
aI01
aa(lp1204
V2018-02-05 01:57
p1205
aV203.5
p1206
aV0.86
p1207
aV0.86
p1208
aI01
aa(lp1209
V2018-02-05 01:56
p1210
aV202.5
p1211
aV0.86
p1212
aV0.86
p1213
aI01
aa(lp1214
V2018-02-05 01:55
p1215
aV203.5
p1216
aV0.86
p1217
aV0.86
p1218
aI01
aa(lp1219
V2018-02-05 01:53
p1220
aV205.5
p1221
aV0.86
p1222
aV0.86
p1223
aI01
aa(lp1224
V2018-02-05 01:52
p1225
aV206.5
p1226
aV0.86
p1227
aV0.86
p1228
aI01
aa(lp1229
V2018-02-05 01:52
p1230
aV204.5
p1231
aV0.83
p1232
aV0.90
p1233
aI01
aa(lp1234
V2018-02-05 01:50
p1235
aV204.5
p1236
aV0.86
p1237
aV0.86
p1238
aI01
aa(lp1239
V2018-02-05 01:49
p1240
aV204.5
p1241
aV0.83
p1242
aV0.90
p1243
aI01
aa(lp1244
V2018-02-05 01:49
p1245
aV204.5
p1246
aV0.86
p1247
aV0.86
p1248
aI01
aa(lp1249
V2018-02-05 01:48
p1250
aV205.5
p1251
aV0.83
p1252
aV0.90
p1253
aI01
aa(lp1254
V2018-02-05 01:47
p1255
aV206.5
p1256
aV0.90
p1257
aV0.83
p1258
aI01
aa(lp1259
V2018-02-05 01:47
p1260
aV202.5
p1261
aV0.86
p1262
aV0.86
p1263
aI01
aa(lp1264
V2018-02-05 01:46
p1265
aV205.5
p1266
aV0.90
p1267
aV0.83
p1268
aI01
aa(lp1269
V2018-02-05 01:46
p1270
aV205.5
p1271
aV0.86
p1272
aV0.86
p1273
aI01
aa(lp1274
V2018-02-05 01:45
p1275
aV206.5
p1276
aV0.86
p1277
aV0.86
p1278
aI01
aa(lp1279
V2018-02-05 01:43
p1280
aV204.5
p1281
aV0.90
p1282
aV0.83
p1283
aI01
aa(lp1284
V2018-02-05 01:43
p1285
aV203.5
p1286
aV0.83
p1287
aV0.90
p1288
aI01
aa(lp1289
V2018-02-05 01:42
p1290
aV202.5
p1291
aV0.86
p1292
aV0.86
p1293
aI01
aa(lp1294
V2018-02-05 01:41
p1295
aV204.5
p1296
aV0.86
p1297
aV0.86
p1298
aI01
aa(lp1299
V2018-02-05 01:40
p1300
aV205.5
p1301
aV0.90
p1302
aV0.83
p1303
aI01
aa(lp1304
V2018-02-05 01:39
p1305
aV205.5
p1306
aV0.86
p1307
aV0.86
p1308
aI01
aa(lp1309
V2018-02-05 01:35
p1310
aV204.5
p1311
aV0.86
p1312
aV0.86
p1313
aI01
aa(lp1314
V2018-02-05 01:34
p1315
aV203.5
p1316
aV0.83
p1317
aV0.90
p1318
aI01
aa(lp1319
V2018-02-05 01:33
p1320
aV202.5
p1321
aV0.83
p1322
aV0.90
p1323
aI01
aa(lp1324
V2018-02-05 01:32
p1325
aV206.5
p1326
aV0.90
p1327
aV0.83
p1328
aI01
aa(lp1329
V2018-02-05 01:32
p1330
aV205.5
p1331
aV0.86
p1332
aV0.86
p1333
aI01
aa(lp1334
V2018-02-05 01:31
p1335
aV207.5
p1336
aV0.90
p1337
aV0.83
p1338
aI01
aa(lp1339
V2018-02-05 01:31
p1340
aV205.5
p1341
aV0.86
p1342
aV0.86
p1343
aI01
aa(lp1344
V2018-02-05 01:30
p1345
aV207.5
p1346
aV0.86
p1347
aV0.86
p1348
aI01
aa(lp1349
V2018-02-05 01:28
p1350
aV208.5
p1351
aV0.86
p1352
aV0.86
p1353
aI01
aa(lp1354
V2018-02-05 01:28
p1355
aV208.5
p1356
aV0.90
p1357
aV0.83
p1358
aI01
aa(lp1359
V2018-02-05 01:26
p1360
aV207.5
p1361
aV0.86
p1362
aV0.86
p1363
aI01
aa(lp1364
V2018-02-05 01:26
p1365
aV208.5
p1366
aV0.83
p1367
aV0.90
p1368
aI01
aa(lp1369
V2018-02-05 01:25
p1370
aV205.5
p1371
aV0.90
p1372
aV0.83
p1373
aI01
aa(lp1374
V2018-02-05 01:25
p1375
aV206.5
p1376
aV0.86
p1377
aV0.86
p1378
aI01
aa(lp1379
V2018-02-05 01:24
p1380
aV207.5
p1381
aV0.90
p1382
aV0.83
p1383
aI01
aa(lp1384
V2018-02-05 01:23
p1385
aV208.5
p1386
aV0.90
p1387
aV0.83
p1388
aI01
aa(lp1389
V2018-02-05 01:23
p1390
aV209.5
p1391
aV0.83
p1392
aV0.90
p1393
aI01
aa(lp1394
V2018-02-05 01:22
p1395
aV209.5
p1396
aV0.86
p1397
aV0.86
p1398
aI01
aa(lp1399
V2018-02-05 01:21
p1400
aV208.5
p1401
aV0.86
p1402
aV0.86
p1403
aI01
aa(lp1404
V2018-02-05 01:18
p1405
aV209.5
p1406
aV0.83
p1407
aV0.90
p1408
aI01
aa(lp1409
V2018-02-05 01:16
p1410
aV209.5
p1411
aV0.86
p1412
aV0.86
p1413
aI01
aa(lp1414
V2018-02-05 01:15
p1415
aV210.5
p1416
aV0.90
p1417
aV0.83
p1418
aI01
aa(lp1419
V2018-02-05 01:14
p1420
aV209.5
p1421
aV0.86
p1422
aV0.86
p1423
aI01
aa(lp1424
V2018-02-05 01:14
p1425
aV211.5
p1426
aV0.90
p1427
aV0.83
p1428
aI01
aa(lp1429
V2018-02-05 01:12
p1430
aV209.5
p1431
aV0.83
p1432
aV0.90
p1433
aI01
aa(lp1434
V2018-02-05 01:12
p1435
aV208.5
p1436
aV0.86
p1437
aV0.86
p1438
aI01
aa(lp1439
V2018-02-05 01:11
p1440
aV209.5
p1441
aV0.86
p1442
aV0.86
p1443
aI01
aa(lp1444
V2018-02-05 01:10
p1445
aV207.5
p1446
aV0.86
p1447
aV0.86
p1448
aI01
aa(lp1449
V2018-02-05 01:05
p1450
aV208
p1451
aV0.90
p1452
aV0.90
p1453
aI00
aa(lp1454
V2018-02-05 01:03
p1455
aV208.5
p1456
aV0.90
p1457
aV0.90
p1458
aI00
aa(lp1459
V2018-02-05 00:59
p1460
aV209.5
p1461
aV0.90
p1462
aV0.90
p1463
aI00
aa(lp1464
V2018-02-05 00:54
p1465
aV209
p1466
aV0.90
p1467
aV0.90
p1468
aI00
aa(lp1469
V2018-02-05 00:16
p1470
aV208.5
p1471
aV0.90
p1472
aV0.90
p1473
aI00
aa(lp1474
V2018-02-04 10:02
p1475
aV208
p1476
aV0.90
p1477
aV0.90
p1478
aI00
aassb.