ccopy_reg
_reconstructor
p0
(cmy_oddsportal.items
WinOverUnderItem
p1
c__builtin__
object
p2
Ntp3
Rp4
(dp5
S'_values'
p6
(dp7
S'ysb8'
p8
(lp9
(lp10
V2018-02-05 00:58
p11
aV207
p12
aV0.95
p13
aV0.95
p14
aI00
aa(lp15
V2018-02-05 00:57
p16
aV207.5
p17
aV0.95
p18
aV0.95
p19
aI00
aa(lp20
V2018-02-05 00:40
p21
aV208
p22
aV0.95
p23
aV0.95
p24
aI00
aa(lp25
V2018-02-05 00:32
p26
aV207.5
p27
aV0.95
p28
aV0.95
p29
aI00
aa(lp30
V2018-02-04 22:37
p31
aV208
p32
aV0.95
p33
aV0.95
p34
aI00
aa(lp35
V2018-02-04 20:40
p36
aV208.5
p37
aV0.95
p38
aV0.95
p39
aI00
aa(lp40
V2018-02-04 13:34
p41
aV209
p42
aV0.95
p43
aV0.95
p44
aI00
aasS'macau'
p45
(lp46
(lp47
V2018-02-05 01:01
p48
aV208.5
p49
aV1.00
p50
aV0.66
p51
aI00
aa(lp52
V2018-02-05 01:00
p53
aV208.5
p54
aV0.810
p55
aV0.85
p56
aI00
aa(lp57
V2018-02-04 13:17
p58
aV208.5
p59
aV0.85
p60
aV0.85
p61
aI00
aasS'title'
p62
V\u000a                \u5e03\u9b6f\u514b\u6797\u7c43\u7db2\u000a                vs\u000a                \u5bc6\u723e\u6c83\u57fa\u516c\u9e7f\u000a            
p63
sS'crown'
p64
(lp65
(lp66
V2018-02-05 02:59
p67
aV206.5
p68
aV0.83
p69
aV0.83
p70
aI01
aa(lp71
V2018-02-05 02:56
p72
aV207.5
p73
aV0.83
p74
aV0.83
p75
aI01
aa(lp76
V2018-02-05 02:55
p77
aV208.5
p78
aV0.83
p79
aV0.83
p80
aI01
aa(lp81
V2018-02-05 02:54
p82
aV206.5
p83
aV0.83
p84
aV0.83
p85
aI01
aa(lp86
V2018-02-05 02:54
p87
aV204.5
p88
aV0.83
p89
aV0.83
p90
aI01
aa(lp91
V2018-02-05 02:53
p92
aV203.5
p93
aV0.83
p94
aV0.83
p95
aI01
aa(lp96
V2018-02-05 02:53
p97
aV205.5
p98
aV0.83
p99
aV0.83
p100
aI01
aa(lp101
V2018-02-05 02:53
p102
aV203.5
p103
aV0.83
p104
aV0.83
p105
aI01
aa(lp106
V2018-02-05 02:51
p107
aV205.5
p108
aV0.83
p109
aV0.83
p110
aI01
aa(lp111
V2018-02-05 02:50
p112
aV207.5
p113
aV0.83
p114
aV0.83
p115
aI01
aa(lp116
V2018-02-05 02:50
p117
aV208.5
p118
aV0.83
p119
aV0.83
p120
aI01
aa(lp121
V2018-02-05 02:45
p122
aV205.5
p123
aV0.83
p124
aV0.83
p125
aI01
aa(lp126
V2018-02-05 02:43
p127
aV207.5
p128
aV0.83
p129
aV0.83
p130
aI01
aa(lp131
V2018-02-05 02:41
p132
aV209.5
p133
aV0.83
p134
aV0.83
p135
aI01
aa(lp136
V2018-02-05 02:41
p137
aV207.5
p138
aV0.83
p139
aV0.83
p140
aI01
aa(lp141
V2018-02-05 02:40
p142
aV208.5
p143
aV0.83
p144
aV0.83
p145
aI01
aa(lp146
V2018-02-05 02:40
p147
aV207.5
p148
aV0.83
p149
aV0.83
p150
aI01
aa(lp151
V2018-02-05 02:38
p152
aV205.5
p153
aV0.83
p154
aV0.83
p155
aI01
aa(lp156
V2018-02-05 02:10
p157
aV205.5
p158
aV0.96
p159
aV0.70
p160
aI01
aa(lp161
V2018-02-05 02:07
p162
aV205.5
p163
aV0.90
p164
aV0.76
p165
aI01
aa(lp166
V2018-02-05 02:04
p167
aV205.5
p168
aV0.83
p169
aV0.83
p170
aI01
aa(lp171
V2018-02-05 02:00
p172
aV209.5
p173
aV0.83
p174
aV0.83
p175
aI01
aa(lp176
V2018-02-05 02:00
p177
aV207.5
p178
aV0.83
p179
aV0.83
p180
aI01
aa(lp181
V2018-02-05 01:59
p182
aV209.5
p183
aV0.83
p184
aV0.83
p185
aI01
aa(lp186
V2018-02-05 01:56
p187
aV207.5
p188
aV0.83
p189
aV0.83
p190
aI01
aa(lp191
V2018-02-05 01:55
p192
aV208.5
p193
aV0.83
p194
aV0.83
p195
aI01
aa(lp196
V2018-02-05 01:55
p197
aV206.5
p198
aV0.83
p199
aV0.83
p200
aI01
aa(lp201
V2018-02-05 01:55
p202
aV208.5
p203
aV0.83
p204
aV0.83
p205
aI01
aa(lp206
V2018-02-05 01:54
p207
aV207.5
p208
aV0.83
p209
aV0.83
p210
aI01
aa(lp211
V2018-02-05 01:54
p212
aV208.5
p213
aV0.83
p214
aV0.83
p215
aI01
aa(lp216
V2018-02-05 01:54
p217
aV209.5
p218
aV0.83
p219
aV0.83
p220
aI01
aa(lp221
V2018-02-05 01:53
p222
aV208.5
p223
aV0.83
p224
aV0.83
p225
aI01
aa(lp226
V2018-02-05 01:53
p227
aV206.5
p228
aV0.83
p229
aV0.83
p230
aI01
aa(lp231
V2018-02-05 01:53
p232
aV207.5
p233
aV0.83
p234
aV0.83
p235
aI01
aa(lp236
V2018-02-05 01:52
p237
aV205.5
p238
aV0.83
p239
aV0.83
p240
aI01
aa(lp241
V2018-02-05 01:51
p242
aV206.5
p243
aV0.83
p244
aV0.83
p245
aI01
aa(lp246
V2018-02-05 01:51
p247
aV204.5
p248
aV0.83
p249
aV0.83
p250
aI01
aa(lp251
V2018-02-05 01:47
p252
aV203.5
p253
aV0.83
p254
aV0.83
p255
aI01
aa(lp256
V2018-02-05 01:47
p257
aV202.5
p258
aV0.83
p259
aV0.83
p260
aI01
aa(lp261
V2018-02-05 01:46
p262
aV204.5
p263
aV0.83
p264
aV0.83
p265
aI01
aa(lp266
V2018-02-05 01:46
p267
aV205.5
p268
aV0.83
p269
aV0.83
p270
aI01
aa(lp271
V2018-02-05 01:46
p272
aV207.5
p273
aV0.83
p274
aV0.83
p275
aI01
aa(lp276
V2018-02-05 01:45
p277
aV208.5
p278
aV0.83
p279
aV0.83
p280
aI01
aa(lp281
V2018-02-05 01:45
p282
aV209.5
p283
aV0.83
p284
aV0.83
p285
aI01
aa(lp286
V2018-02-05 01:45
p287
aV207.5
p288
aV0.83
p289
aV0.83
p290
aI01
aa(lp291
V2018-02-05 01:44
p292
aV209.5
p293
aV0.83
p294
aV0.83
p295
aI01
aa(lp296
V2018-02-05 01:43
p297
aV210.5
p298
aV0.83
p299
aV0.83
p300
aI01
aa(lp301
V2018-02-05 01:43
p302
aV208.5
p303
aV0.83
p304
aV0.83
p305
aI01
aa(lp306
V2018-02-05 01:42
p307
aV212.5
p308
aV0.83
p309
aV0.83
p310
aI01
aa(lp311
V2018-02-05 01:38
p312
aV213.5
p313
aV0.83
p314
aV0.83
p315
aI01
aa(lp316
V2018-02-05 01:37
p317
aV215.5
p318
aV0.83
p319
aV0.83
p320
aI01
aa(lp321
V2018-02-05 01:36
p322
aV214.5
p323
aV0.83
p324
aV0.83
p325
aI01
aa(lp326
V2018-02-05 01:36
p327
aV213.5
p328
aV0.83
p329
aV0.83
p330
aI01
aa(lp331
V2018-02-05 01:36
p332
aV214.5
p333
aV0.83
p334
aV0.83
p335
aI01
aa(lp336
V2018-02-05 01:35
p337
aV214.5
p338
aV0.83
p339
aV0.83
p340
aI01
aa(lp341
V2018-02-05 01:35
p342
aV216.5
p343
aV0.83
p344
aV0.83
p345
aI01
aa(lp346
V2018-02-05 01:34
p347
aV216.5
p348
aV0.83
p349
aV0.83
p350
aI01
aa(lp351
V2018-02-05 01:34
p352
aV218.5
p353
aV0.83
p354
aV0.83
p355
aI01
aa(lp356
V2018-02-05 01:34
p357
aV216.5
p358
aV0.83
p359
aV0.83
p360
aI01
aa(lp361
V2018-02-05 01:33
p362
aV214.5
p363
aV0.83
p364
aV0.83
p365
aI01
aa(lp366
V2018-02-05 01:30
p367
aV217.5
p368
aV0.83
p369
aV0.83
p370
aI01
aa(lp371
V2018-02-05 01:30
p372
aV216.5
p373
aV0.83
p374
aV0.83
p375
aI01
aa(lp376
V2018-02-05 01:29
p377
aV213.5
p378
aV0.83
p379
aV0.83
p380
aI01
aa(lp381
V2018-02-05 01:29
p382
aV215.5
p383
aV0.83
p384
aV0.83
p385
aI01
aa(lp386
V2018-02-05 01:27
p387
aV214.5
p388
aV0.83
p389
aV0.83
p390
aI01
aa(lp391
V2018-02-05 01:26
p392
aV212.5
p393
aV0.83
p394
aV0.83
p395
aI01
aa(lp396
V2018-02-05 01:26
p397
aV214.5
p398
aV0.83
p399
aV0.83
p400
aI01
aa(lp401
V2018-02-05 01:26
p402
aV213.5
p403
aV0.83
p404
aV0.83
p405
aI01
aa(lp406
V2018-02-05 01:24
p407
aV210.5
p408
aV0.83
p409
aV0.83
p410
aI01
aa(lp411
V2018-02-05 01:24
p412
aV211.5
p413
aV0.83
p414
aV0.83
p415
aI01
aa(lp416
V2018-02-05 01:23
p417
aV209.5
p418
aV0.83
p419
aV0.83
p420
aI01
aa(lp421
V2018-02-05 01:23
p422
aV208.5
p423
aV0.83
p424
aV0.83
p425
aI01
aa(lp426
V2018-02-05 01:22
p427
aV207.5
p428
aV0.83
p429
aV0.83
p430
aI01
aa(lp431
V2018-02-05 01:13
p432
aV206.5
p433
aV0.83
p434
aV0.83
p435
aI01
aa(lp436
V2018-02-05 01:05
p437
aV207.5
p438
aV0.83
p439
aV0.83
p440
aI00
aa(lp441
V2018-02-05 01:00
p442
aV208.5
p443
aV0.94
p444
aV0.72
p445
aI00
aa(lp446
V2018-02-05 00:25
p447
aV208.5
p448
aV1.04
p449
aV0.82
p450
aI00
aa(lp451
V2018-02-05 00:09
p452
aV208.5
p453
aV1.01
p454
aV0.85
p455
aI00
aa(lp456
V2018-02-04 23:34
p457
aV208.5
p458
aV0.96
p459
aV0.90
p460
aI00
aa(lp461
V2018-02-04 23:31
p462
aV208.5
p463
aV0.94
p464
aV0.92
p465
aI00
aa(lp466
V2018-02-04 15:28
p467
aV208.5
p468
aV0.92
p469
aV0.92
p470
aI00
aa(lp471
V2018-02-04 10:53
p472
aV208.5
p473
aV0.90
p474
aV0.94
p475
aI00
aasS'sbo'
p476
(lp477
(lp478
V2018-02-05 03:00
p479
aV206.5
p480
aV0.65
p481
aV1.05
p482
aI01
aa(lp483
V2018-02-05 02:57
p484
aV206.5
p485
aV0.60
p486
aV1.11
p487
aI01
aa(lp488
V2018-02-05 02:56
p489
aV206.5
p490
aV0.40
p491
aV1.42
p492
aI01
aa(lp493
V2018-02-05 02:55
p494
aV206.5
p495
aV0.60
p496
aV1.11
p497
aI01
aa(lp498
V2018-02-05 02:54
p499
aV206.5
p500
aV0.90
p501
aV0.80
p502
aI01
aa(lp503
V2018-02-05 02:52
p504
aV206.5
p505
aV0.70
p506
aV1.00
p507
aI01
aa(lp508
V2018-02-05 02:50
p509
aV206.5
p510
aV0.60
p511
aV1.11
p512
aI01
aa(lp513
V2018-02-05 02:49
p514
aV206.5
p515
aV0.50
p516
aV1.25
p517
aI01
aa(lp518
V2018-02-05 02:47
p519
aV206.5
p520
aV0.85
p521
aV0.85
p522
aI01
aa(lp523
V2018-02-05 02:44
p524
aV208.5
p525
aV0.80
p526
aV0.90
p527
aI01
aa(lp528
V2018-02-05 02:43
p529
aV208.5
p530
aV0.65
p531
aV1.05
p532
aI01
aa(lp533
V2018-02-05 02:40
p534
aV205.5
p535
aV0.50
p536
aV1.25
p537
aI01
aa(lp538
V2018-02-05 02:38
p539
aV205.5
p540
aV0.75
p541
aV0.95
p542
aI01
aa(lp543
V2018-02-05 02:36
p544
aV205.5
p545
aV0.65
p546
aV1.05
p547
aI01
aa(lp548
V2018-02-05 02:35
p549
aV205.5
p550
aV0.80
p551
aV0.90
p552
aI01
aa(lp553
V2018-02-05 02:34
p554
aV200.5
p555
aV0.60
p556
aV1.11
p557
aI01
aa(lp558
V2018-02-05 02:33
p559
aV200.5
p560
aV0.65
p561
aV1.05
p562
aI01
aa(lp563
V2018-02-05 02:32
p564
aV200.5
p565
aV0.60
p566
aV1.11
p567
aI01
aa(lp568
V2018-02-05 02:31
p569
aV200.5
p570
aV0.70
p571
aV1.00
p572
aI01
aa(lp573
V2018-02-05 02:29
p574
aV200.5
p575
aV0.90
p576
aV0.80
p577
aI01
aa(lp578
V2018-02-05 02:28
p579
aV200.5
p580
aV0.70
p581
aV1.00
p582
aI01
aa(lp583
V2018-02-05 02:26
p584
aV200.5
p585
aV0.75
p586
aV0.95
p587
aI01
aa(lp588
V2018-02-05 02:25
p589
aV200.5
p590
aV0.95
p591
aV0.75
p592
aI01
aa(lp593
V2018-02-05 02:24
p594
aV200.5
p595
aV0.75
p596
aV0.95
p597
aI01
aa(lp598
V2018-02-05 02:22
p599
aV200.5
p600
aV1.00
p601
aV0.70
p602
aI01
aa(lp603
V2018-02-05 02:21
p604
aV200.5
p605
aV1.05
p606
aV0.65
p607
aI01
aa(lp608
V2018-02-05 02:20
p609
aV203.5
p610
aV0.95
p611
aV0.75
p612
aI01
aa(lp613
V2018-02-05 02:19
p614
aV205.5
p615
aV1.25
p616
aV0.50
p617
aI01
aa(lp618
V2018-02-05 02:18
p619
aV205.5
p620
aV1.11
p621
aV0.60
p622
aI01
aa(lp623
V2018-02-05 02:15
p624
aV205.5
p625
aV0.85
p626
aV0.85
p627
aI01
aa(lp628
V2018-02-05 02:12
p629
aV205.5
p630
aV1.02
p631
aV0.84
p632
aI01
aa(lp633
V2018-02-05 02:10
p634
aV205.5
p635
aV1.04
p636
aV0.82
p637
aI01
aa(lp638
V2018-02-05 02:08
p639
aV205.5
p640
aV0.96
p641
aV0.90
p642
aI01
aa(lp643
V2018-02-05 02:07
p644
aV205.5
p645
aV0.95
p646
aV0.91
p647
aI01
aa(lp648
V2018-02-05 02:05
p649
aV205.5
p650
aV0.93
p651
aV0.93
p652
aI01
aa(lp653
V2018-02-05 01:57
p654
aV207.5
p655
aV1.00
p656
aV0.70
p657
aI01
aa(lp658
V2018-02-05 01:55
p659
aV208.5
p660
aV1.25
p661
aV0.50
p662
aI01
aa(lp663
V2018-02-05 01:52
p664
aV205.5
p665
aV1.00
p666
aV0.70
p667
aI01
aa(lp668
V2018-02-05 01:51
p669
aV205.5
p670
aV0.90
p671
aV0.80
p672
aI01
aa(lp673
V2018-02-05 01:48
p674
aV205.5
p675
aV1.05
p676
aV0.65
p677
aI01
aa(lp678
V2018-02-05 01:46
p679
aV209.5
p680
aV1.00
p681
aV0.70
p682
aI01
aa(lp683
V2018-02-05 01:45
p684
aV212.5
p685
aV1.25
p686
aV0.50
p687
aI01
aa(lp688
V2018-02-05 01:44
p689
aV212.5
p690
aV1.11
p691
aV0.60
p692
aI01
aa(lp693
V2018-02-05 01:43
p694
aV213.5
p695
aV1.17
p696
aV0.55
p697
aI01
aa(lp698
V2018-02-05 01:42
p699
aV213.5
p700
aV1.00
p701
aV0.70
p702
aI01
aa(lp703
V2018-02-05 01:41
p704
aV213.5
p705
aV0.75
p706
aV0.95
p707
aI01
aa(lp708
V2018-02-05 01:39
p709
aV213.5
p710
aV0.80
p711
aV0.90
p712
aI01
aa(lp713
V2018-02-05 01:35
p714
aV214.5
p715
aV0.60
p716
aV1.11
p717
aI01
aa(lp718
V2018-02-05 01:34
p719
aV214.5
p720
aV0.90
p721
aV0.80
p722
aI01
aa(lp723
V2018-02-05 01:30
p724
aV214.5
p725
aV0.70
p726
aV1.00
p727
aI01
aa(lp728
V2018-02-05 01:28
p729
aV212.5
p730
aV0.65
p731
aV1.05
p732
aI01
aa(lp733
V2018-02-05 01:27
p734
aV210.5
p735
aV0.60
p736
aV1.11
p737
aI01
aa(lp738
V2018-02-05 01:26
p739
aV210.5
p740
aV0.80
p741
aV0.90
p742
aI01
aa(lp743
V2018-02-05 01:25
p744
aV209.5
p745
aV0.80
p746
aV0.90
p747
aI01
aa(lp748
V2018-02-05 01:24
p749
aV209.5
p750
aV0.70
p751
aV1.00
p752
aI01
aa(lp753
V2018-02-05 01:23
p754
aV207.5
p755
aV0.65
p756
aV1.05
p757
aI01
aa(lp758
V2018-02-05 01:22
p759
aV207.5
p760
aV0.70
p761
aV1.00
p762
aI01
aa(lp763
V2018-02-05 01:20
p764
aV207.5
p765
aV1.05
p766
aV0.65
p767
aI01
aa(lp768
V2018-02-05 01:20
p769
aV209.5
p770
aV1.25
p771
aV0.50
p772
aI01
aa(lp773
V2018-02-05 01:19
p774
aV209.5
p775
aV1.11
p776
aV0.60
p777
aI01
aa(lp778
V2018-02-05 01:18
p779
aV209.5
p780
aV1.25
p781
aV0.50
p782
aI01
aa(lp783
V2018-02-05 01:16
p784
aV208.5
p785
aV1.00
p786
aV0.70
p787
aI01
aa(lp788
V2018-02-05 01:15
p789
aV208.5
p790
aV1.05
p791
aV0.65
p792
aI01
aa(lp793
V2018-02-05 01:13
p794
aV208.5
p795
aV1.11
p796
aV0.60
p797
aI01
aa(lp798
V2018-02-05 01:12
p799
aV208.5
p800
aV1.05
p801
aV0.65
p802
aI01
aa(lp803
V2018-02-05 01:00
p804
aV208.5
p805
aV0.95
p806
aV0.75
p807
aI00
aa(lp808
V2018-02-05 00:41
p809
aV208.5
p810
aV1.03
p811
aV0.85
p812
aI00
aa(lp813
V2018-02-05 00:28
p814
aV208.5
p815
aV1.05
p816
aV0.83
p817
aI00
aa(lp818
V2018-02-05 00:24
p819
aV208.5
p820
aV1.03
p821
aV0.85
p822
aI00
aa(lp823
V2018-02-04 22:36
p824
aV208.5
p825
aV1.00
p826
aV0.88
p827
aI00
aa(lp828
V2018-02-04 21:46
p829
aV208.5
p830
aV0.94
p831
aV0.94
p832
aI00
aa(lp833
V2018-02-04 17:41
p834
aV208.5
p835
aV0.95
p836
aV0.93
p837
aI00
aa(lp838
V2018-02-04 15:49
p839
aV208.5
p840
aV0.96
p841
aV0.92
p842
aI00
aa(lp843
V2018-02-04 15:11
p844
aV208.5
p845
aV0.94
p846
aV0.94
p847
aI00
aa(lp848
V2018-02-04 10:31
p849
aV208.5
p850
aV0.90
p851
aV0.98
p852
aI00
aa(lp853
V2018-02-04 09:36
p854
aV208.5
p855
aV0.88
p856
aV0.98
p857
aI00
aa(lp858
V2018-02-04 06:08
p859
aV208.5
p860
aV0.92
p861
aV0.94
p862
aI00
aasS'wade'
p863
(lp864
(lp865
V2018-02-05 01:02
p866
aV205.5
p867
aV0.70
p868
aV1.00
p869
aI00
aa(lp870
V2018-02-05 00:46
p871
aV208.5
p872
aV0.80
p873
aV0.90
p874
aI00
aa(lp875
V2018-02-05 00:31
p876
aV208
p877
aV0.90
p878
aV0.90
p879
aI00
aa(lp880
V2018-02-05 00:25
p881
aV207.5
p882
aV0.90
p883
aV0.90
p884
aI00
aa(lp885
V2018-02-04 22:48
p886
aV208
p887
aV0.90
p888
aV0.90
p889
aI00
aa(lp890
V2018-02-04 22:45
p891
aV208.5
p892
aV0.952
p893
aV0.85
p894
aI00
aa(lp895
V2018-02-04 22:43
p896
aV208
p897
aV0.90
p898
aV0.90
p899
aI00
aa(lp900
V2018-02-04 22:38
p901
aV208.5
p902
aV0.952
p903
aV0.85
p904
aI00
aa(lp905
V2018-02-04 22:36
p906
aV208
p907
aV0.90
p908
aV0.90
p909
aI00
aa(lp910
V2018-02-04 15:08
p911
aV208.5
p912
aV0.90
p913
aV0.90
p914
aI00
aa(lp915
V2018-02-04 10:02
p916
aV209
p917
aV0.90
p918
aV0.90
p919
aI00
aa(lp920
V2018-02-04 06:07
p921
aV208.5
p922
aV0.90
p923
aV0.90
p924
aI00
aa(lp925
V2018-02-04 05:40
p926
aV209
p927
aV0.90
p928
aV0.90
p929
aI00
aa(lp930
V2018-02-04 05:25
p931
aV208.5
p932
aV0.90
p933
aV0.90
p934
aI00
aasS'game_id'
p935
V290527
p936
sS'bet365'
p937
(lp938
(lp939
V2018-02-05 03:03
p940
aV207.5
p941
aV1.00
p942
aV0.76
p943
aI01
aa(lp944
V2018-02-05 03:03
p945
aV205.5
p946
aV0.95
p947
aV0.80
p948
aI01
aa(lp949
V2018-02-05 03:02
p950
aV206.5
p951
aV0.86
p952
aV0.86
p953
aI01
aa(lp954
V2018-02-05 03:02
p955
aV207.5
p956
aV0.90
p957
aV0.83
p958
aI01
aa(lp959
V2018-02-05 03:01
p960
aV206.5
p961
aV0.83
p962
aV0.90
p963
aI01
aa(lp964
V2018-02-05 02:58
p965
aV207.5
p966
aV0.90
p967
aV0.83
p968
aI01
aa(lp969
V2018-02-05 02:56
p970
aV208.5
p971
aV0.95
p972
aV0.80
p973
aI01
aa(lp974
V2018-02-05 02:56
p975
aV207.5
p976
aV0.76
p977
aV1.00
p978
aI01
aa(lp979
V2018-02-05 02:55
p980
aV208.5
p981
aV0.83
p982
aV0.90
p983
aI01
aa(lp984
V2018-02-05 02:54
p985
aV209.5
p986
aV0.83
p987
aV0.90
p988
aI01
aa(lp989
V2018-02-05 02:54
p990
aV206.5
p991
aV0.86
p992
aV0.86
p993
aI01
aa(lp994
V2018-02-05 02:53
p995
aV207.5
p996
aV0.83
p997
aV0.90
p998
aI01
aa(lp999
V2018-02-05 02:53
p1000
aV204.5
p1001
aV0.83
p1002
aV0.90
p1003
aI01
aa(lp1004
V2018-02-05 02:52
p1005
aV207.5
p1006
aV0.86
p1007
aV0.86
p1008
aI01
aa(lp1009
V2018-02-05 02:52
p1010
aV207.5
p1011
aV0.95
p1012
aV0.80
p1013
aI01
aa(lp1014
V2018-02-05 02:51
p1015
aV207.5
p1016
aV0.90
p1017
aV0.83
p1018
aI01
aa(lp1019
V2018-02-05 02:50
p1020
aV207.5
p1021
aV0.86
p1022
aV0.86
p1023
aI01
aa(lp1024
V2018-02-05 02:46
p1025
aV206.5
p1026
aV0.86
p1027
aV0.86
p1028
aI01
aa(lp1029
V2018-02-05 02:44
p1030
aV206.5
p1031
aV0.83
p1032
aV0.90
p1033
aI01
aa(lp1034
V2018-02-05 02:43
p1035
aV208.5
p1036
aV0.90
p1037
aV0.83
p1038
aI01
aa(lp1039
V2018-02-05 02:41
p1040
aV210.5
p1041
aV0.86
p1042
aV0.86
p1043
aI01
aa(lp1044
V2018-02-05 02:39
p1045
aV208.5
p1046
aV0.86
p1047
aV0.86
p1048
aI01
aa(lp1049
V2018-02-05 02:38
p1050
aV206.5
p1051
aV0.83
p1052
aV0.90
p1053
aI01
aa(lp1054
V2018-02-05 02:37
p1055
aV206.5
p1056
aV0.86
p1057
aV0.86
p1058
aI01
aa(lp1059
V2018-02-05 02:36
p1060
aV207.5
p1061
aV0.86
p1062
aV0.86
p1063
aI01
aa(lp1064
V2018-02-05 02:34
p1065
aV205.5
p1066
aV0.86
p1067
aV0.86
p1068
aI01
aa(lp1069
V2018-02-05 02:33
p1070
aV203.5
p1071
aV0.83
p1072
aV0.90
p1073
aI01
aa(lp1074
V2018-02-05 02:32
p1075
aV203.5
p1076
aV0.86
p1077
aV0.86
p1078
aI01
aa(lp1079
V2018-02-05 02:32
p1080
aV202.5
p1081
aV0.90
p1082
aV0.83
p1083
aI01
aa(lp1084
V2018-02-05 02:30
p1085
aV202.5
p1086
aV0.86
p1087
aV0.86
p1088
aI01
aa(lp1089
V2018-02-05 02:29
p1090
aV200.5
p1091
aV0.95
p1092
aV0.80
p1093
aI01
aa(lp1094
V2018-02-05 02:24
p1095
aV200.5
p1096
aV0.86
p1097
aV0.86
p1098
aI01
aa(lp1099
V2018-02-05 02:24
p1100
aV201.5
p1101
aV0.86
p1102
aV0.86
p1103
aI01
aa(lp1104
V2018-02-05 02:23
p1105
aV201.5
p1106
aV0.90
p1107
aV0.83
p1108
aI01
aa(lp1109
V2018-02-05 02:23
p1110
aV200.5
p1111
aV0.86
p1112
aV0.86
p1113
aI01
aa(lp1114
V2018-02-05 02:22
p1115
aV199.5
p1116
aV0.83
p1117
aV0.90
p1118
aI01
aa(lp1119
V2018-02-05 02:21
p1120
aV197.5
p1121
aV0.86
p1122
aV0.86
p1123
aI01
aa(lp1124
V2018-02-05 02:20
p1125
aV202.5
p1126
aV0.86
p1127
aV0.86
p1128
aI01
aa(lp1129
V2018-02-05 02:18
p1130
aV201.5
p1131
aV0.86
p1132
aV0.86
p1133
aI01
aa(lp1134
V2018-02-05 02:18
p1135
aV203.5
p1136
aV0.83
p1137
aV0.90
p1138
aI01
aa(lp1139
V2018-02-05 02:11
p1140
aV205.5
p1141
aV0.90
p1142
aV0.83
p1143
aI01
aa(lp1144
V2018-02-05 02:09
p1145
aV205.5
p1146
aV0.86
p1147
aV0.86
p1148
aI01
aa(lp1149
V2018-02-05 02:04
p1150
aV205.5
p1151
aV0.83
p1152
aV0.90
p1153
aI01
aa(lp1154
V2018-02-05 02:00
p1155
aV207.5
p1156
aV0.90
p1157
aV0.83
p1158
aI01
aa(lp1159
V2018-02-05 01:55
p1160
aV207.5
p1161
aV0.86
p1162
aV0.86
p1163
aI01
aa(lp1164
V2018-02-05 01:54
p1165
aV206.5
p1166
aV0.90
p1167
aV0.83
p1168
aI01
aa(lp1169
V2018-02-05 01:54
p1170
aV207.5
p1171
aV0.90
p1172
aV0.83
p1173
aI01
aa(lp1174
V2018-02-05 01:52
p1175
aV206.5
p1176
aV0.90
p1177
aV0.83
p1178
aI01
aa(lp1179
V2018-02-05 01:52
p1180
aV205.5
p1181
aV0.90
p1182
aV0.83
p1183
aI01
aa(lp1184
V2018-02-05 01:51
p1185
aV205.5
p1186
aV0.86
p1187
aV0.86
p1188
aI01
aa(lp1189
V2018-02-05 01:47
p1190
aV203.5
p1191
aV0.86
p1192
aV0.86
p1193
aI01
aa(lp1194
V2018-02-05 01:46
p1195
aV204.5
p1196
aV0.83
p1197
aV0.90
p1198
aI01
aa(lp1199
V2018-02-05 01:46
p1200
aV207.5
p1201
aV0.86
p1202
aV0.86
p1203
aI01
aa(lp1204
V2018-02-05 01:45
p1205
aV208.5
p1206
aV0.86
p1207
aV0.86
p1208
aI01
aa(lp1209
V2018-02-05 01:43
p1210
aV211.5
p1211
aV0.86
p1212
aV0.86
p1213
aI01
aa(lp1214
V2018-02-05 01:42
p1215
aV212.5
p1216
aV0.86
p1217
aV0.86
p1218
aI01
aa(lp1219
V2018-02-05 01:42
p1220
aV213.5
p1221
aV0.86
p1222
aV0.86
p1223
aI01
aa(lp1224
V2018-02-05 01:41
p1225
aV214.5
p1226
aV0.86
p1227
aV0.86
p1228
aI01
aa(lp1229
V2018-02-05 01:41
p1230
aV215.5
p1231
aV0.86
p1232
aV0.86
p1233
aI01
aa(lp1234
V2018-02-05 01:39
p1235
aV214.5
p1236
aV0.90
p1237
aV0.83
p1238
aI01
aa(lp1239
V2018-02-05 01:36
p1240
aV212.5
p1241
aV0.83
p1242
aV0.90
p1243
aI01
aa(lp1244
V2018-02-05 01:35
p1245
aV214.5
p1246
aV0.90
p1247
aV0.83
p1248
aI01
aa(lp1249
V2018-02-05 01:34
p1250
aV214.5
p1251
aV0.86
p1252
aV0.86
p1253
aI01
aa(lp1254
V2018-02-05 01:34
p1255
aV217.5
p1256
aV0.90
p1257
aV0.83
p1258
aI01
aa(lp1259
V2018-02-05 01:32
p1260
aV216.5
p1261
aV0.86
p1262
aV0.86
p1263
aI01
aa(lp1264
V2018-02-05 01:29
p1265
aV215.5
p1266
aV0.86
p1267
aV0.86
p1268
aI01
aa(lp1269
V2018-02-05 01:29
p1270
aV214.5
p1271
aV0.83
p1272
aV0.90
p1273
aI01
aa(lp1274
V2018-02-05 01:28
p1275
aV216.5
p1276
aV0.90
p1277
aV0.83
p1278
aI01
aa(lp1279
V2018-02-05 01:28
p1280
aV215.5
p1281
aV0.90
p1282
aV0.83
p1283
aI01
aa(lp1284
V2018-02-05 01:27
p1285
aV214.5
p1286
aV0.86
p1287
aV0.86
p1288
aI01
aa(lp1289
V2018-02-05 01:26
p1290
aV214.5
p1291
aV0.83
p1292
aV0.90
p1293
aI01
aa(lp1294
V2018-02-05 01:26
p1295
aV212.5
p1296
aV0.86
p1297
aV0.86
p1298
aI01
aa(lp1299
V2018-02-05 01:25
p1300
aV210.5
p1301
aV0.86
p1302
aV0.86
p1303
aI01
aa(lp1304
V2018-02-05 01:24
p1305
aV210.5
p1306
aV0.83
p1307
aV0.90
p1308
aI01
aa(lp1309
V2018-02-05 01:23
p1310
aV210.5
p1311
aV0.86
p1312
aV0.86
p1313
aI01
aa(lp1314
V2018-02-05 01:23
p1315
aV208.5
p1316
aV0.86
p1317
aV0.86
p1318
aI01
aa(lp1319
V2018-02-05 01:22
p1320
aV207.5
p1321
aV0.86
p1322
aV0.86
p1323
aI01
aa(lp1324
V2018-02-05 01:21
p1325
aV205.5
p1326
aV0.90
p1327
aV0.83
p1328
aI01
aa(lp1329
V2018-02-05 01:20
p1330
aV205.5
p1331
aV0.86
p1332
aV0.86
p1333
aI01
aa(lp1334
V2018-02-05 01:20
p1335
aV204.5
p1336
aV0.86
p1337
aV0.86
p1338
aI01
aa(lp1339
V2018-02-05 01:19
p1340
aV205.5
p1341
aV0.83
p1342
aV0.90
p1343
aI01
aa(lp1344
V2018-02-05 01:18
p1345
aV207.5
p1346
aV0.86
p1347
aV0.86
p1348
aI01
aa(lp1349
V2018-02-05 01:14
p1350
aV206.5
p1351
aV0.90
p1352
aV0.83
p1353
aI01
aa(lp1354
V2018-02-05 01:13
p1355
aV206.5
p1356
aV0.86
p1357
aV0.86
p1358
aI01
aa(lp1359
V2018-02-05 01:12
p1360
aV204.5
p1361
aV0.90
p1362
aV0.83
p1363
aI01
aa(lp1364
V2018-02-05 01:12
p1365
aV206.5
p1366
aV0.86
p1367
aV0.86
p1368
aI01
aa(lp1369
V2018-02-05 01:00
p1370
aV207
p1371
aV0.90
p1372
aV0.90
p1373
aI00
aa(lp1374
V2018-02-05 00:59
p1375
aV207.5
p1376
aV0.90
p1377
aV0.90
p1378
aI00
aa(lp1379
V2018-02-05 00:42
p1380
aV208
p1381
aV0.90
p1382
aV0.90
p1383
aI00
aa(lp1384
V2018-02-05 00:34
p1385
aV207.5
p1386
aV0.90
p1387
aV0.90
p1388
aI00
aa(lp1389
V2018-02-04 22:38
p1390
aV208
p1391
aV0.90
p1392
aV0.90
p1393
aI00
aa(lp1394
V2018-02-04 21:54
p1395
aV208.5
p1396
aV0.90
p1397
aV0.90
p1398
aI00
aa(lp1399
V2018-02-04 10:02
p1400
aV209
p1401
aV0.90
p1402
aV0.90
p1403
aI00
aassb.