ccopy_reg
_reconstructor
p0
(cmy_oddsportal.items
WinOverUnderItem
p1
c__builtin__
object
p2
Ntp3
Rp4
(dp5
S'_values'
p6
(dp7
S'ysb8'
p8
(lp9
(lp10
V2018-03-03 08:04
p11
aV214
p12
aV0.95
p13
aV0.95
p14
aI00
aa(lp15
V2018-03-03 06:20
p16
aV213.5
p17
aV0.95
p18
aV0.95
p19
aI00
aa(lp20
V2018-03-03 01:42
p21
aV214
p22
aV0.95
p23
aV0.95
p24
aI00
aa(lp25
V2018-03-02 23:52
p26
aV214.5
p27
aV0.95
p28
aV0.95
p29
aI00
aa(lp30
V2018-03-02 23:50
p31
aV214
p32
aV0.95
p33
aV0.95
p34
aI00
aa(lp35
V2018-03-02 17:40
p36
aV213.5
p37
aV0.95
p38
aV0.95
p39
aI00
aasS'macau'
p40
(lp41
(lp42
V2018-03-03 08:04
p43
aV214.5
p44
aV1.00
p45
aV0.66
p46
aI00
aa(lp47
V2018-03-03 08:04
p48
aV213.5
p49
aV0.85
p50
aV0.810
p51
aI00
aa(lp52
V2018-03-02 13:25
p53
aV213.5
p54
aV0.85
p55
aV0.85
p56
aI00
aasS'title'
p57
V\u000a                \u5967\u862d\u591a\u9b54\u8853\u000a                vs\u000a                \u5e95\u7279\u5f8b\u6d3b\u585e\u000a            
p58
sS'crown'
p59
(lp60
(lp61
V2018-03-03 09:54
p62
aV219.5
p63
aV0.83
p64
aV0.83
p65
aI01
aa(lp66
V2018-03-03 09:53
p67
aV220.5
p68
aV0.83
p69
aV0.83
p70
aI01
aa(lp71
V2018-03-03 09:52
p72
aV221.5
p73
aV0.83
p74
aV0.83
p75
aI01
aa(lp76
V2018-03-03 09:52
p77
aV222.5
p78
aV0.83
p79
aV0.83
p80
aI01
aa(lp81
V2018-03-03 09:50
p82
aV221.5
p83
aV0.83
p84
aV0.83
p85
aI01
aa(lp86
V2018-03-03 09:49
p87
aV220.5
p88
aV0.83
p89
aV0.83
p90
aI01
aa(lp91
V2018-03-03 09:49
p92
aV221.5
p93
aV0.83
p94
aV0.83
p95
aI01
aa(lp96
V2018-03-03 09:48
p97
aV220.5
p98
aV0.83
p99
aV0.83
p100
aI01
aa(lp101
V2018-03-03 09:48
p102
aV218.5
p103
aV0.83
p104
aV0.83
p105
aI01
aa(lp106
V2018-03-03 09:48
p107
aV219.5
p108
aV0.83
p109
aV0.83
p110
aI01
aa(lp111
V2018-03-03 09:48
p112
aV220.5
p113
aV0.83
p114
aV0.83
p115
aI01
aa(lp116
V2018-03-03 09:47
p117
aV218.5
p118
aV0.83
p119
aV0.83
p120
aI01
aa(lp121
V2018-03-03 09:47
p122
aV217.5
p123
aV0.83
p124
aV0.83
p125
aI01
aa(lp126
V2018-03-03 09:47
p127
aV218.5
p128
aV0.83
p129
aV0.83
p130
aI01
aa(lp131
V2018-03-03 09:46
p132
aV217.5
p133
aV0.83
p134
aV0.83
p135
aI01
aa(lp136
V2018-03-03 09:46
p137
aV218.5
p138
aV0.83
p139
aV0.83
p140
aI01
aa(lp141
V2018-03-03 09:45
p142
aV217.5
p143
aV0.83
p144
aV0.83
p145
aI01
aa(lp146
V2018-03-03 09:45
p147
aV218.5
p148
aV0.83
p149
aV0.83
p150
aI01
aa(lp151
V2018-03-03 09:44
p152
aV217.5
p153
aV0.83
p154
aV0.83
p155
aI01
aa(lp156
V2018-03-03 09:44
p157
aV218.5
p158
aV0.83
p159
aV0.83
p160
aI01
aa(lp161
V2018-03-03 09:44
p162
aV217.5
p163
aV0.83
p164
aV0.83
p165
aI01
aa(lp166
V2018-03-03 09:43
p167
aV215.5
p168
aV0.83
p169
aV0.83
p170
aI01
aa(lp171
V2018-03-03 09:42
p172
aV216.5
p173
aV0.83
p174
aV0.83
p175
aI01
aa(lp176
V2018-03-03 09:40
p177
aV217.5
p178
aV0.83
p179
aV0.83
p180
aI01
aa(lp181
V2018-03-03 09:40
p182
aV219.5
p183
aV0.83
p184
aV0.83
p185
aI01
aa(lp186
V2018-03-03 09:40
p187
aV220.5
p188
aV0.83
p189
aV0.83
p190
aI01
aa(lp191
V2018-03-03 09:40
p192
aV221.5
p193
aV0.83
p194
aV0.83
p195
aI01
aa(lp196
V2018-03-03 09:39
p197
aV222.5
p198
aV0.83
p199
aV0.83
p200
aI01
aa(lp201
V2018-03-03 09:39
p202
aV220.5
p203
aV0.83
p204
aV0.83
p205
aI01
aa(lp206
V2018-03-03 09:38
p207
aV221.5
p208
aV0.83
p209
aV0.83
p210
aI01
aa(lp211
V2018-03-03 09:38
p212
aV219.5
p213
aV0.83
p214
aV0.83
p215
aI01
aa(lp216
V2018-03-03 09:38
p217
aV220.5
p218
aV0.83
p219
aV0.83
p220
aI01
aa(lp221
V2018-03-03 09:38
p222
aV219.5
p223
aV0.83
p224
aV0.83
p225
aI01
aa(lp226
V2018-03-03 09:37
p227
aV220.5
p228
aV0.83
p229
aV0.83
p230
aI01
aa(lp231
V2018-03-03 09:37
p232
aV221.5
p233
aV0.83
p234
aV0.83
p235
aI01
aa(lp236
V2018-03-03 09:37
p237
aV220.5
p238
aV0.83
p239
aV0.83
p240
aI01
aa(lp241
V2018-03-03 09:34
p242
aV218.5
p243
aV0.83
p244
aV0.83
p245
aI01
aa(lp246
V2018-03-03 09:33
p247
aV217.5
p248
aV0.83
p249
aV0.83
p250
aI01
aa(lp251
V2018-03-03 09:33
p252
aV216.5
p253
aV0.83
p254
aV0.83
p255
aI01
aa(lp256
V2018-03-03 09:33
p257
aV215.5
p258
aV0.83
p259
aV0.83
p260
aI01
aa(lp261
V2018-03-03 09:33
p262
aV216.5
p263
aV0.83
p264
aV0.83
p265
aI01
aa(lp266
V2018-03-03 09:32
p267
aV214.5
p268
aV0.83
p269
aV0.83
p270
aI01
aa(lp271
V2018-03-03 09:32
p272
aV212.5
p273
aV0.83
p274
aV0.83
p275
aI01
aa(lp276
V2018-03-03 09:32
p277
aV213.5
p278
aV0.83
p279
aV0.83
p280
aI01
aa(lp281
V2018-03-03 09:32
p282
aV212.5
p283
aV0.83
p284
aV0.83
p285
aI01
aa(lp286
V2018-03-03 09:31
p287
aV211.5
p288
aV0.83
p289
aV0.83
p290
aI01
aa(lp291
V2018-03-03 09:30
p292
aV212.5
p293
aV0.83
p294
aV0.83
p295
aI01
aa(lp296
V2018-03-03 09:30
p297
aV213.5
p298
aV0.83
p299
aV0.83
p300
aI01
aa(lp301
V2018-03-03 09:26
p302
aV214.5
p303
aV0.83
p304
aV0.83
p305
aI01
aa(lp306
V2018-03-03 09:25
p307
aV213.5
p308
aV0.83
p309
aV0.83
p310
aI01
aa(lp311
V2018-03-03 09:24
p312
aV212.5
p313
aV0.83
p314
aV0.83
p315
aI01
aa(lp316
V2018-03-03 09:24
p317
aV210.5
p318
aV0.83
p319
aV0.83
p320
aI01
aa(lp321
V2018-03-03 09:23
p322
aV211.5
p323
aV0.83
p324
aV0.83
p325
aI01
aa(lp326
V2018-03-03 09:19
p327
aV210.5
p328
aV0.83
p329
aV0.83
p330
aI01
aa(lp331
V2018-03-03 09:18
p332
aV209.5
p333
aV0.83
p334
aV0.83
p335
aI01
aa(lp336
V2018-03-03 09:18
p337
aV210.5
p338
aV0.83
p339
aV0.83
p340
aI01
aa(lp341
V2018-03-03 09:18
p342
aV208.5
p343
aV0.83
p344
aV0.83
p345
aI01
aa(lp346
V2018-03-03 09:17
p347
aV209.5
p348
aV0.83
p349
aV0.83
p350
aI01
aa(lp351
V2018-03-03 09:07
p352
aV208.5
p353
aV0.83
p354
aV0.83
p355
aI01
aa(lp356
V2018-03-03 09:00
p357
aV209.5
p358
aV0.83
p359
aV0.83
p360
aI01
aa(lp361
V2018-03-03 09:00
p362
aV210.5
p363
aV0.83
p364
aV0.83
p365
aI01
aa(lp366
V2018-03-03 08:59
p367
aV209.5
p368
aV0.83
p369
aV0.83
p370
aI01
aa(lp371
V2018-03-03 08:59
p372
aV208.5
p373
aV0.69
p374
aV0.97
p375
aI01
aa(lp376
V2018-03-03 08:59
p377
aV209.5
p378
aV0.83
p379
aV0.83
p380
aI01
aa(lp381
V2018-03-03 08:58
p382
aV210.5
p383
aV0.83
p384
aV0.83
p385
aI01
aa(lp386
V2018-03-03 08:57
p387
aV211.5
p388
aV0.83
p389
aV0.83
p390
aI01
aa(lp391
V2018-03-03 08:57
p392
aV212.5
p393
aV0.83
p394
aV0.83
p395
aI01
aa(lp396
V2018-03-03 08:57
p397
aV211.5
p398
aV0.83
p399
aV0.83
p400
aI01
aa(lp401
V2018-03-03 08:56
p402
aV212.5
p403
aV0.83
p404
aV0.83
p405
aI01
aa(lp406
V2018-03-03 08:56
p407
aV211.5
p408
aV0.83
p409
aV0.83
p410
aI01
aa(lp411
V2018-03-03 08:56
p412
aV212.5
p413
aV0.83
p414
aV0.83
p415
aI01
aa(lp416
V2018-03-03 08:52
p417
aV211.5
p418
aV0.83
p419
aV0.83
p420
aI01
aa(lp421
V2018-03-03 08:52
p422
aV212.5
p423
aV0.83
p424
aV0.83
p425
aI01
aa(lp426
V2018-03-03 08:51
p427
aV213.5
p428
aV0.83
p429
aV0.83
p430
aI01
aa(lp431
V2018-03-03 08:51
p432
aV214.5
p433
aV0.83
p434
aV0.83
p435
aI01
aa(lp436
V2018-03-03 08:50
p437
aV215.5
p438
aV0.83
p439
aV0.83
p440
aI01
aa(lp441
V2018-03-03 08:49
p442
aV214.5
p443
aV0.83
p444
aV0.83
p445
aI01
aa(lp446
V2018-03-03 08:49
p447
aV213.5
p448
aV0.83
p449
aV0.83
p450
aI01
aa(lp451
V2018-03-03 08:47
p452
aV214.5
p453
aV0.83
p454
aV0.83
p455
aI01
aa(lp456
V2018-03-03 08:46
p457
aV215.5
p458
aV0.83
p459
aV0.83
p460
aI01
aa(lp461
V2018-03-03 08:46
p462
aV216.5
p463
aV0.83
p464
aV0.83
p465
aI01
aa(lp466
V2018-03-03 08:46
p467
aV215.5
p468
aV0.83
p469
aV0.83
p470
aI01
aa(lp471
V2018-03-03 08:46
p472
aV216.5
p473
aV0.83
p474
aV0.83
p475
aI01
aa(lp476
V2018-03-03 08:42
p477
aV217.5
p478
aV0.83
p479
aV0.83
p480
aI01
aa(lp481
V2018-03-03 08:42
p482
aV218.5
p483
aV0.83
p484
aV0.83
p485
aI01
aa(lp486
V2018-03-03 08:41
p487
aV219.5
p488
aV0.83
p489
aV0.83
p490
aI01
aa(lp491
V2018-03-03 08:40
p492
aV218.5
p493
aV0.83
p494
aV0.83
p495
aI01
aa(lp496
V2018-03-03 08:40
p497
aV217.5
p498
aV0.83
p499
aV0.83
p500
aI01
aa(lp501
V2018-03-03 08:40
p502
aV216.5
p503
aV0.83
p504
aV0.83
p505
aI01
aa(lp506
V2018-03-03 08:39
p507
aV217.5
p508
aV0.83
p509
aV0.83
p510
aI01
aa(lp511
V2018-03-03 08:39
p512
aV218.5
p513
aV0.83
p514
aV0.83
p515
aI01
aa(lp516
V2018-03-03 08:39
p517
aV217.5
p518
aV0.83
p519
aV0.83
p520
aI01
aa(lp521
V2018-03-03 08:38
p522
aV218.5
p523
aV0.83
p524
aV0.83
p525
aI01
aa(lp526
V2018-03-03 08:37
p527
aV217.5
p528
aV0.83
p529
aV0.83
p530
aI01
aa(lp531
V2018-03-03 08:34
p532
aV218.5
p533
aV0.83
p534
aV0.83
p535
aI01
aa(lp536
V2018-03-03 08:34
p537
aV220.5
p538
aV0.83
p539
aV0.83
p540
aI01
aa(lp541
V2018-03-03 08:33
p542
aV218.5
p543
aV0.83
p544
aV0.83
p545
aI01
aa(lp546
V2018-03-03 08:32
p547
aV219.5
p548
aV0.83
p549
aV0.83
p550
aI01
aa(lp551
V2018-03-03 08:32
p552
aV221.5
p553
aV0.83
p554
aV0.83
p555
aI01
aa(lp556
V2018-03-03 08:31
p557
aV219.5
p558
aV0.83
p559
aV0.83
p560
aI01
aa(lp561
V2018-03-03 08:31
p562
aV218.5
p563
aV0.83
p564
aV0.83
p565
aI01
aa(lp566
V2018-03-03 08:30
p567
aV217.5
p568
aV0.83
p569
aV0.83
p570
aI01
aa(lp571
V2018-03-03 08:28
p572
aV216.5
p573
aV0.83
p574
aV0.83
p575
aI01
aa(lp576
V2018-03-03 08:27
p577
aV217.5
p578
aV0.83
p579
aV0.83
p580
aI01
aa(lp581
V2018-03-03 08:27
p582
aV216.5
p583
aV0.83
p584
aV0.83
p585
aI01
aa(lp586
V2018-03-03 08:27
p587
aV217.5
p588
aV0.83
p589
aV0.83
p590
aI01
aa(lp591
V2018-03-03 08:27
p592
aV216.5
p593
aV0.83
p594
aV0.83
p595
aI01
aa(lp596
V2018-03-03 08:26
p597
aV214.5
p598
aV0.83
p599
aV0.83
p600
aI01
aa(lp601
V2018-03-03 08:26
p602
aV212.5
p603
aV0.83
p604
aV0.83
p605
aI01
aa(lp606
V2018-03-03 08:25
p607
aV213.5
p608
aV0.83
p609
aV0.83
p610
aI01
aa(lp611
V2018-03-03 08:25
p612
aV214.5
p613
aV0.83
p614
aV0.83
p615
aI01
aa(lp616
V2018-03-03 08:25
p617
aV213.5
p618
aV0.83
p619
aV0.83
p620
aI01
aa(lp621
V2018-03-03 08:23
p622
aV214.5
p623
aV0.83
p624
aV0.83
p625
aI01
aa(lp626
V2018-03-03 08:22
p627
aV213.5
p628
aV0.83
p629
aV0.83
p630
aI01
aa(lp631
V2018-03-03 08:19
p632
aV214.5
p633
aV0.83
p634
aV0.83
p635
aI01
aa(lp636
V2018-03-03 08:19
p637
aV213.5
p638
aV0.83
p639
aV0.83
p640
aI01
aa(lp641
V2018-03-03 08:18
p642
aV214.5
p643
aV0.83
p644
aV0.83
p645
aI01
aa(lp646
V2018-03-03 08:18
p647
aV213.5
p648
aV0.83
p649
aV0.83
p650
aI01
aa(lp651
V2018-03-03 08:18
p652
aV212.5
p653
aV0.83
p654
aV0.83
p655
aI01
aa(lp656
V2018-03-03 08:18
p657
aV210.5
p658
aV0.83
p659
aV0.83
p660
aI01
aa(lp661
V2018-03-03 08:17
p662
aV211.5
p663
aV0.83
p664
aV0.83
p665
aI01
aa(lp666
V2018-03-03 08:17
p667
aV210.5
p668
aV0.83
p669
aV0.83
p670
aI01
aa(lp671
V2018-03-03 08:16
p672
aV211.5
p673
aV0.83
p674
aV0.83
p675
aI01
aa(lp676
V2018-03-03 08:16
p677
aV212.5
p678
aV0.83
p679
aV0.83
p680
aI01
aa(lp681
V2018-03-03 08:11
p682
aV213.5
p683
aV0.83
p684
aV0.83
p685
aI01
aa(lp686
V2018-03-03 08:11
p687
aV212.5
p688
aV0.83
p689
aV0.83
p690
aI01
aa(lp691
V2018-03-03 08:02
p692
aV213.5
p693
aV0.83
p694
aV0.83
p695
aI00
aa(lp696
V2018-03-03 08:02
p697
aV213.5
p698
aV0.92
p699
aV0.74
p700
aI00
aa(lp701
V2018-03-03 06:21
p702
aV213.5
p703
aV0.92
p704
aV0.92
p705
aI00
aa(lp706
V2018-03-03 04:30
p707
aV213.5
p708
aV0.88
p709
aV0.96
p710
aI00
aa(lp711
V2018-03-03 02:00
p712
aV213.5
p713
aV0.92
p714
aV0.92
p715
aI00
aa(lp716
V2018-03-03 02:00
p717
aV212.5
p718
aV0.82
p719
aV1.02
p720
aI00
aa(lp721
V2018-03-03 00:14
p722
aV213.5
p723
aV0.92
p724
aV0.92
p725
aI00
aa(lp726
V2018-03-03 00:14
p727
aV212.5
p728
aV0.82
p729
aV1.02
p730
aI00
aa(lp731
V2018-03-02 18:35
p732
aV213.5
p733
aV0.92
p734
aV0.92
p735
aI00
aa(lp736
V2018-03-02 18:35
p737
aV212.5
p738
aV0.82
p739
aV1.02
p740
aI00
aa(lp741
V2018-03-02 18:18
p742
aV213.5
p743
aV0.92
p744
aV0.92
p745
aI00
aa(lp746
V2018-03-02 18:18
p747
aV212.5
p748
aV0.82
p749
aV1.02
p750
aI00
aa(lp751
V2018-03-02 12:11
p752
aV213.5
p753
aV0.92
p754
aV0.92
p755
aI00
aasS'sbo'
p756
(lp757
(lp758
V2018-03-03 08:56
p759
aV213.5
p760
aV0.80
p761
aV0.90
p762
aI01
aa(lp763
V2018-03-03 08:53
p764
aV214.5
p765
aV1.11
p766
aV0.60
p767
aI01
aa(lp768
V2018-03-03 08:52
p769
aV215.5
p770
aV1.17
p771
aV0.55
p772
aI01
aa(lp773
V2018-03-03 08:50
p774
aV217.5
p775
aV1.05
p776
aV0.65
p777
aI01
aa(lp778
V2018-03-03 08:50
p779
aV217.5
p780
aV1.00
p781
aV0.70
p782
aI01
aa(lp783
V2018-03-03 08:50
p784
aV217.5
p785
aV0.90
p786
aV0.80
p787
aI01
aa(lp788
V2018-03-03 08:48
p789
aV217.5
p790
aV1.11
p791
aV0.60
p792
aI01
aa(lp793
V2018-03-03 08:46
p794
aV218.5
p795
aV1.11
p796
aV0.60
p797
aI01
aa(lp798
V2018-03-03 08:45
p799
aV218.5
p800
aV0.95
p801
aV0.75
p802
aI01
aa(lp803
V2018-03-03 08:29
p804
aV217.5
p805
aV0.85
p806
aV0.85
p807
aI01
aa(lp808
V2018-03-03 08:28
p809
aV217.5
p810
aV0.95
p811
aV0.75
p812
aI01
aa(lp813
V2018-03-03 08:28
p814
aV217.5
p815
aV0.90
p816
aV0.80
p817
aI01
aa(lp818
V2018-03-03 08:25
p819
aV214.5
p820
aV0.80
p821
aV0.90
p822
aI01
aa(lp823
V2018-03-03 08:24
p824
aV214.5
p825
aV0.70
p826
aV1.00
p827
aI01
aa(lp828
V2018-03-03 08:23
p829
aV214.5
p830
aV0.90
p831
aV0.80
p832
aI01
aa(lp833
V2018-03-03 08:21
p834
aV214.5
p835
aV0.80
p836
aV0.90
p837
aI01
aa(lp838
V2018-03-03 08:20
p839
aV214.5
p840
aV0.85
p841
aV0.85
p842
aI01
aa(lp843
V2018-03-03 08:19
p844
aV213.5
p845
aV0.60
p846
aV1.11
p847
aI01
aa(lp848
V2018-03-03 08:18
p849
aV212.5
p850
aV0.70
p851
aV1.00
p852
aI01
aa(lp853
V2018-03-03 08:17
p854
aV212.5
p855
aV0.85
p856
aV0.85
p857
aI01
aa(lp858
V2018-03-03 08:17
p859
aV213.5
p860
aV1.00
p861
aV0.70
p862
aI01
aa(lp863
V2018-03-03 08:16
p864
aV213.5
p865
aV0.70
p866
aV1.00
p867
aI01
aa(lp868
V2018-03-03 08:14
p869
aV213.5
p870
aV0.65
p871
aV1.05
p872
aI01
aa(lp873
V2018-03-03 08:14
p874
aV213.5
p875
aV0.75
p876
aV0.95
p877
aI01
aa(lp878
V2018-03-03 08:13
p879
aV213.5
p880
aV0.85
p881
aV0.85
p882
aI01
aa(lp883
V2018-03-03 08:12
p884
aV213.5
p885
aV0.95
p886
aV0.75
p887
aI01
aa(lp888
V2018-03-03 08:11
p889
aV213.5
p890
aV0.80
p891
aV0.90
p892
aI01
aa(lp893
V2018-03-03 08:00
p894
aV213.5
p895
aV0.75
p896
aV0.95
p897
aI00
aa(lp898
V2018-03-03 07:25
p899
aV213.5
p900
aV0.98
p901
aV0.90
p902
aI00
aa(lp903
V2018-03-03 06:15
p904
aV213.5
p905
aV0.90
p906
aV0.98
p907
aI00
aa(lp908
V2018-03-02 16:41
p909
aV213.5
p910
aV0.94
p911
aV0.94
p912
aI00
aa(lp913
V2018-03-02 14:31
p914
aV213.5
p915
aV0.98
p916
aV0.90
p917
aI00
aa(lp918
V2018-03-02 11:03
p919
aV213.5
p920
aV0.94
p921
aV0.94
p922
aI00
aa(lp923
V2018-03-02 10:59
p924
aV213.5
p925
aV0.92
p926
aV0.94
p927
aI00
aa(lp928
V2018-03-02 06:01
p929
aV213.5
p930
aV0.93
p931
aV0.93
p932
aI00
aasS'wade'
p933
(lp934
(lp935
V2018-03-03 07:49
p936
aV211.5
p937
aV0.70
p938
aV1.00
p939
aI00
aa(lp940
V2018-03-03 07:46
p941
aV213.5
p942
aV0.85
p943
aV0.85
p944
aI00
aa(lp945
V2018-03-03 06:23
p946
aV213.5
p947
aV0.90
p948
aV0.90
p949
aI00
aa(lp950
V2018-03-03 02:14
p951
aV214
p952
aV0.90
p953
aV0.90
p954
aI00
aa(lp955
V2018-03-02 23:54
p956
aV214.5
p957
aV0.90
p958
aV0.90
p959
aI00
aa(lp960
V2018-03-02 23:51
p961
aV214
p962
aV0.90
p963
aV0.90
p964
aI00
aa(lp965
V2018-03-02 15:12
p966
aV213.5
p967
aV0.90
p968
aV0.90
p969
aI00
aa(lp970
V2018-03-02 14:34
p971
aV213
p972
aV0.90
p973
aV0.90
p974
aI00
aa(lp975
V2018-03-02 06:02
p976
aV213.5
p977
aV0.90
p978
aV0.90
p979
aI00
aa(lp980
V2018-03-02 05:08
p981
aV212.5
p982
aV0.90
p983
aV0.90
p984
aI00
aasS'game_id'
p985
V290668
p986
sS'bet365'
p987
(lp988
(lp989
V2018-03-03 09:54
p990
aV218.5
p991
aV0.86
p992
aV0.86
p993
aI01
aa(lp994
V2018-03-03 09:53
p995
aV219.5
p996
aV0.86
p997
aV0.86
p998
aI01
aa(lp999
V2018-03-03 09:52
p1000
aV220.5
p1001
aV0.80
p1002
aV0.95
p1003
aI01
aa(lp1004
V2018-03-03 09:49
p1005
aV222.5
p1006
aV0.95
p1007
aV0.80
p1008
aI01
aa(lp1009
V2018-03-03 09:49
p1010
aV221.5
p1011
aV0.80
p1012
aV0.95
p1013
aI01
aa(lp1014
V2018-03-03 09:48
p1015
aV219.5
p1016
aV0.86
p1017
aV0.86
p1018
aI01
aa(lp1019
V2018-03-03 09:48
p1020
aV218.5
p1021
aV0.86
p1022
aV0.86
p1023
aI01
aa(lp1024
V2018-03-03 09:48
p1025
aV220.5
p1026
aV0.83
p1027
aV0.90
p1028
aI01
aa(lp1029
V2018-03-03 09:47
p1030
aV217.5
p1031
aV0.83
p1032
aV0.90
p1033
aI01
aa(lp1034
V2018-03-03 09:46
p1035
aV218.5
p1036
aV0.80
p1037
aV0.95
p1038
aI01
aa(lp1039
V2018-03-03 09:46
p1040
aV219.5
p1041
aV0.90
p1042
aV0.83
p1043
aI01
aa(lp1044
V2018-03-03 09:46
p1045
aV218.5
p1046
aV0.83
p1047
aV0.90
p1048
aI01
aa(lp1049
V2018-03-03 09:45
p1050
aV219.5
p1051
aV0.80
p1052
aV0.95
p1053
aI01
aa(lp1054
V2018-03-03 09:44
p1055
aV218.5
p1056
aV0.83
p1057
aV0.90
p1058
aI01
aa(lp1059
V2018-03-03 09:40
p1060
aV217.5
p1061
aV0.86
p1062
aV0.86
p1063
aI01
aa(lp1064
V2018-03-03 09:37
p1065
aV222.5
p1066
aV0.80
p1067
aV0.95
p1068
aI01
aa(lp1069
V2018-03-03 09:34
p1070
aV219.5
p1071
aV0.83
p1072
aV0.90
p1073
aI01
aa(lp1074
V2018-03-03 09:34
p1075
aV217.5
p1076
aV0.90
p1077
aV0.83
p1078
aI01
aa(lp1079
V2018-03-03 09:33
p1080
aV218.5
p1081
aV0.83
p1082
aV0.90
p1083
aI01
aa(lp1084
V2018-03-03 09:33
p1085
aV216.5
p1086
aV0.90
p1087
aV0.83
p1088
aI01
aa(lp1089
V2018-03-03 09:32
p1090
aV214.5
p1091
aV0.86
p1092
aV0.86
p1093
aI01
aa(lp1094
V2018-03-03 09:32
p1095
aV212.5
p1096
aV0.83
p1097
aV0.90
p1098
aI01
aa(lp1099
V2018-03-03 09:31
p1100
aV212.5
p1101
aV0.86
p1102
aV0.86
p1103
aI01
aa(lp1104
V2018-03-03 09:31
p1105
aV210.5
p1106
aV0.83
p1107
aV0.90
p1108
aI01
aa(lp1109
V2018-03-03 09:30
p1110
aV211.5
p1111
aV0.83
p1112
aV0.90
p1113
aI01
aa(lp1114
V2018-03-03 09:30
p1115
aV212.5
p1116
aV0.90
p1117
aV0.83
p1118
aI01
aa(lp1119
V2018-03-03 09:29
p1120
aV213.5
p1121
aV0.86
p1122
aV0.86
p1123
aI01
aa(lp1124
V2018-03-03 09:26
p1125
aV213.5
p1126
aV0.90
p1127
aV0.83
p1128
aI01
aa(lp1129
V2018-03-03 09:25
p1130
aV212.5
p1131
aV0.90
p1132
aV0.83
p1133
aI01
aa(lp1134
V2018-03-03 09:25
p1135
aV211.5
p1136
aV0.86
p1137
aV0.86
p1138
aI01
aa(lp1139
V2018-03-03 09:24
p1140
aV213.5
p1141
aV0.90
p1142
aV0.83
p1143
aI01
aa(lp1144
V2018-03-03 09:24
p1145
aV210.5
p1146
aV0.83
p1147
aV0.90
p1148
aI01
aa(lp1149
V2018-03-03 09:24
p1150
aV211.5
p1151
aV0.86
p1152
aV0.86
p1153
aI01
aa(lp1154
V2018-03-03 09:23
p1155
aV209.5
p1156
aV0.83
p1157
aV0.90
p1158
aI01
aa(lp1159
V2018-03-03 09:22
p1160
aV211.5
p1161
aV0.86
p1162
aV0.86
p1163
aI01
aa(lp1164
V2018-03-03 09:02
p1165
aV209.5
p1166
aV0.86
p1167
aV0.86
p1168
aI01
aa(lp1169
V2018-03-03 09:01
p1170
aV206.5
p1171
aV0.86
p1172
aV0.86
p1173
aI01
aa(lp1174
V2018-03-03 08:59
p1175
aV208.5
p1176
aV0.86
p1177
aV0.86
p1178
aI01
aa(lp1179
V2018-03-03 08:58
p1180
aV207.5
p1181
aV0.90
p1182
aV0.83
p1183
aI01
aa(lp1184
V2018-03-03 08:58
p1185
aV209.5
p1186
aV0.86
p1187
aV0.86
p1188
aI01
aa(lp1189
V2018-03-03 08:57
p1190
aV212.5
p1191
aV0.83
p1192
aV0.90
p1193
aI01
aa(lp1194
V2018-03-03 08:56
p1195
aV213.5
p1196
aV0.90
p1197
aV0.83
p1198
aI01
aa(lp1199
V2018-03-03 08:53
p1200
aV212.5
p1201
aV0.86
p1202
aV0.86
p1203
aI01
aa(lp1204
V2018-03-03 08:53
p1205
aV212.5
p1206
aV0.90
p1207
aV0.83
p1208
aI01
aa(lp1209
V2018-03-03 08:52
p1210
aV211.5
p1211
aV0.83
p1212
aV0.90
p1213
aI01
aa(lp1214
V2018-03-03 08:52
p1215
aV211.5
p1216
aV0.90
p1217
aV0.83
p1218
aI01
aa(lp1219
V2018-03-03 08:51
p1220
aV213.5
p1221
aV0.86
p1222
aV0.86
p1223
aI01
aa(lp1224
V2018-03-03 08:50
p1225
aV215.5
p1226
aV0.86
p1227
aV0.86
p1228
aI01
aa(lp1229
V2018-03-03 08:49
p1230
aV214.5
p1231
aV0.86
p1232
aV0.86
p1233
aI01
aa(lp1234
V2018-03-03 08:49
p1235
aV214.5
p1236
aV0.90
p1237
aV0.83
p1238
aI01
aa(lp1239
V2018-03-03 08:46
p1240
aV213.5
p1241
aV0.83
p1242
aV0.90
p1243
aI01
aa(lp1244
V2018-03-03 08:46
p1245
aV216.5
p1246
aV0.90
p1247
aV0.83
p1248
aI01
aa(lp1249
V2018-03-03 08:46
p1250
aV215.5
p1251
aV0.90
p1252
aV0.83
p1253
aI01
aa(lp1254
V2018-03-03 08:45
p1255
aV216.5
p1256
aV0.86
p1257
aV0.86
p1258
aI01
aa(lp1259
V2018-03-03 08:45
p1260
aV217.5
p1261
aV0.86
p1262
aV0.86
p1263
aI01
aa(lp1264
V2018-03-03 08:41
p1265
aV217.5
p1266
aV0.83
p1267
aV0.90
p1268
aI01
aa(lp1269
V2018-03-03 08:41
p1270
aV219.5
p1271
aV0.86
p1272
aV0.86
p1273
aI01
aa(lp1274
V2018-03-03 08:40
p1275
aV218.5
p1276
aV0.86
p1277
aV0.86
p1278
aI01
aa(lp1279
V2018-03-03 08:40
p1280
aV217.5
p1281
aV0.86
p1282
aV0.86
p1283
aI01
aa(lp1284
V2018-03-03 08:40
p1285
aV217.5
p1286
aV0.90
p1287
aV0.83
p1288
aI01
aa(lp1289
V2018-03-03 08:39
p1290
aV216.5
p1291
aV0.83
p1292
aV0.90
p1293
aI01
aa(lp1294
V2018-03-03 08:38
p1295
aV218.5
p1296
aV0.86
p1297
aV0.86
p1298
aI01
aa(lp1299
V2018-03-03 08:37
p1300
aV217.5
p1301
aV0.86
p1302
aV0.86
p1303
aI01
aa(lp1304
V2018-03-03 08:34
p1305
aV218.5
p1306
aV0.86
p1307
aV0.86
p1308
aI01
aa(lp1309
V2018-03-03 08:34
p1310
aV220.5
p1311
aV0.86
p1312
aV0.86
p1313
aI01
aa(lp1314
V2018-03-03 08:33
p1315
aV218.5
p1316
aV0.83
p1317
aV0.90
p1318
aI01
aa(lp1319
V2018-03-03 08:33
p1320
aV220.5
p1321
aV0.86
p1322
aV0.86
p1323
aI01
aa(lp1324
V2018-03-03 08:33
p1325
aV219.5
p1326
aV0.83
p1327
aV0.90
p1328
aI01
aa(lp1329
V2018-03-03 08:32
p1330
aV218.5
p1331
aV0.86
p1332
aV0.86
p1333
aI01
aa(lp1334
V2018-03-03 08:32
p1335
aV220.5
p1336
aV0.90
p1337
aV0.83
p1338
aI01
aa(lp1339
V2018-03-03 08:31
p1340
aV218.5
p1341
aV0.90
p1342
aV0.83
p1343
aI01
aa(lp1344
V2018-03-03 08:31
p1345
aV219.5
p1346
aV0.90
p1347
aV0.83
p1348
aI01
aa(lp1349
V2018-03-03 08:31
p1350
aV217.5
p1351
aV0.86
p1352
aV0.86
p1353
aI01
aa(lp1354
V2018-03-03 08:30
p1355
aV216.5
p1356
aV0.83
p1357
aV0.90
p1358
aI01
aa(lp1359
V2018-03-03 08:29
p1360
aV216.5
p1361
aV0.86
p1362
aV0.86
p1363
aI01
aa(lp1364
V2018-03-03 08:29
p1365
aV215.5
p1366
aV0.86
p1367
aV0.86
p1368
aI01
aa(lp1369
V2018-03-03 08:29
p1370
aV216.5
p1371
aV0.86
p1372
aV0.86
p1373
aI01
aa(lp1374
V2018-03-03 08:28
p1375
aV216.5
p1376
aV0.90
p1377
aV0.83
p1378
aI01
aa(lp1379
V2018-03-03 08:28
p1380
aV216.5
p1381
aV0.86
p1382
aV0.86
p1383
aI01
aa(lp1384
V2018-03-03 08:27
p1385
aV217.5
p1386
aV0.86
p1387
aV0.86
p1388
aI01
aa(lp1389
V2018-03-03 08:26
p1390
aV214.5
p1391
aV0.86
p1392
aV0.86
p1393
aI01
aa(lp1394
V2018-03-03 08:26
p1395
aV214.5
p1396
aV0.90
p1397
aV0.83
p1398
aI01
aa(lp1399
V2018-03-03 08:25
p1400
aV212.5
p1401
aV0.90
p1402
aV0.83
p1403
aI01
aa(lp1404
V2018-03-03 08:24
p1405
aV213.5
p1406
aV0.86
p1407
aV0.86
p1408
aI01
aa(lp1409
V2018-03-03 08:23
p1410
aV214.5
p1411
aV0.86
p1412
aV0.86
p1413
aI01
aa(lp1414
V2018-03-03 08:23
p1415
aV213.5
p1416
aV0.90
p1417
aV0.83
p1418
aI01
aa(lp1419
V2018-03-03 08:22
p1420
aV212.5
p1421
aV0.86
p1422
aV0.86
p1423
aI01
aa(lp1424
V2018-03-03 08:19
p1425
aV214.5
p1426
aV0.90
p1427
aV0.83
p1428
aI01
aa(lp1429
V2018-03-03 08:19
p1430
aV212.5
p1431
aV0.86
p1432
aV0.86
p1433
aI01
aa(lp1434
V2018-03-03 08:18
p1435
aV211.5
p1436
aV0.86
p1437
aV0.86
p1438
aI01
aa(lp1439
V2018-03-03 08:18
p1440
aV209.5
p1441
aV0.86
p1442
aV0.86
p1443
aI01
aa(lp1444
V2018-03-03 08:17
p1445
aV211.5
p1446
aV0.90
p1447
aV0.83
p1448
aI01
aa(lp1449
V2018-03-03 08:17
p1450
aV210.5
p1451
aV0.90
p1452
aV0.83
p1453
aI01
aa(lp1454
V2018-03-03 08:16
p1455
aV210.5
p1456
aV0.86
p1457
aV0.86
p1458
aI01
aa(lp1459
V2018-03-03 08:16
p1460
aV211.5
p1461
aV0.86
p1462
aV0.86
p1463
aI01
aa(lp1464
V2018-03-03 08:13
p1465
aV212.5
p1466
aV0.86
p1467
aV0.86
p1468
aI01
aa(lp1469
V2018-03-03 08:13
p1470
aV212.5
p1471
aV0.83
p1472
aV0.90
p1473
aI01
aa(lp1474
V2018-03-03 08:12
p1475
aV212.5
p1476
aV0.86
p1477
aV0.86
p1478
aI01
aa(lp1479
V2018-03-03 08:12
p1480
aV213.5
p1481
aV0.90
p1482
aV0.83
p1483
aI01
aa(lp1484
V2018-03-03 08:12
p1485
aV212.5
p1486
aV0.86
p1487
aV0.86
p1488
aI01
aa(lp1489
V2018-03-03 08:11
p1490
aV213.5
p1491
aV0.86
p1492
aV0.86
p1493
aI01
aa(lp1494
V2018-03-03 08:11
p1495
aV211.5
p1496
aV0.83
p1497
aV0.90
p1498
aI01
aa(lp1499
V2018-03-03 08:11
p1500
aV213.5
p1501
aV0.86
p1502
aV0.86
p1503
aI01
aa(lp1504
V2018-03-03 08:10
p1505
aV212.5
p1506
aV0.86
p1507
aV0.86
p1508
aI01
aa(lp1509
V2018-03-03 08:10
p1510
aV213.5
p1511
aV0.86
p1512
aV0.86
p1513
aI01
aa(lp1514
V2018-03-03 06:20
p1515
aV213.5
p1516
aV0.90
p1517
aV0.90
p1518
aI00
aa(lp1519
V2018-03-03 01:30
p1520
aV214
p1521
aV0.90
p1522
aV0.90
p1523
aI00
aa(lp1524
V2018-03-02 23:53
p1525
aV214.5
p1526
aV0.90
p1527
aV0.90
p1528
aI00
aa(lp1529
V2018-03-02 23:47
p1530
aV214
p1531
aV0.90
p1532
aV0.90
p1533
aI00
aa(lp1534
V2018-03-02 10:02
p1535
aV213.5
p1536
aV0.90
p1537
aV0.90
p1538
aI00
aassb.