ccopy_reg
_reconstructor
p0
(cmy_oddsportal.items
WinOverUnderItem
p1
c__builtin__
object
p2
Ntp3
Rp4
(dp5
S'_values'
p6
(dp7
S'ysb8'
p8
(lp9
(lp10
V2017-12-16 06:38
p11
aV208.5
p12
aV0.95
p13
aV0.95
p14
aI00
aa(lp15
V2017-12-16 04:56
p16
aV209
p17
aV0.95
p18
aV0.95
p19
aI00
aa(lp20
V2017-12-16 04:55
p21
aV208.5
p22
aV0.95
p23
aV0.95
p24
aI00
aa(lp25
V2017-12-16 04:55
p26
aV209
p27
aV0.95
p28
aV0.95
p29
aI00
aa(lp30
V2017-12-16 02:54
p31
aV208.5
p32
aV0.95
p33
aV0.95
p34
aI00
aa(lp35
V2017-12-16 02:25
p36
aV209
p37
aV0.95
p38
aV0.95
p39
aI00
aa(lp40
V2017-12-16 00:15
p41
aV208
p42
aV0.95
p43
aV0.95
p44
aI00
aa(lp45
V2017-12-16 00:14
p46
aV208.5
p47
aV0.95
p48
aV0.95
p49
aI00
aa(lp50
V2017-12-15 21:32
p51
aV209
p52
aV0.95
p53
aV0.95
p54
aI00
aa(lp55
V2017-12-15 15:43
p56
aV209.5
p57
aV0.95
p58
aV0.95
p59
aI00
aa(lp60
V2017-12-15 13:43
p61
aV210
p62
aV0.95
p63
aV0.95
p64
aI00
aasS'macau'
p65
(lp66
(lp67
V2017-12-16 08:04
p68
aV208.5
p69
aV0.86
p70
aV0.80
p71
aI00
aa(lp72
V2017-12-16 08:00
p73
aV208.5
p74
aV0.820
p75
aV0.84
p76
aI00
aa(lp77
V2017-12-16 01:47
p78
aV208.5
p79
aV0.820
p80
aV0.88
p81
aI00
aa(lp82
V2017-12-15 22:09
p83
aV210.5
p84
aV0.96
p85
aV0.74
p86
aI00
aa(lp87
V2017-12-15 13:20
p88
aV210.5
p89
aV0.90
p90
aV0.80
p91
aI00
aasS'title'
p92
V\u000a                \u83ef\u76db\u9813\u5deb\u5e2b\u000a                vs\u000a                \u6d1b\u6749\u78ef\u5feb\u8247\u000a            
p93
sS'crown'
p94
(lp95
(lp96
V2017-12-16 10:10
p97
aV188.5
p98
aV0.83
p99
aV0.83
p100
aI01
aa(lp101
V2017-12-16 10:09
p102
aV189.5
p103
aV0.83
p104
aV0.83
p105
aI01
aa(lp106
V2017-12-16 10:09
p107
aV190.5
p108
aV0.83
p109
aV0.83
p110
aI01
aa(lp111
V2017-12-16 10:09
p112
aV191.5
p113
aV0.83
p114
aV0.83
p115
aI01
aa(lp116
V2017-12-16 10:06
p117
aV189.5
p118
aV0.83
p119
aV0.83
p120
aI01
aa(lp121
V2017-12-16 10:05
p122
aV188.5
p123
aV0.83
p124
aV0.83
p125
aI01
aa(lp126
V2017-12-16 10:05
p127
aV187.5
p128
aV0.83
p129
aV0.83
p130
aI01
aa(lp131
V2017-12-16 10:05
p132
aV188.5
p133
aV0.83
p134
aV0.83
p135
aI01
aa(lp136
V2017-12-16 10:04
p137
aV188.5
p138
aV0.88
p139
aV0.78
p140
aI01
aa(lp141
V2017-12-16 10:04
p142
aV187.5
p143
aV0.84
p144
aV0.82
p145
aI01
aa(lp146
V2017-12-16 10:04
p147
aV188.5
p148
aV0.86
p149
aV0.80
p150
aI01
aa(lp151
V2017-12-16 10:04
p152
aV187.5
p153
aV0.89
p154
aV0.77
p155
aI01
aa(lp156
V2017-12-16 10:03
p157
aV188.5
p158
aV0.81
p159
aV0.85
p160
aI01
aa(lp161
V2017-12-16 10:03
p162
aV187.5
p163
aV0.80
p164
aV0.86
p165
aI01
aa(lp166
V2017-12-16 10:03
p167
aV189.5
p168
aV0.71
p169
aV0.95
p170
aI01
aa(lp171
V2017-12-16 10:02
p172
aV189.5
p173
aV0.77
p174
aV0.89
p175
aI01
aa(lp176
V2017-12-16 10:02
p177
aV190.5
p178
aV0.86
p179
aV0.80
p180
aI01
aa(lp181
V2017-12-16 10:00
p182
aV187.5
p183
aV0.83
p184
aV0.83
p185
aI01
aa(lp186
V2017-12-16 09:59
p187
aV187.5
p188
aV0.85
p189
aV0.81
p190
aI01
aa(lp191
V2017-12-16 09:59
p192
aV187.5
p193
aV0.83
p194
aV0.83
p195
aI01
aa(lp196
V2017-12-16 09:58
p197
aV185.5
p198
aV0.82
p199
aV0.84
p200
aI01
aa(lp201
V2017-12-16 09:58
p202
aV187.5
p203
aV0.89
p204
aV0.77
p205
aI01
aa(lp206
V2017-12-16 09:58
p207
aV187.5
p208
aV0.86
p209
aV0.80
p210
aI01
aa(lp211
V2017-12-16 09:58
p212
aV185.5
p213
aV0.87
p214
aV0.79
p215
aI01
aa(lp216
V2017-12-16 09:58
p217
aV185.5
p218
aV0.89
p219
aV0.77
p220
aI01
aa(lp221
V2017-12-16 09:58
p222
aV185.5
p223
aV0.80
p224
aV0.86
p225
aI01
aa(lp226
V2017-12-16 09:57
p227
aV184.5
p228
aV0.83
p229
aV0.83
p230
aI01
aa(lp231
V2017-12-16 09:57
p232
aV185.5
p233
aV0.83
p234
aV0.83
p235
aI01
aa(lp236
V2017-12-16 09:57
p237
aV186.5
p238
aV0.83
p239
aV0.83
p240
aI01
aa(lp241
V2017-12-16 09:57
p242
aV185.5
p243
aV0.83
p244
aV0.83
p245
aI01
aa(lp246
V2017-12-16 09:56
p247
aV186.5
p248
aV0.83
p249
aV0.83
p250
aI01
aa(lp251
V2017-12-16 09:55
p252
aV187.5
p253
aV0.83
p254
aV0.83
p255
aI01
aa(lp256
V2017-12-16 09:55
p257
aV189.5
p258
aV0.83
p259
aV0.83
p260
aI01
aa(lp261
V2017-12-16 09:55
p262
aV188.5
p263
aV0.83
p264
aV0.83
p265
aI01
aa(lp266
V2017-12-16 09:53
p267
aV189.5
p268
aV0.83
p269
aV0.83
p270
aI01
aa(lp271
V2017-12-16 09:51
p272
aV188.5
p273
aV0.83
p274
aV0.83
p275
aI01
aa(lp276
V2017-12-16 09:51
p277
aV189.5
p278
aV0.83
p279
aV0.83
p280
aI01
aa(lp281
V2017-12-16 09:51
p282
aV190.5
p283
aV0.83
p284
aV0.83
p285
aI01
aa(lp286
V2017-12-16 09:51
p287
aV189.5
p288
aV0.83
p289
aV0.83
p290
aI01
aa(lp291
V2017-12-16 09:51
p292
aV187.5
p293
aV0.83
p294
aV0.83
p295
aI01
aa(lp296
V2017-12-16 09:51
p297
aV188.5
p298
aV0.83
p299
aV0.83
p300
aI01
aa(lp301
V2017-12-16 09:51
p302
aV187.5
p303
aV0.83
p304
aV0.83
p305
aI01
aa(lp306
V2017-12-16 09:50
p307
aV188.5
p308
aV0.83
p309
aV0.83
p310
aI01
aa(lp311
V2017-12-16 09:49
p312
aV189.5
p313
aV0.83
p314
aV0.83
p315
aI01
aa(lp316
V2017-12-16 09:49
p317
aV190.5
p318
aV0.83
p319
aV0.83
p320
aI01
aa(lp321
V2017-12-16 09:49
p322
aV189.5
p323
aV0.83
p324
aV0.83
p325
aI01
aa(lp326
V2017-12-16 09:48
p327
aV188.5
p328
aV0.83
p329
aV0.83
p330
aI01
aa(lp331
V2017-12-16 09:48
p332
aV189.5
p333
aV0.83
p334
aV0.83
p335
aI01
aa(lp336
V2017-12-16 09:46
p337
aV190.5
p338
aV0.83
p339
aV0.83
p340
aI01
aa(lp341
V2017-12-16 09:44
p342
aV191.5
p343
aV0.83
p344
aV0.83
p345
aI01
aa(lp346
V2017-12-16 09:44
p347
aV190.5
p348
aV0.83
p349
aV0.83
p350
aI01
aa(lp351
V2017-12-16 09:44
p352
aV189.5
p353
aV0.83
p354
aV0.83
p355
aI01
aa(lp356
V2017-12-16 09:43
p357
aV190.5
p358
aV0.83
p359
aV0.83
p360
aI01
aa(lp361
V2017-12-16 09:43
p362
aV191.5
p363
aV0.83
p364
aV0.83
p365
aI01
aa(lp366
V2017-12-16 09:42
p367
aV190.5
p368
aV0.83
p369
aV0.83
p370
aI01
aa(lp371
V2017-12-16 09:42
p372
aV189.5
p373
aV0.83
p374
aV0.83
p375
aI01
aa(lp376
V2017-12-16 09:42
p377
aV188.5
p378
aV0.83
p379
aV0.83
p380
aI01
aa(lp381
V2017-12-16 09:41
p382
aV187.5
p383
aV0.83
p384
aV0.83
p385
aI01
aa(lp386
V2017-12-16 09:41
p387
aV188.5
p388
aV0.83
p389
aV0.83
p390
aI01
aa(lp391
V2017-12-16 09:39
p392
aV189.5
p393
aV0.83
p394
aV0.83
p395
aI01
aa(lp396
V2017-12-16 09:39
p397
aV188.5
p398
aV0.83
p399
aV0.83
p400
aI01
aa(lp401
V2017-12-16 09:39
p402
aV189.5
p403
aV0.83
p404
aV0.83
p405
aI01
aa(lp406
V2017-12-16 09:39
p407
aV188.5
p408
aV0.83
p409
aV0.83
p410
aI01
aa(lp411
V2017-12-16 09:38
p412
aV186.5
p413
aV0.83
p414
aV0.83
p415
aI01
aa(lp416
V2017-12-16 09:38
p417
aV187.5
p418
aV0.83
p419
aV0.83
p420
aI01
aa(lp421
V2017-12-16 09:38
p422
aV188.5
p423
aV0.83
p424
aV0.83
p425
aI01
aa(lp426
V2017-12-16 09:35
p427
aV187.5
p428
aV0.83
p429
aV0.83
p430
aI01
aa(lp431
V2017-12-16 09:34
p432
aV188.5
p433
aV0.83
p434
aV0.83
p435
aI01
aa(lp436
V2017-12-16 09:34
p437
aV187.5
p438
aV0.83
p439
aV0.83
p440
aI01
aa(lp441
V2017-12-16 09:34
p442
aV188.5
p443
aV0.83
p444
aV0.83
p445
aI01
aa(lp446
V2017-12-16 09:34
p447
aV187.5
p448
aV0.83
p449
aV0.83
p450
aI01
aa(lp451
V2017-12-16 09:33
p452
aV188.5
p453
aV0.83
p454
aV0.83
p455
aI01
aa(lp456
V2017-12-16 09:33
p457
aV186.5
p458
aV0.83
p459
aV0.83
p460
aI01
aa(lp461
V2017-12-16 09:32
p462
aV187.5
p463
aV0.83
p464
aV0.83
p465
aI01
aa(lp466
V2017-12-16 09:31
p467
aV188.5
p468
aV0.83
p469
aV0.83
p470
aI01
aa(lp471
V2017-12-16 09:31
p472
aV187.5
p473
aV0.83
p474
aV0.83
p475
aI01
aa(lp476
V2017-12-16 09:31
p477
aV188.5
p478
aV0.83
p479
aV0.83
p480
aI01
aa(lp481
V2017-12-16 09:31
p482
aV189.5
p483
aV0.83
p484
aV0.83
p485
aI01
aa(lp486
V2017-12-16 09:30
p487
aV190.5
p488
aV0.83
p489
aV0.83
p490
aI01
aa(lp491
V2017-12-16 09:30
p492
aV191.5
p493
aV0.83
p494
aV0.83
p495
aI01
aa(lp496
V2017-12-16 09:29
p497
aV192.5
p498
aV0.83
p499
aV0.83
p500
aI01
aa(lp501
V2017-12-16 09:29
p502
aV193.5
p503
aV0.83
p504
aV0.83
p505
aI01
aa(lp506
V2017-12-16 09:29
p507
aV194.5
p508
aV0.83
p509
aV0.83
p510
aI01
aa(lp511
V2017-12-16 09:29
p512
aV193.5
p513
aV0.83
p514
aV0.83
p515
aI01
aa(lp516
V2017-12-16 09:28
p517
aV194.5
p518
aV0.83
p519
aV0.83
p520
aI01
aa(lp521
V2017-12-16 09:28
p522
aV193.5
p523
aV0.83
p524
aV0.83
p525
aI01
aa(lp526
V2017-12-16 09:28
p527
aV192.5
p528
aV0.83
p529
aV0.83
p530
aI01
aa(lp531
V2017-12-16 09:28
p532
aV191.5
p533
aV0.83
p534
aV0.83
p535
aI01
aa(lp536
V2017-12-16 09:27
p537
aV192.5
p538
aV0.83
p539
aV0.83
p540
aI01
aa(lp541
V2017-12-16 09:27
p542
aV193.5
p543
aV0.83
p544
aV0.83
p545
aI01
aa(lp546
V2017-12-16 09:27
p547
aV194.5
p548
aV0.83
p549
aV0.83
p550
aI01
aa(lp551
V2017-12-16 09:15
p552
aV193.5
p553
aV0.83
p554
aV0.83
p555
aI01
aa(lp556
V2017-12-16 09:09
p557
aV192.5
p558
aV0.83
p559
aV0.83
p560
aI01
aa(lp561
V2017-12-16 09:08
p562
aV191.5
p563
aV0.83
p564
aV0.83
p565
aI01
aa(lp566
V2017-12-16 09:07
p567
aV192.5
p568
aV0.83
p569
aV0.83
p570
aI01
aa(lp571
V2017-12-16 09:07
p572
aV191.5
p573
aV0.83
p574
aV0.83
p575
aI01
aa(lp576
V2017-12-16 09:07
p577
aV192.5
p578
aV0.83
p579
aV0.83
p580
aI01
aa(lp581
V2017-12-16 09:06
p582
aV193.5
p583
aV0.83
p584
aV0.83
p585
aI01
aa(lp586
V2017-12-16 09:06
p587
aV194.5
p588
aV0.83
p589
aV0.83
p590
aI01
aa(lp591
V2017-12-16 09:06
p592
aV195.5
p593
aV0.83
p594
aV0.83
p595
aI01
aa(lp596
V2017-12-16 09:02
p597
aV196.5
p598
aV0.83
p599
aV0.83
p600
aI01
aa(lp601
V2017-12-16 09:02
p602
aV197.5
p603
aV0.83
p604
aV0.83
p605
aI01
aa(lp606
V2017-12-16 09:01
p607
aV196.5
p608
aV0.83
p609
aV0.83
p610
aI01
aa(lp611
V2017-12-16 09:01
p612
aV195.5
p613
aV0.83
p614
aV0.83
p615
aI01
aa(lp616
V2017-12-16 09:00
p617
aV193.5
p618
aV0.83
p619
aV0.83
p620
aI01
aa(lp621
V2017-12-16 09:00
p622
aV194.5
p623
aV0.83
p624
aV0.83
p625
aI01
aa(lp626
V2017-12-16 08:59
p627
aV195.5
p628
aV0.83
p629
aV0.83
p630
aI01
aa(lp631
V2017-12-16 08:59
p632
aV194.5
p633
aV0.83
p634
aV0.83
p635
aI01
aa(lp636
V2017-12-16 08:59
p637
aV195.5
p638
aV0.83
p639
aV0.83
p640
aI01
aa(lp641
V2017-12-16 08:58
p642
aV196.5
p643
aV0.83
p644
aV0.83
p645
aI01
aa(lp646
V2017-12-16 08:57
p647
aV195.5
p648
aV0.83
p649
aV0.83
p650
aI01
aa(lp651
V2017-12-16 08:57
p652
aV196.5
p653
aV0.83
p654
aV0.83
p655
aI01
aa(lp656
V2017-12-16 08:57
p657
aV197.5
p658
aV0.83
p659
aV0.83
p660
aI01
aa(lp661
V2017-12-16 08:56
p662
aV196.5
p663
aV0.83
p664
aV0.83
p665
aI01
aa(lp666
V2017-12-16 08:56
p667
aV195.5
p668
aV0.83
p669
aV0.83
p670
aI01
aa(lp671
V2017-12-16 08:56
p672
aV193.5
p673
aV0.70
p674
aV0.96
p675
aI01
aa(lp676
V2017-12-16 08:56
p677
aV194.5
p678
aV0.83
p679
aV0.83
p680
aI01
aa(lp681
V2017-12-16 08:56
p682
aV192.5
p683
aV0.83
p684
aV0.83
p685
aI01
aa(lp686
V2017-12-16 08:55
p687
aV193.5
p688
aV0.83
p689
aV0.83
p690
aI01
aa(lp691
V2017-12-16 08:55
p692
aV192.5
p693
aV0.83
p694
aV0.83
p695
aI01
aa(lp696
V2017-12-16 08:55
p697
aV190.5
p698
aV0.83
p699
aV0.83
p700
aI01
aa(lp701
V2017-12-16 08:55
p702
aV191.5
p703
aV0.83
p704
aV0.83
p705
aI01
aa(lp706
V2017-12-16 08:52
p707
aV192.5
p708
aV0.83
p709
aV0.83
p710
aI01
aa(lp711
V2017-12-16 08:51
p712
aV193.5
p713
aV0.83
p714
aV0.83
p715
aI01
aa(lp716
V2017-12-16 08:51
p717
aV192.5
p718
aV0.83
p719
aV0.83
p720
aI01
aa(lp721
V2017-12-16 08:51
p722
aV193.5
p723
aV0.83
p724
aV0.83
p725
aI01
aa(lp726
V2017-12-16 08:51
p727
aV194.5
p728
aV0.83
p729
aV0.83
p730
aI01
aa(lp731
V2017-12-16 08:50
p732
aV192.5
p733
aV0.83
p734
aV0.83
p735
aI01
aa(lp736
V2017-12-16 08:50
p737
aV193.5
p738
aV0.83
p739
aV0.83
p740
aI01
aa(lp741
V2017-12-16 08:50
p742
aV194.5
p743
aV0.83
p744
aV0.83
p745
aI01
aa(lp746
V2017-12-16 08:49
p747
aV195.5
p748
aV0.83
p749
aV0.83
p750
aI01
aa(lp751
V2017-12-16 08:48
p752
aV194.5
p753
aV0.83
p754
aV0.83
p755
aI01
aa(lp756
V2017-12-16 08:47
p757
aV195.5
p758
aV0.83
p759
aV0.83
p760
aI01
aa(lp761
V2017-12-16 08:47
p762
aV196.5
p763
aV0.83
p764
aV0.83
p765
aI01
aa(lp766
V2017-12-16 08:46
p767
aV195.5
p768
aV0.83
p769
aV0.83
p770
aI01
aa(lp771
V2017-12-16 08:46
p772
aV196.5
p773
aV0.83
p774
aV0.83
p775
aI01
aa(lp776
V2017-12-16 08:46
p777
aV195.5
p778
aV0.83
p779
aV0.83
p780
aI01
aa(lp781
V2017-12-16 08:45
p782
aV196.5
p783
aV0.83
p784
aV0.83
p785
aI01
aa(lp786
V2017-12-16 08:44
p787
aV197.5
p788
aV0.83
p789
aV0.83
p790
aI01
aa(lp791
V2017-12-16 08:44
p792
aV198.5
p793
aV0.83
p794
aV0.83
p795
aI01
aa(lp796
V2017-12-16 08:43
p797
aV197.5
p798
aV0.83
p799
aV0.83
p800
aI01
aa(lp801
V2017-12-16 08:42
p802
aV198.5
p803
aV0.83
p804
aV0.83
p805
aI01
aa(lp806
V2017-12-16 08:42
p807
aV199.5
p808
aV0.83
p809
aV0.83
p810
aI01
aa(lp811
V2017-12-16 08:39
p812
aV198.5
p813
aV0.83
p814
aV0.83
p815
aI01
aa(lp816
V2017-12-16 08:38
p817
aV199.5
p818
aV0.83
p819
aV0.83
p820
aI01
aa(lp821
V2017-12-16 08:37
p822
aV197.5
p823
aV0.83
p824
aV0.83
p825
aI01
aa(lp826
V2017-12-16 08:37
p827
aV198.5
p828
aV0.83
p829
aV0.83
p830
aI01
aa(lp831
V2017-12-16 08:37
p832
aV199.5
p833
aV0.83
p834
aV0.83
p835
aI01
aa(lp836
V2017-12-16 08:36
p837
aV198.5
p838
aV0.83
p839
aV0.83
p840
aI01
aa(lp841
V2017-12-16 08:35
p842
aV199.5
p843
aV0.83
p844
aV0.83
p845
aI01
aa(lp846
V2017-12-16 08:35
p847
aV200.5
p848
aV0.83
p849
aV0.83
p850
aI01
aa(lp851
V2017-12-16 08:34
p852
aV201.5
p853
aV0.83
p854
aV0.83
p855
aI01
aa(lp856
V2017-12-16 08:34
p857
aV202.5
p858
aV0.83
p859
aV0.83
p860
aI01
aa(lp861
V2017-12-16 08:34
p862
aV201.5
p863
aV0.83
p864
aV0.83
p865
aI01
aa(lp866
V2017-12-16 08:34
p867
aV202.5
p868
aV0.83
p869
aV0.83
p870
aI01
aa(lp871
V2017-12-16 08:33
p872
aV201.5
p873
aV0.83
p874
aV0.83
p875
aI01
aa(lp876
V2017-12-16 08:33
p877
aV202.5
p878
aV0.83
p879
aV0.83
p880
aI01
aa(lp881
V2017-12-16 08:33
p882
aV200.5
p883
aV0.83
p884
aV0.83
p885
aI01
aa(lp886
V2017-12-16 08:29
p887
aV201.5
p888
aV0.83
p889
aV0.83
p890
aI01
aa(lp891
V2017-12-16 08:29
p892
aV200.5
p893
aV0.83
p894
aV0.83
p895
aI01
aa(lp896
V2017-12-16 08:29
p897
aV201.5
p898
aV0.83
p899
aV0.83
p900
aI01
aa(lp901
V2017-12-16 08:28
p902
aV200.5
p903
aV0.83
p904
aV0.83
p905
aI01
aa(lp906
V2017-12-16 08:28
p907
aV199.5
p908
aV0.83
p909
aV0.83
p910
aI01
aa(lp911
V2017-12-16 08:28
p912
aV200.5
p913
aV0.83
p914
aV0.83
p915
aI01
aa(lp916
V2017-12-16 08:27
p917
aV199.5
p918
aV0.83
p919
aV0.83
p920
aI01
aa(lp921
V2017-12-16 08:26
p922
aV198.5
p923
aV0.83
p924
aV0.83
p925
aI01
aa(lp926
V2017-12-16 08:26
p927
aV196.5
p928
aV0.72
p929
aV0.94
p930
aI01
aa(lp931
V2017-12-16 08:26
p932
aV197.5
p933
aV0.83
p934
aV0.83
p935
aI01
aa(lp936
V2017-12-16 08:26
p937
aV198.5
p938
aV0.83
p939
aV0.83
p940
aI01
aa(lp941
V2017-12-16 08:25
p942
aV199.5
p943
aV0.83
p944
aV0.83
p945
aI01
aa(lp946
V2017-12-16 08:22
p947
aV200.5
p948
aV0.83
p949
aV0.83
p950
aI01
aa(lp951
V2017-12-16 08:21
p952
aV201.5
p953
aV0.83
p954
aV0.83
p955
aI01
aa(lp956
V2017-12-16 08:21
p957
aV202.5
p958
aV0.83
p959
aV0.83
p960
aI01
aa(lp961
V2017-12-16 08:21
p962
aV201.5
p963
aV0.83
p964
aV0.83
p965
aI01
aa(lp966
V2017-12-16 08:21
p967
aV202.5
p968
aV0.83
p969
aV0.83
p970
aI01
aa(lp971
V2017-12-16 08:20
p972
aV203.5
p973
aV0.83
p974
aV0.83
p975
aI01
aa(lp976
V2017-12-16 08:20
p977
aV202.5
p978
aV0.83
p979
aV0.83
p980
aI01
aa(lp981
V2017-12-16 08:19
p982
aV203.5
p983
aV0.83
p984
aV0.83
p985
aI01
aa(lp986
V2017-12-16 08:19
p987
aV202.5
p988
aV0.83
p989
aV0.83
p990
aI01
aa(lp991
V2017-12-16 08:19
p992
aV203.5
p993
aV0.83
p994
aV0.83
p995
aI01
aa(lp996
V2017-12-16 08:19
p997
aV204.5
p998
aV0.83
p999
aV0.83
p1000
aI01
aa(lp1001
V2017-12-16 08:18
p1002
aV206.5
p1003
aV0.83
p1004
aV0.83
p1005
aI01
aa(lp1006
V2017-12-16 08:17
p1007
aV207.5
p1008
aV0.83
p1009
aV0.83
p1010
aI01
aa(lp1011
V2017-12-16 08:17
p1012
aV206.5
p1013
aV0.83
p1014
aV0.83
p1015
aI01
aa(lp1016
V2017-12-16 08:16
p1017
aV205.5
p1018
aV0.83
p1019
aV0.83
p1020
aI01
aa(lp1021
V2017-12-16 08:16
p1022
aV204.5
p1023
aV0.83
p1024
aV0.83
p1025
aI01
aa(lp1026
V2017-12-16 08:16
p1027
aV205.5
p1028
aV0.83
p1029
aV0.83
p1030
aI01
aa(lp1031
V2017-12-16 08:15
p1032
aV206.5
p1033
aV0.83
p1034
aV0.83
p1035
aI01
aa(lp1036
V2017-12-16 08:15
p1037
aV205.5
p1038
aV0.83
p1039
aV0.83
p1040
aI01
aa(lp1041
V2017-12-16 08:14
p1042
aV206.5
p1043
aV0.83
p1044
aV0.83
p1045
aI01
aa(lp1046
V2017-12-16 08:13
p1047
aV207.5
p1048
aV0.83
p1049
aV0.83
p1050
aI01
aa(lp1051
V2017-12-16 08:13
p1052
aV206.5
p1053
aV0.83
p1054
aV0.83
p1055
aI01
aa(lp1056
V2017-12-16 08:13
p1057
aV205.5
p1058
aV0.83
p1059
aV0.83
p1060
aI01
aa(lp1061
V2017-12-16 08:13
p1062
aV206.5
p1063
aV0.83
p1064
aV0.83
p1065
aI01
aa(lp1066
V2017-12-16 08:12
p1067
aV207.5
p1068
aV0.83
p1069
aV0.83
p1070
aI01
aa(lp1071
V2017-12-16 08:11
p1072
aV208.5
p1073
aV0.83
p1074
aV0.83
p1075
aI01
aa(lp1076
V2017-12-16 08:11
p1077
aV209.5
p1078
aV0.83
p1079
aV0.83
p1080
aI00
aa(lp1081
V2017-12-16 08:00
p1082
aV208.5
p1083
aV0.83
p1084
aV0.83
p1085
aI00
aa(lp1086
V2017-12-16 04:33
p1087
aV208.5
p1088
aV0.93
p1089
aV0.93
p1090
aI00
aa(lp1091
V2017-12-16 04:14
p1092
aV208.5
p1093
aV0.95
p1094
aV0.91
p1095
aI00
aa(lp1096
V2017-12-16 04:03
p1097
aV208.5
p1098
aV0.95
p1099
aV0.89
p1100
aI00
aa(lp1101
V2017-12-16 04:03
p1102
aV208.5
p1103
aV0.94
p1104
aV0.90
p1105
aI00
aa(lp1106
V2017-12-16 04:03
p1107
aV208.5
p1108
aV0.91
p1109
aV0.93
p1110
aI00
aa(lp1111
V2017-12-16 03:47
p1112
aV208.5
p1113
aV0.95
p1114
aV0.89
p1115
aI00
aa(lp1116
V2017-12-16 03:44
p1117
aV208.5
p1118
aV0.97
p1119
aV0.87
p1120
aI00
aa(lp1121
V2017-12-16 02:16
p1122
aV208.5
p1123
aV0.92
p1124
aV0.92
p1125
aI00
aa(lp1126
V2017-12-16 02:01
p1127
aV208.5
p1128
aV0.94
p1129
aV0.90
p1130
aI00
aa(lp1131
V2017-12-16 02:01
p1132
aV207.5
p1133
aV0.83
p1134
aV1.01
p1135
aI00
aa(lp1136
V2017-12-16 00:24
p1137
aV208.5
p1138
aV0.94
p1139
aV0.90
p1140
aI00
aa(lp1141
V2017-12-15 22:16
p1142
aV209.5
p1143
aV1.00
p1144
aV0.84
p1145
aI00
aa(lp1146
V2017-12-15 19:12
p1147
aV209.5
p1148
aV0.94
p1149
aV0.90
p1150
aI00
aa(lp1151
V2017-12-15 19:11
p1152
aV208.5
p1153
aV0.84
p1154
aV1.00
p1155
aI00
aa(lp1156
V2017-12-15 18:03
p1157
aV209.5
p1158
aV0.94
p1159
aV0.90
p1160
aI00
aa(lp1161
V2017-12-15 15:39
p1162
aV209.5
p1163
aV0.90
p1164
aV0.94
p1165
aI00
aa(lp1166
V2017-12-15 15:39
p1167
aV208.5
p1168
aV0.82
p1169
aV1.02
p1170
aI00
aa(lp1171
V2017-12-15 15:37
p1172
aV209.5
p1173
aV0.90
p1174
aV0.94
p1175
aI00
aa(lp1176
V2017-12-15 14:39
p1177
aV209.5
p1178
aV0.88
p1179
aV0.96
p1180
aI00
aa(lp1181
V2017-12-15 11:40
p1182
aV209.5
p1183
aV0.86
p1184
aV0.98
p1185
aI00
aasS'sbo'
p1186
(lp1187
(lp1188
V2017-12-16 10:06
p1189
aV189.5
p1190
aV0.85
p1191
aV0.85
p1192
aI01
aa(lp1193
V2017-12-16 10:05
p1194
aV188.5
p1195
aV1.00
p1196
aV0.70
p1197
aI01
aa(lp1198
V2017-12-16 10:05
p1199
aV190.5
p1200
aV1.00
p1201
aV0.70
p1202
aI01
aa(lp1203
V2017-12-16 10:04
p1204
aV188.5
p1205
aV0.85
p1206
aV0.85
p1207
aI01
aa(lp1208
V2017-12-16 10:03
p1209
aV188.5
p1210
aV1.00
p1211
aV0.70
p1212
aI01
aa(lp1213
V2017-12-16 10:02
p1214
aV190.5
p1215
aV1.00
p1216
aV0.70
p1217
aI01
aa(lp1218
V2017-12-16 09:59
p1219
aV188.5
p1220
aV0.85
p1221
aV0.85
p1222
aI01
aa(lp1223
V2017-12-16 09:59
p1224
aV188.5
p1225
aV1.00
p1226
aV0.70
p1227
aI01
aa(lp1228
V2017-12-16 09:58
p1229
aV188.5
p1230
aV0.85
p1231
aV0.85
p1232
aI01
aa(lp1233
V2017-12-16 09:58
p1234
aV188.5
p1235
aV1.00
p1236
aV0.70
p1237
aI01
aa(lp1238
V2017-12-16 09:58
p1239
aV188.5
p1240
aV0.85
p1241
aV0.85
p1242
aI01
aa(lp1243
V2017-12-16 09:56
p1244
aV190.5
p1245
aV1.00
p1246
aV0.70
p1247
aI01
aa(lp1248
V2017-12-16 09:55
p1249
aV190.5
p1250
aV0.85
p1251
aV0.85
p1252
aI01
aa(lp1253
V2017-12-16 09:55
p1254
aV190.5
p1255
aV1.00
p1256
aV0.70
p1257
aI01
aa(lp1258
V2017-12-16 09:55
p1259
aV190.5
p1260
aV0.85
p1261
aV0.85
p1262
aI01
aa(lp1263
V2017-12-16 09:52
p1264
aV191.5
p1265
aV1.00
p1266
aV0.70
p1267
aI01
aa(lp1268
V2017-12-16 09:50
p1269
aV192.5
p1270
aV1.00
p1271
aV0.70
p1272
aI01
aa(lp1273
V2017-12-16 09:49
p1274
aV190.5
p1275
aV1.00
p1276
aV0.70
p1277
aI01
aa(lp1278
V2017-12-16 09:49
p1279
aV190.5
p1280
aV0.85
p1281
aV0.85
p1282
aI01
aa(lp1283
V2017-12-16 09:48
p1284
aV190.5
p1285
aV1.00
p1286
aV0.70
p1287
aI01
aa(lp1288
V2017-12-16 09:48
p1289
aV190.5
p1290
aV0.85
p1291
aV0.85
p1292
aI01
aa(lp1293
V2017-12-16 09:48
p1294
aV192.5
p1295
aV1.00
p1296
aV0.70
p1297
aI01
aa(lp1298
V2017-12-16 09:46
p1299
aV192.5
p1300
aV0.85
p1301
aV0.85
p1302
aI01
aa(lp1303
V2017-12-16 09:43
p1304
aV192.5
p1305
aV1.00
p1306
aV0.70
p1307
aI01
aa(lp1308
V2017-12-16 09:43
p1309
aV194.5
p1310
aV1.00
p1311
aV0.70
p1312
aI01
aa(lp1313
V2017-12-16 09:40
p1314
aV190.5
p1315
aV1.00
p1316
aV0.70
p1317
aI01
aa(lp1318
V2017-12-16 09:39
p1319
aV190.5
p1320
aV0.85
p1321
aV0.85
p1322
aI01
aa(lp1323
V2017-12-16 09:39
p1324
aV190.5
p1325
aV1.00
p1326
aV0.70
p1327
aI01
aa(lp1328
V2017-12-16 09:35
p1329
aV188.5
p1330
aV0.85
p1331
aV0.85
p1332
aI01
aa(lp1333
V2017-12-16 09:35
p1334
aV190.5
p1335
aV1.00
p1336
aV0.70
p1337
aI01
aa(lp1338
V2017-12-16 09:34
p1339
aV188.5
p1340
aV0.85
p1341
aV0.85
p1342
aI01
aa(lp1343
V2017-12-16 09:33
p1344
aV188.5
p1345
aV1.00
p1346
aV0.70
p1347
aI01
aa(lp1348
V2017-12-16 09:32
p1349
aV190.5
p1350
aV1.00
p1351
aV0.70
p1352
aI01
aa(lp1353
V2017-12-16 09:31
p1354
aV190.5
p1355
aV0.85
p1356
aV0.85
p1357
aI01
aa(lp1358
V2017-12-16 09:30
p1359
aV192.5
p1360
aV1.00
p1361
aV0.70
p1362
aI01
aa(lp1363
V2017-12-16 09:29
p1364
aV196.5
p1365
aV1.00
p1366
aV0.70
p1367
aI01
aa(lp1368
V2017-12-16 09:27
p1369
aV194.5
p1370
aV1.00
p1371
aV0.70
p1372
aI01
aa(lp1373
V2017-12-16 09:24
p1374
aV193.5
p1375
aV0.80
p1376
aV0.90
p1377
aI01
aa(lp1378
V2017-12-16 09:22
p1379
aV193.5
p1380
aV0.91
p1381
aV0.95
p1382
aI01
aa(lp1383
V2017-12-16 09:15
p1384
aV193.5
p1385
aV0.86
p1386
aV1.00
p1387
aI01
aa(lp1388
V2017-12-16 09:14
p1389
aV193.5
p1390
aV0.81
p1391
aV1.05
p1392
aI01
aa(lp1393
V2017-12-16 09:05
p1394
aV196.5
p1395
aV1.00
p1396
aV0.70
p1397
aI01
aa(lp1398
V2017-12-16 09:02
p1399
aV195.5
p1400
aV0.85
p1401
aV0.85
p1402
aI01
aa(lp1403
V2017-12-16 09:00
p1404
aV196.5
p1405
aV1.00
p1406
aV0.70
p1407
aI01
aa(lp1408
V2017-12-16 09:00
p1409
aV196.5
p1410
aV0.85
p1411
aV0.85
p1412
aI01
aa(lp1413
V2017-12-16 09:00
p1414
aV196.5
p1415
aV0.80
p1416
aV0.90
p1417
aI01
aa(lp1418
V2017-12-16 08:59
p1419
aV196.5
p1420
aV0.85
p1421
aV0.85
p1422
aI01
aa(lp1423
V2017-12-16 08:58
p1424
aV198.5
p1425
aV1.00
p1426
aV0.70
p1427
aI01
aa(lp1428
V2017-12-16 08:58
p1429
aV196.5
p1430
aV0.85
p1431
aV0.85
p1432
aI01
aa(lp1433
V2017-12-16 08:58
p1434
aV196.5
p1435
aV0.80
p1436
aV0.90
p1437
aI01
aa(lp1438
V2017-12-16 08:58
p1439
aV196.5
p1440
aV0.75
p1441
aV0.95
p1442
aI01
aa(lp1443
V2017-12-16 08:57
p1444
aV196.5
p1445
aV1.00
p1446
aV0.70
p1447
aI01
aa(lp1448
V2017-12-16 08:57
p1449
aV198.5
p1450
aV0.95
p1451
aV0.75
p1452
aI01
aa(lp1453
V2017-12-16 08:57
p1454
aV198.5
p1455
aV0.85
p1456
aV0.85
p1457
aI01
aa(lp1458
V2017-12-16 08:57
p1459
aV198.5
p1460
aV0.90
p1461
aV0.80
p1462
aI01
aa(lp1463
V2017-12-16 08:56
p1464
aV196.5
p1465
aV1.00
p1466
aV0.70
p1467
aI01
aa(lp1468
V2017-12-16 08:55
p1469
aV194.5
p1470
aV1.00
p1471
aV0.70
p1472
aI01
aa(lp1473
V2017-12-16 08:52
p1474
aV193.5
p1475
aV0.85
p1476
aV0.85
p1477
aI01
aa(lp1478
V2017-12-16 08:48
p1479
aV196.5
p1480
aV1.11
p1481
aV0.60
p1482
aI01
aa(lp1483
V2017-12-16 08:46
p1484
aV196.5
p1485
aV1.00
p1486
aV0.70
p1487
aI01
aa(lp1488
V2017-12-16 08:46
p1489
aV198.5
p1490
aV1.25
p1491
aV0.50
p1492
aI01
aa(lp1493
V2017-12-16 08:46
p1494
aV198.5
p1495
aV1.11
p1496
aV0.60
p1497
aI01
aa(lp1498
V2017-12-16 08:45
p1499
aV198.5
p1500
aV1.00
p1501
aV0.70
p1502
aI01
aa(lp1503
V2017-12-16 08:43
p1504
aV198.5
p1505
aV0.85
p1506
aV0.85
p1507
aI01
aa(lp1508
V2017-12-16 08:42
p1509
aV200.5
p1510
aV1.00
p1511
aV0.70
p1512
aI01
aa(lp1513
V2017-12-16 08:42
p1514
aV200.5
p1515
aV0.85
p1516
aV0.85
p1517
aI01
aa(lp1518
V2017-12-16 08:41
p1519
aV198.5
p1520
aV0.85
p1521
aV0.85
p1522
aI01
aa(lp1523
V2017-12-16 08:39
p1524
aV197.5
p1525
aV0.70
p1526
aV1.00
p1527
aI01
aa(lp1528
V2017-12-16 08:38
p1529
aV198.5
p1530
aV0.85
p1531
aV0.85
p1532
aI01
aa(lp1533
V2017-12-16 08:38
p1534
aV198.5
p1535
aV1.00
p1536
aV0.70
p1537
aI01
aa(lp1538
V2017-12-16 08:36
p1539
aV198.5
p1540
aV0.85
p1541
aV0.85
p1542
aI01
aa(lp1543
V2017-12-16 08:33
p1544
aV202.5
p1545
aV1.00
p1546
aV0.70
p1547
aI01
aa(lp1548
V2017-12-16 08:33
p1549
aV202.5
p1550
aV0.85
p1551
aV0.85
p1552
aI01
aa(lp1553
V2017-12-16 08:30
p1554
aV201.5
p1555
aV0.70
p1556
aV1.00
p1557
aI01
aa(lp1558
V2017-12-16 08:29
p1559
aV202.5
p1560
aV0.85
p1561
aV0.85
p1562
aI01
aa(lp1563
V2017-12-16 08:27
p1564
aV202.5
p1565
aV1.00
p1566
aV0.70
p1567
aI01
aa(lp1568
V2017-12-16 08:26
p1569
aV200.5
p1570
aV1.00
p1571
aV0.70
p1572
aI01
aa(lp1573
V2017-12-16 08:25
p1574
aV200.5
p1575
aV0.85
p1576
aV0.85
p1577
aI01
aa(lp1578
V2017-12-16 08:23
p1579
aV201.5
p1580
aV1.00
p1581
aV0.70
p1582
aI01
aa(lp1583
V2017-12-16 08:22
p1584
aV200.5
p1585
aV0.85
p1586
aV0.85
p1587
aI01
aa(lp1588
V2017-12-16 08:22
p1589
aV206.5
p1590
aV1.11
p1591
aV0.60
p1592
aI01
aa(lp1593
V2017-12-16 08:19
p1594
aV206.5
p1595
aV1.00
p1596
aV0.70
p1597
aI01
aa(lp1598
V2017-12-16 08:19
p1599
aV208.5
p1600
aV1.00
p1601
aV0.70
p1602
aI01
aa(lp1603
V2017-12-16 08:19
p1604
aV210.5
p1605
aV1.11
p1606
aV0.60
p1607
aI01
aa(lp1608
V2017-12-16 08:18
p1609
aV210.5
p1610
aV1.00
p1611
aV0.70
p1612
aI01
aa(lp1613
V2017-12-16 08:17
p1614
aV208.5
p1615
aV1.00
p1616
aV0.70
p1617
aI01
aa(lp1618
V2017-12-16 08:16
p1619
aV206.5
p1620
aV0.85
p1621
aV0.85
p1622
aI01
aa(lp1623
V2017-12-16 08:16
p1624
aV208.5
p1625
aV0.85
p1626
aV0.85
p1627
aI01
aa(lp1628
V2017-12-16 08:11
p1629
aV210.5
p1630
aV1.00
p1631
aV0.70
p1632
aI01
aa(lp1633
V2017-12-16 08:11
p1634
aV208.5
p1635
aV0.80
p1636
aV0.90
p1637
aI00
aa(lp1638
V2017-12-16 08:00
p1639
aV209.5
p1640
aV0.95
p1641
aV0.75
p1642
aI00
aa(lp1643
V2017-12-16 08:00
p1644
aV209.5
p1645
aV0.85
p1646
aV0.85
p1647
aI00
aa(lp1648
V2017-12-16 05:05
p1649
aV210
p1650
aV1.05
p1651
aV0.83
p1652
aI00
aa(lp1653
V2017-12-16 02:55
p1654
aV210
p1655
aV1.08
p1656
aV0.80
p1657
aI00
aa(lp1658
V2017-12-16 02:26
p1659
aV210
p1660
aV1.05
p1661
aV0.83
p1662
aI00
aa(lp1663
V2017-12-15 21:36
p1664
aV210
p1665
aV1.08
p1666
aV0.80
p1667
aI00
aa(lp1668
V2017-12-15 19:47
p1669
aV210
p1670
aV1.03
p1671
aV0.85
p1672
aI00
aa(lp1673
V2017-12-15 16:52
p1674
aV210
p1675
aV0.98
p1676
aV0.90
p1677
aI00
aa(lp1678
V2017-12-15 14:43
p1679
aV210
p1680
aV0.96
p1681
aV0.92
p1682
aI00
aa(lp1683
V2017-12-15 10:49
p1684
aV210
p1685
aV0.93
p1686
aV0.95
p1687
aI00
aa(lp1688
V2017-12-15 07:11
p1689
aV210
p1690
aV0.91
p1691
aV0.95
p1692
aI00
aasS'wade'
p1693
(lp1694
(lp1695
V2017-12-16 07:58
p1696
aV208.5
p1697
aV0.90
p1698
aV0.80
p1699
aI00
aa(lp1700
V2017-12-16 07:55
p1701
aV206.5
p1702
aV0.75
p1703
aV1.00
p1704
aI00
aa(lp1705
V2017-12-16 07:51
p1706
aV208.5
p1707
aV0.90
p1708
aV0.80
p1709
aI00
aa(lp1710
V2017-12-16 07:02
p1711
aV208.5
p1712
aV0.90
p1713
aV0.90
p1714
aI00
aa(lp1715
V2017-12-16 04:07
p1716
aV209
p1717
aV0.90
p1718
aV0.90
p1719
aI00
aa(lp1720
V2017-12-16 01:57
p1721
aV208.5
p1722
aV0.90
p1723
aV0.90
p1724
aI00
aa(lp1725
V2017-12-16 00:24
p1726
aV208
p1727
aV0.90
p1728
aV0.90
p1729
aI00
aa(lp1730
V2017-12-16 00:17
p1731
aV208.5
p1732
aV0.90
p1733
aV0.90
p1734
aI00
aa(lp1735
V2017-12-15 21:34
p1736
aV209
p1737
aV0.90
p1738
aV0.90
p1739
aI00
aa(lp1740
V2017-12-15 15:42
p1741
aV209.5
p1742
aV0.90
p1743
aV0.90
p1744
aI00
aa(lp1745
V2017-12-15 07:11
p1746
aV210
p1747
aV0.90
p1748
aV0.90
p1749
aI00
aa(lp1750
V2017-12-15 05:37
p1751
aV209
p1752
aV0.85
p1753
aV0.95
p1754
aI00
aa(lp1755
V2017-12-15 04:59
p1756
aV209
p1757
aV0.90
p1758
aV0.90
p1759
aI00
aasS'game_id'
p1760
V294923
p1761
sS'bet365'
p1762
(lp1763
(lp1764
V2017-12-16 10:09
p1765
aV189.5
p1766
aV0.86
p1767
aV0.86
p1768
aI01
aa(lp1769
V2017-12-16 10:09
p1770
aV191.5
p1771
aV0.95
p1772
aV0.80
p1773
aI01
aa(lp1774
V2017-12-16 10:07
p1775
aV188.5
p1776
aV0.83
p1777
aV0.90
p1778
aI01
aa(lp1779
V2017-12-16 10:06
p1780
aV188.5
p1781
aV0.86
p1782
aV0.86
p1783
aI01
aa(lp1784
V2017-12-16 10:05
p1785
aV188.5
p1786
aV0.80
p1787
aV0.95
p1788
aI01
aa(lp1789
V2017-12-16 10:05
p1790
aV187.5
p1791
aV0.86
p1792
aV0.86
p1793
aI01
aa(lp1794
V2017-12-16 10:04
p1795
aV188.5
p1796
aV0.83
p1797
aV0.90
p1798
aI01
aa(lp1799
V2017-12-16 10:04
p1800
aV186.5
p1801
aV0.83
p1802
aV0.90
p1803
aI01
aa(lp1804
V2017-12-16 10:03
p1805
aV186.5
p1806
aV0.80
p1807
aV0.95
p1808
aI01
aa(lp1809
V2017-12-16 10:03
p1810
aV187.5
p1811
aV0.86
p1812
aV0.86
p1813
aI01
aa(lp1814
V2017-12-16 10:03
p1815
aV188.5
p1816
aV0.80
p1817
aV0.95
p1818
aI01
aa(lp1819
V2017-12-16 10:02
p1820
aV189.5
p1821
aV0.90
p1822
aV0.83
p1823
aI01
aa(lp1824
V2017-12-16 10:02
p1825
aV190.5
p1826
aV0.95
p1827
aV0.80
p1828
aI01
aa(lp1829
V2017-12-16 10:00
p1830
aV188.5
p1831
aV0.95
p1832
aV0.80
p1833
aI01
aa(lp1834
V2017-12-16 09:58
p1835
aV187.5
p1836
aV0.86
p1837
aV0.86
p1838
aI01
aa(lp1839
V2017-12-16 09:58
p1840
aV188.5
p1841
aV0.80
p1842
aV0.95
p1843
aI01
aa(lp1844
V2017-12-16 09:58
p1845
aV187.5
p1846
aV0.90
p1847
aV0.83
p1848
aI01
aa(lp1849
V2017-12-16 09:57
p1850
aV188.5
p1851
aV0.86
p1852
aV0.86
p1853
aI01
aa(lp1854
V2017-12-16 09:57
p1855
aV189.5
p1856
aV0.86
p1857
aV0.86
p1858
aI01
aa(lp1859
V2017-12-16 09:56
p1860
aV188.5
p1861
aV0.90
p1862
aV0.83
p1863
aI01
aa(lp1864
V2017-12-16 09:56
p1865
aV189.5
p1866
aV0.86
p1867
aV0.86
p1868
aI01
aa(lp1869
V2017-12-16 09:55
p1870
aV189.5
p1871
aV0.80
p1872
aV0.95
p1873
aI01
aa(lp1874
V2017-12-16 09:55
p1875
aV189.5
p1876
aV0.90
p1877
aV0.83
p1878
aI01
aa(lp1879
V2017-12-16 09:53
p1880
aV190.5
p1881
aV0.90
p1882
aV0.83
p1883
aI01
aa(lp1884
V2017-12-16 09:51
p1885
aV190.5
p1886
aV0.95
p1887
aV0.80
p1888
aI01
aa(lp1889
V2017-12-16 09:51
p1890
aV191.5
p1891
aV0.86
p1892
aV0.86
p1893
aI01
aa(lp1894
V2017-12-16 09:51
p1895
aV190.5
p1896
aV0.86
p1897
aV0.86
p1898
aI01
aa(lp1899
V2017-12-16 09:50
p1900
aV189.5
p1901
aV0.86
p1902
aV0.86
p1903
aI01
aa(lp1904
V2017-12-16 09:50
p1905
aV190.5
p1906
aV0.83
p1907
aV0.90
p1908
aI01
aa(lp1909
V2017-12-16 09:49
p1910
aV190.5
p1911
aV0.86
p1912
aV0.86
p1913
aI01
aa(lp1914
V2017-12-16 09:49
p1915
aV188.5
p1916
aV0.86
p1917
aV0.86
p1918
aI01
aa(lp1919
V2017-12-16 09:48
p1920
aV188.5
p1921
aV0.83
p1922
aV0.90
p1923
aI01
aa(lp1924
V2017-12-16 09:48
p1925
aV189.5
p1926
aV0.83
p1927
aV0.90
p1928
aI01
aa(lp1929
V2017-12-16 09:47
p1930
aV191.5
p1931
aV0.86
p1932
aV0.86
p1933
aI01
aa(lp1934
V2017-12-16 09:47
p1935
aV191.5
p1936
aV0.83
p1937
aV0.90
p1938
aI01
aa(lp1939
V2017-12-16 09:45
p1940
aV192.5
p1941
aV0.86
p1942
aV0.86
p1943
aI01
aa(lp1944
V2017-12-16 09:44
p1945
aV190.5
p1946
aV0.86
p1947
aV0.86
p1948
aI01
aa(lp1949
V2017-12-16 09:44
p1950
aV189.5
p1951
aV0.83
p1952
aV0.90
p1953
aI01
aa(lp1954
V2017-12-16 09:43
p1955
aV191.5
p1956
aV0.90
p1957
aV0.83
p1958
aI01
aa(lp1959
V2017-12-16 09:43
p1960
aV192.5
p1961
aV0.86
p1962
aV0.86
p1963
aI01
aa(lp1964
V2017-12-16 09:43
p1965
aV192.5
p1966
aV0.90
p1967
aV0.83
p1968
aI01
aa(lp1969
V2017-12-16 09:42
p1970
aV191.5
p1971
aV0.83
p1972
aV0.90
p1973
aI01
aa(lp1974
V2017-12-16 09:42
p1975
aV189.5
p1976
aV0.80
p1977
aV0.95
p1978
aI01
aa(lp1979
V2017-12-16 09:41
p1980
aV188.5
p1981
aV0.86
p1982
aV0.86
p1983
aI01
aa(lp1984
V2017-12-16 09:40
p1985
aV189.5
p1986
aV0.90
p1987
aV0.83
p1988
aI01
aa(lp1989
V2017-12-16 09:40
p1990
aV189.5
p1991
aV0.83
p1992
aV0.90
p1993
aI01
aa(lp1994
V2017-12-16 09:39
p1995
aV189.5
p1996
aV0.86
p1997
aV0.86
p1998
aI01
aa(lp1999
V2017-12-16 09:39
p2000
aV189.5
p2001
aV0.90
p2002
aV0.83
p2003
aI01
aa(lp2004
V2017-12-16 09:38
p2005
aV188.5
p2006
aV0.86
p2007
aV0.86
p2008
aI01
aa(lp2009
V2017-12-16 09:38
p2010
aV187.5
p2011
aV0.83
p2012
aV0.90
p2013
aI01
aa(lp2014
V2017-12-16 09:38
p2015
aV188.5
p2016
aV0.90
p2017
aV0.83
p2018
aI01
aa(lp2019
V2017-12-16 09:36
p2020
aV188.5
p2021
aV0.95
p2022
aV0.80
p2023
aI01
aa(lp2024
V2017-12-16 09:35
p2025
aV188.5
p2026
aV0.90
p2027
aV0.83
p2028
aI01
aa(lp2029
V2017-12-16 09:35
p2030
aV188.5
p2031
aV0.95
p2032
aV0.80
p2033
aI01
aa(lp2034
V2017-12-16 09:34
p2035
aV188.5
p2036
aV0.86
p2037
aV0.86
p2038
aI01
aa(lp2039
V2017-12-16 09:33
p2040
aV187.5
p2041
aV0.90
p2042
aV0.83
p2043
aI01
aa(lp2044
V2017-12-16 09:32
p2045
aV188.5
p2046
aV0.90
p2047
aV0.83
p2048
aI01
aa(lp2049
V2017-12-16 09:32
p2050
aV187.5
p2051
aV0.83
p2052
aV0.90
p2053
aI01
aa(lp2054
V2017-12-16 09:32
p2055
aV188.5
p2056
aV0.83
p2057
aV0.90
p2058
aI01
aa(lp2059
V2017-12-16 09:31
p2060
aV187.5
p2061
aV0.86
p2062
aV0.86
p2063
aI01
aa(lp2064
V2017-12-16 09:31
p2065
aV188.5
p2066
aV0.86
p2067
aV0.86
p2068
aI01
aa(lp2069
V2017-12-16 09:30
p2070
aV190.5
p2071
aV0.86
p2072
aV0.86
p2073
aI01
aa(lp2074
V2017-12-16 09:30
p2075
aV191.5
p2076
aV0.83
p2077
aV0.90
p2078
aI01
aa(lp2079
V2017-12-16 09:29
p2080
aV193.5
p2081
aV0.86
p2082
aV0.86
p2083
aI01
aa(lp2084
V2017-12-16 09:29
p2085
aV194.5
p2086
aV0.90
p2087
aV0.83
p2088
aI01
aa(lp2089
V2017-12-16 09:28
p2090
aV195.5
p2091
aV0.86
p2092
aV0.86
p2093
aI01
aa(lp2094
V2017-12-16 09:28
p2095
aV193.5
p2096
aV0.86
p2097
aV0.86
p2098
aI01
aa(lp2099
V2017-12-16 09:28
p2100
aV193.5
p2101
aV0.90
p2102
aV0.83
p2103
aI01
aa(lp2104
V2017-12-16 09:27
p2105
aV193.5
p2106
aV0.86
p2107
aV0.86
p2108
aI01
aa(lp2109
V2017-12-16 09:24
p2110
aV193.5
p2111
aV0.90
p2112
aV0.83
p2113
aI01
aa(lp2114
V2017-12-16 09:14
p2115
aV193.5
p2116
aV0.86
p2117
aV0.86
p2118
aI01
aa(lp2119
V2017-12-16 09:11
p2120
aV193.5
p2121
aV0.90
p2122
aV0.83
p2123
aI01
aa(lp2124
V2017-12-16 09:11
p2125
aV192.5
p2126
aV0.86
p2127
aV0.86
p2128
aI01
aa(lp2129
V2017-12-16 09:10
p2130
aV192.5
p2131
aV0.83
p2132
aV0.90
p2133
aI01
aa(lp2134
V2017-12-16 09:09
p2135
aV193.5
p2136
aV0.83
p2137
aV0.90
p2138
aI01
aa(lp2139
V2017-12-16 09:09
p2140
aV193.5
p2141
aV0.90
p2142
aV0.83
p2143
aI01
aa(lp2144
V2017-12-16 09:09
p2145
aV192.5
p2146
aV0.90
p2147
aV0.83
p2148
aI01
aa(lp2149
V2017-12-16 09:08
p2150
aV191.5
p2151
aV0.86
p2152
aV0.86
p2153
aI01
aa(lp2154
V2017-12-16 09:07
p2155
aV192.5
p2156
aV0.86
p2157
aV0.86
p2158
aI01
aa(lp2159
V2017-12-16 09:07
p2160
aV191.5
p2161
aV0.90
p2162
aV0.83
p2163
aI01
aa(lp2164
V2017-12-16 09:07
p2165
aV192.5
p2166
aV0.86
p2167
aV0.86
p2168
aI01
aa(lp2169
V2017-12-16 09:06
p2170
aV193.5
p2171
aV0.86
p2172
aV0.86
p2173
aI01
aa(lp2174
V2017-12-16 09:06
p2175
aV195.5
p2176
aV0.86
p2177
aV0.86
p2178
aI01
aa(lp2179
V2017-12-16 09:04
p2180
aV194.5
p2181
aV0.83
p2182
aV0.90
p2183
aI01
aa(lp2184
V2017-12-16 09:02
p2185
aV195.5
p2186
aV0.86
p2187
aV0.86
p2188
aI01
aa(lp2189
V2017-12-16 09:02
p2190
aV196.5
p2191
aV0.86
p2192
aV0.86
p2193
aI01
aa(lp2194
V2017-12-16 09:01
p2195
aV195.5
p2196
aV0.86
p2197
aV0.86
p2198
aI01
aa(lp2199
V2017-12-16 09:01
p2200
aV196.5
p2201
aV0.90
p2202
aV0.83
p2203
aI01
aa(lp2204
V2017-12-16 09:00
p2205
aV195.5
p2206
aV0.86
p2207
aV0.86
p2208
aI01
aa(lp2209
V2017-12-16 09:00
p2210
aV194.5
p2211
aV0.83
p2212
aV0.90
p2213
aI01
aa(lp2214
V2017-12-16 08:59
p2215
aV195.5
p2216
aV0.86
p2217
aV0.86
p2218
aI01
aa(lp2219
V2017-12-16 08:59
p2220
aV194.5
p2221
aV0.86
p2222
aV0.86
p2223
aI01
aa(lp2224
V2017-12-16 08:58
p2225
aV196.5
p2226
aV0.86
p2227
aV0.86
p2228
aI01
aa(lp2229
V2017-12-16 08:58
p2230
aV196.5
p2231
aV0.90
p2232
aV0.83
p2233
aI01
aa(lp2234
V2017-12-16 08:57
p2235
aV195.5
p2236
aV0.86
p2237
aV0.86
p2238
aI01
aa(lp2239
V2017-12-16 08:57
p2240
aV196.5
p2241
aV0.86
p2242
aV0.86
p2243
aI01
aa(lp2244
V2017-12-16 08:57
p2245
aV197.5
p2246
aV0.86
p2247
aV0.86
p2248
aI01
aa(lp2249
V2017-12-16 08:56
p2250
aV196.5
p2251
aV0.83
p2252
aV0.90
p2253
aI01
aa(lp2254
V2017-12-16 08:56
p2255
aV196.5
p2256
aV0.90
p2257
aV0.83
p2258
aI01
aa(lp2259
V2017-12-16 08:56
p2260
aV195.5
p2261
aV0.86
p2262
aV0.86
p2263
aI01
aa(lp2264
V2017-12-16 08:56
p2265
aV193.5
p2266
aV0.86
p2267
aV0.86
p2268
aI01
aa(lp2269
V2017-12-16 08:55
p2270
aV194.5
p2271
aV0.83
p2272
aV0.90
p2273
aI01
aa(lp2274
V2017-12-16 08:55
p2275
aV194.5
p2276
aV0.90
p2277
aV0.83
p2278
aI01
aa(lp2279
V2017-12-16 08:55
p2280
aV192.5
p2281
aV0.83
p2282
aV0.90
p2283
aI01
aa(lp2284
V2017-12-16 08:52
p2285
aV193.5
p2286
aV0.86
p2287
aV0.86
p2288
aI01
aa(lp2289
V2017-12-16 08:52
p2290
aV194.5
p2291
aV0.90
p2292
aV0.83
p2293
aI01
aa(lp2294
V2017-12-16 08:52
p2295
aV194.5
p2296
aV0.86
p2297
aV0.86
p2298
aI01
aa(lp2299
V2017-12-16 08:51
p2300
aV193.5
p2301
aV0.86
p2302
aV0.86
p2303
aI01
aa(lp2304
V2017-12-16 08:50
p2305
aV192.5
p2306
aV0.83
p2307
aV0.90
p2308
aI01
aa(lp2309
V2017-12-16 08:47
p2310
aV194.5
p2311
aV0.86
p2312
aV0.86
p2313
aI01
aa(lp2314
V2017-12-16 08:47
p2315
aV195.5
p2316
aV0.90
p2317
aV0.83
p2318
aI01
aa(lp2319
V2017-12-16 08:46
p2320
aV194.5
p2321
aV0.86
p2322
aV0.86
p2323
aI01
aa(lp2324
V2017-12-16 08:46
p2325
aV195.5
p2326
aV0.90
p2327
aV0.83
p2328
aI01
aa(lp2329
V2017-12-16 08:46
p2330
aV194.5
p2331
aV0.86
p2332
aV0.86
p2333
aI01
aa(lp2334
V2017-12-16 08:46
p2335
aV195.5
p2336
aV0.86
p2337
aV0.86
p2338
aI01
aa(lp2339
V2017-12-16 08:45
p2340
aV196.5
p2341
aV0.86
p2342
aV0.86
p2343
aI01
aa(lp2344
V2017-12-16 08:44
p2345
aV197.5
p2346
aV0.83
p2347
aV0.90
p2348
aI01
aa(lp2349
V2017-12-16 08:44
p2350
aV198.5
p2351
aV0.83
p2352
aV0.90
p2353
aI01
aa(lp2354
V2017-12-16 08:44
p2355
aV198.5
p2356
aV0.86
p2357
aV0.86
p2358
aI01
aa(lp2359
V2017-12-16 08:43
p2360
aV197.5
p2361
aV0.83
p2362
aV0.90
p2363
aI01
aa(lp2364
V2017-12-16 08:42
p2365
aV198.5
p2366
aV0.83
p2367
aV0.90
p2368
aI01
aa(lp2369
V2017-12-16 08:41
p2370
aV200.5
p2371
aV0.86
p2372
aV0.86
p2373
aI01
aa(lp2374
V2017-12-16 08:40
p2375
aV198.5
p2376
aV0.86
p2377
aV0.86
p2378
aI01
aa(lp2379
V2017-12-16 08:40
p2380
aV199.5
p2381
aV0.90
p2382
aV0.83
p2383
aI01
aa(lp2384
V2017-12-16 08:39
p2385
aV198.5
p2386
aV0.86
p2387
aV0.86
p2388
aI01
aa(lp2389
V2017-12-16 08:38
p2390
aV197.5
p2391
aV0.83
p2392
aV0.90
p2393
aI01
aa(lp2394
V2017-12-16 08:38
p2395
aV195.5
p2396
aV0.83
p2397
aV0.90
p2398
aI01
aa(lp2399
V2017-12-16 08:37
p2400
aV196.5
p2401
aV0.86
p2402
aV0.86
p2403
aI01
aa(lp2404
V2017-12-16 08:37
p2405
aV197.5
p2406
aV0.86
p2407
aV0.86
p2408
aI01
aa(lp2409
V2017-12-16 08:36
p2410
aV196.5
p2411
aV0.83
p2412
aV0.90
p2413
aI01
aa(lp2414
V2017-12-16 08:36
p2415
aV196.5
p2416
aV0.86
p2417
aV0.86
p2418
aI01
aa(lp2419
V2017-12-16 08:35
p2420
aV197.5
p2421
aV0.86
p2422
aV0.86
p2423
aI01
aa(lp2424
V2017-12-16 08:35
p2425
aV199.5
p2426
aV0.90
p2427
aV0.83
p2428
aI01
aa(lp2429
V2017-12-16 08:34
p2430
aV200.5
p2431
aV0.86
p2432
aV0.86
p2433
aI01
aa(lp2434
V2017-12-16 08:34
p2435
aV201.5
p2436
aV0.86
p2437
aV0.86
p2438
aI01
aa(lp2439
V2017-12-16 08:34
p2440
aV200.5
p2441
aV0.86
p2442
aV0.86
p2443
aI01
aa(lp2444
V2017-12-16 08:33
p2445
aV202.5
p2446
aV0.86
p2447
aV0.86
p2448
aI01
aa(lp2449
V2017-12-16 08:33
p2450
aV200.5
p2451
aV0.90
p2452
aV0.83
p2453
aI01
aa(lp2454
V2017-12-16 08:29
p2455
aV201.5
p2456
aV0.83
p2457
aV0.90
p2458
aI01
aa(lp2459
V2017-12-16 08:29
p2460
aV201.5
p2461
aV0.86
p2462
aV0.86
p2463
aI01
aa(lp2464
V2017-12-16 08:29
p2465
aV200.5
p2466
aV0.86
p2467
aV0.86
p2468
aI01
aa(lp2469
V2017-12-16 08:29
p2470
aV202.5
p2471
aV0.90
p2472
aV0.83
p2473
aI01
aa(lp2474
V2017-12-16 08:28
p2475
aV201.5
p2476
aV0.86
p2477
aV0.86
p2478
aI01
aa(lp2479
V2017-12-16 08:27
p2480
aV200.5
p2481
aV0.86
p2482
aV0.86
p2483
aI01
aa(lp2484
V2017-12-16 08:26
p2485
aV199.5
p2486
aV0.86
p2487
aV0.86
p2488
aI01
aa(lp2489
V2017-12-16 08:26
p2490
aV198.5
p2491
aV0.83
p2492
aV0.90
p2493
aI01
aa(lp2494
V2017-12-16 08:26
p2495
aV198.5
p2496
aV0.86
p2497
aV0.86
p2498
aI01
aa(lp2499
V2017-12-16 08:25
p2500
aV199.5
p2501
aV0.86
p2502
aV0.86
p2503
aI01
aa(lp2504
V2017-12-16 08:22
p2505
aV200.5
p2506
aV0.86
p2507
aV0.86
p2508
aI01
aa(lp2509
V2017-12-16 08:21
p2510
aV202.5
p2511
aV0.86
p2512
aV0.86
p2513
aI01
aa(lp2514
V2017-12-16 08:21
p2515
aV202.5
p2516
aV0.90
p2517
aV0.83
p2518
aI01
aa(lp2519
V2017-12-16 08:20
p2520
aV202.5
p2521
aV0.83
p2522
aV0.90
p2523
aI01
aa(lp2524
V2017-12-16 08:20
p2525
aV204.5
p2526
aV0.86
p2527
aV0.86
p2528
aI01
aa(lp2529
V2017-12-16 08:20
p2530
aV203.5
p2531
aV0.86
p2532
aV0.86
p2533
aI01
aa(lp2534
V2017-12-16 08:19
p2535
aV204.5
p2536
aV0.90
p2537
aV0.83
p2538
aI01
aa(lp2539
V2017-12-16 08:19
p2540
aV203.5
p2541
aV0.86
p2542
aV0.86
p2543
aI01
aa(lp2544
V2017-12-16 08:19
p2545
aV204.5
p2546
aV0.83
p2547
aV0.90
p2548
aI01
aa(lp2549
V2017-12-16 08:18
p2550
aV205.5
p2551
aV0.83
p2552
aV0.90
p2553
aI01
aa(lp2554
V2017-12-16 08:18
p2555
aV206.5
p2556
aV0.86
p2557
aV0.86
p2558
aI01
aa(lp2559
V2017-12-16 08:18
p2560
aV207.5
p2561
aV0.86
p2562
aV0.86
p2563
aI01
aa(lp2564
V2017-12-16 08:17
p2565
aV208.5
p2566
aV0.86
p2567
aV0.86
p2568
aI01
aa(lp2569
V2017-12-16 08:17
p2570
aV207.5
p2571
aV0.90
p2572
aV0.83
p2573
aI01
aa(lp2574
V2017-12-16 08:16
p2575
aV206.5
p2576
aV0.86
p2577
aV0.86
p2578
aI01
aa(lp2579
V2017-12-16 08:16
p2580
aV205.5
p2581
aV0.90
p2582
aV0.83
p2583
aI01
aa(lp2584
V2017-12-16 08:16
p2585
aV206.5
p2586
aV0.86
p2587
aV0.86
p2588
aI01
aa(lp2589
V2017-12-16 08:15
p2590
aV207.5
p2591
aV0.86
p2592
aV0.86
p2593
aI01
aa(lp2594
V2017-12-16 08:15
p2595
aV208.5
p2596
aV0.86
p2597
aV0.86
p2598
aI01
aa(lp2599
V2017-12-16 08:13
p2600
aV207.5
p2601
aV0.86
p2602
aV0.86
p2603
aI01
aa(lp2604
V2017-12-16 08:13
p2605
aV206.5
p2606
aV0.86
p2607
aV0.86
p2608
aI01
aa(lp2609
V2017-12-16 08:12
p2610
aV207.5
p2611
aV0.90
p2612
aV0.83
p2613
aI01
aa(lp2614
V2017-12-16 08:12
p2615
aV206.5
p2616
aV0.86
p2617
aV0.86
p2618
aI01
aa(lp2619
V2017-12-16 08:11
p2620
aV207.5
p2621
aV0.83
p2622
aV0.90
p2623
aI01
aa(lp2624
V2017-12-16 08:11
p2625
aV209.5
p2626
aV0.86
p2627
aV0.86
p2628
aI01
aa(lp2629
V2017-12-16 06:56
p2630
aV208.5
p2631
aV0.90
p2632
aV0.90
p2633
aI00
aa(lp2634
V2017-12-16 02:25
p2635
aV209
p2636
aV0.90
p2637
aV0.90
p2638
aI00
aa(lp2639
V2017-12-16 01:49
p2640
aV208.5
p2641
aV0.90
p2642
aV0.90
p2643
aI00
aa(lp2644
V2017-12-16 00:16
p2645
aV208
p2646
aV0.90
p2647
aV0.90
p2648
aI00
aa(lp2649
V2017-12-15 21:33
p2650
aV209
p2651
aV0.90
p2652
aV0.90
p2653
aI00
aa(lp2654
V2017-12-15 15:43
p2655
aV209.5
p2656
aV0.90
p2657
aV0.90
p2658
aI00
aa(lp2659
V2017-12-15 10:50
p2660
aV210
p2661
aV0.90
p2662
aV0.90
p2663
aI00
aa(lp2664
V2017-12-15 10:00
p2665
aV209.5
p2666
aV0.90
p2667
aV0.90
p2668
aI00
aassb.