ccopy_reg
_reconstructor
p0
(cmy_oddsportal.items
WinOverUnderItem
p1
c__builtin__
object
p2
Ntp3
Rp4
(dp5
S'_values'
p6
(dp7
S'ysb8'
p8
(lp9
(lp10
V2017-12-16 08:12
p11
aV197
p12
aV0.95
p13
aV0.95
p14
aI00
aa(lp15
V2017-12-16 07:48
p16
aV197.5
p17
aV0.95
p18
aV0.95
p19
aI00
aa(lp20
V2017-12-16 07:20
p21
aV197
p22
aV0.95
p23
aV0.95
p24
aI00
aa(lp25
V2017-12-16 07:19
p26
aV197.5
p27
aV0.95
p28
aV0.95
p29
aI00
aa(lp30
V2017-12-16 07:12
p31
aV198
p32
aV0.95
p33
aV0.95
p34
aI00
aa(lp35
V2017-12-16 02:08
p36
aV198.5
p37
aV0.95
p38
aV0.95
p39
aI00
aa(lp40
V2017-12-16 01:43
p41
aV199
p42
aV0.95
p43
aV0.95
p44
aI00
aa(lp45
V2017-12-16 01:14
p46
aV198.5
p47
aV0.95
p48
aV0.95
p49
aI00
aa(lp50
V2017-12-16 00:49
p51
aV199
p52
aV0.95
p53
aV0.95
p54
aI00
aa(lp55
V2017-12-16 00:27
p56
aV199.5
p57
aV0.95
p58
aV0.95
p59
aI00
aa(lp60
V2017-12-15 22:50
p61
aV199
p62
aV0.95
p63
aV0.95
p64
aI00
aa(lp65
V2017-12-15 20:02
p66
aV198.5
p67
aV0.95
p68
aV0.95
p69
aI00
aa(lp70
V2017-12-15 17:59
p71
aV198
p72
aV0.91
p73
aV1.00
p74
aI00
aa(lp75
V2017-12-15 15:43
p76
aV198
p77
aV0.95
p78
aV0.95
p79
aI00
aa(lp80
V2017-12-15 14:38
p81
aV198.5
p82
aV0.95
p83
aV0.95
p84
aI00
aa(lp85
V2017-12-15 13:43
p86
aV198
p87
aV0.95
p88
aV0.95
p89
aI00
aasS'macau'
p90
(lp91
(lp92
V2017-12-16 08:38
p93
aV198.5
p94
aV1.00
p95
aV0.66
p96
aI00
aa(lp97
V2017-12-16 08:30
p98
aV198.5
p99
aV0.90
p100
aV0.76
p101
aI00
aa(lp102
V2017-12-16 08:30
p103
aV198.5
p104
aV0.88
p105
aV0.78
p106
aI00
aa(lp107
V2017-12-16 07:25
p108
aV198.5
p109
aV0.92
p110
aV0.78
p111
aI00
aa(lp112
V2017-12-15 13:21
p113
aV198.5
p114
aV0.85
p115
aV0.85
p116
aI00
aasS'title'
p117
V\u000a                \u6ce2\u58eb\u9813\u585e\u723e\u7279\u4eba\u000a                vs\u000a                \u7336\u4ed6\u7235\u58eb\u000a            
p118
sS'crown'
p119
(lp120
(lp121
V2017-12-16 10:30
p122
aV196.5
p123
aV0.88
p124
aV0.78
p125
aI01
aa(lp126
V2017-12-16 10:30
p127
aV196.5
p128
aV0.83
p129
aV0.83
p130
aI01
aa(lp131
V2017-12-16 10:30
p132
aV196.5
p133
aV0.88
p134
aV0.78
p135
aI01
aa(lp136
V2017-12-16 10:30
p137
aV196.5
p138
aV0.90
p139
aV0.76
p140
aI01
aa(lp141
V2017-12-16 10:29
p142
aV196.5
p143
aV0.83
p144
aV0.83
p145
aI01
aa(lp146
V2017-12-16 10:28
p147
aV194.5
p148
aV0.83
p149
aV0.83
p150
aI01
aa(lp151
V2017-12-16 10:28
p152
aV196.5
p153
aV0.83
p154
aV0.83
p155
aI01
aa(lp156
V2017-12-16 10:27
p157
aV197.5
p158
aV0.83
p159
aV0.83
p160
aI01
aa(lp161
V2017-12-16 10:26
p162
aV199.5
p163
aV0.83
p164
aV0.83
p165
aI01
aa(lp166
V2017-12-16 10:26
p167
aV200.5
p168
aV0.83
p169
aV0.83
p170
aI01
aa(lp171
V2017-12-16 10:25
p172
aV198.5
p173
aV0.83
p174
aV0.83
p175
aI01
aa(lp176
V2017-12-16 10:25
p177
aV200.5
p178
aV1.00
p179
aV0.66
p180
aI01
aa(lp181
V2017-12-16 10:24
p182
aV200.5
p183
aV0.83
p184
aV0.83
p185
aI01
aa(lp186
V2017-12-16 10:23
p187
aV199.5
p188
aV0.83
p189
aV0.83
p190
aI01
aa(lp191
V2017-12-16 10:22
p192
aV198.5
p193
aV0.90
p194
aV0.76
p195
aI01
aa(lp196
V2017-12-16 10:22
p197
aV198.5
p198
aV0.83
p199
aV0.83
p200
aI01
aa(lp201
V2017-12-16 10:21
p202
aV200.5
p203
aV0.83
p204
aV0.83
p205
aI01
aa(lp206
V2017-12-16 10:21
p207
aV201.5
p208
aV0.83
p209
aV0.83
p210
aI01
aa(lp211
V2017-12-16 10:20
p212
aV199.5
p213
aV1.00
p214
aV0.66
p215
aI01
aa(lp216
V2017-12-16 10:18
p217
aV198.5
p218
aV1.00
p219
aV0.66
p220
aI01
aa(lp221
V2017-12-16 10:18
p222
aV198.5
p223
aV0.83
p224
aV0.83
p225
aI01
aa(lp226
V2017-12-16 10:17
p227
aV199.5
p228
aV0.83
p229
aV0.83
p230
aI01
aa(lp231
V2017-12-16 10:16
p232
aV200.5
p233
aV0.83
p234
aV0.83
p235
aI01
aa(lp236
V2017-12-16 10:16
p237
aV199.5
p238
aV0.83
p239
aV0.83
p240
aI01
aa(lp241
V2017-12-16 10:15
p242
aV200.5
p243
aV0.83
p244
aV0.83
p245
aI01
aa(lp246
V2017-12-16 10:14
p247
aV201.5
p248
aV0.83
p249
aV0.83
p250
aI01
aa(lp251
V2017-12-16 10:14
p252
aV200.5
p253
aV0.83
p254
aV0.83
p255
aI01
aa(lp256
V2017-12-16 10:13
p257
aV202.5
p258
aV0.83
p259
aV0.83
p260
aI01
aa(lp261
V2017-12-16 10:12
p262
aV201.5
p263
aV0.83
p264
aV0.83
p265
aI01
aa(lp266
V2017-12-16 10:12
p267
aV200.5
p268
aV0.83
p269
aV0.83
p270
aI01
aa(lp271
V2017-12-16 10:09
p272
aV201.5
p273
aV0.83
p274
aV0.83
p275
aI01
aa(lp276
V2017-12-16 10:06
p277
aV202.5
p278
aV0.83
p279
aV0.83
p280
aI01
aa(lp281
V2017-12-16 10:06
p282
aV201.5
p283
aV0.83
p284
aV0.83
p285
aI01
aa(lp286
V2017-12-16 10:04
p287
aV200.5
p288
aV0.83
p289
aV0.83
p290
aI01
aa(lp291
V2017-12-16 10:02
p292
aV199.5
p293
aV0.83
p294
aV0.83
p295
aI01
aa(lp296
V2017-12-16 10:01
p297
aV197.5
p298
aV0.83
p299
aV0.83
p300
aI01
aa(lp301
V2017-12-16 10:01
p302
aV195.5
p303
aV0.83
p304
aV0.83
p305
aI01
aa(lp306
V2017-12-16 10:00
p307
aV195.5
p308
aV0.76
p309
aV0.90
p310
aI01
aa(lp311
V2017-12-16 09:58
p312
aV195.5
p313
aV0.83
p314
aV0.83
p315
aI01
aa(lp316
V2017-12-16 09:57
p317
aV194.5
p318
aV0.83
p319
aV0.83
p320
aI01
aa(lp321
V2017-12-16 09:57
p322
aV196.5
p323
aV0.83
p324
aV0.83
p325
aI01
aa(lp326
V2017-12-16 09:56
p327
aV193.5
p328
aV0.83
p329
aV0.83
p330
aI01
aa(lp331
V2017-12-16 09:55
p332
aV192.5
p333
aV0.83
p334
aV0.83
p335
aI01
aa(lp336
V2017-12-16 09:54
p337
aV191.5
p338
aV0.83
p339
aV0.83
p340
aI01
aa(lp341
V2017-12-16 09:53
p342
aV190.5
p343
aV0.83
p344
aV0.83
p345
aI01
aa(lp346
V2017-12-16 09:53
p347
aV189.5
p348
aV0.83
p349
aV0.83
p350
aI01
aa(lp351
V2017-12-16 09:38
p352
aV187.5
p353
aV0.88
p354
aV0.78
p355
aI01
aa(lp356
V2017-12-16 09:33
p357
aV186.5
p358
aV0.86
p359
aV0.80
p360
aI01
aa(lp361
V2017-12-16 09:32
p362
aV186.5
p363
aV0.83
p364
aV0.83
p365
aI01
aa(lp366
V2017-12-16 09:32
p367
aV185.5
p368
aV0.83
p369
aV0.83
p370
aI01
aa(lp371
V2017-12-16 09:32
p372
aV186.5
p373
aV0.83
p374
aV0.83
p375
aI01
aa(lp376
V2017-12-16 09:31
p377
aV187.5
p378
aV0.83
p379
aV0.83
p380
aI01
aa(lp381
V2017-12-16 09:30
p382
aV188.5
p383
aV0.83
p384
aV0.83
p385
aI01
aa(lp386
V2017-12-16 09:30
p387
aV187.5
p388
aV0.83
p389
aV0.83
p390
aI01
aa(lp391
V2017-12-16 09:30
p392
aV186.5
p393
aV0.83
p394
aV0.83
p395
aI01
aa(lp396
V2017-12-16 09:30
p397
aV187.5
p398
aV0.83
p399
aV0.83
p400
aI01
aa(lp401
V2017-12-16 09:29
p402
aV188.5
p403
aV0.83
p404
aV0.83
p405
aI01
aa(lp406
V2017-12-16 09:29
p407
aV187.5
p408
aV0.83
p409
aV0.83
p410
aI01
aa(lp411
V2017-12-16 09:29
p412
aV186.5
p413
aV0.83
p414
aV0.83
p415
aI01
aa(lp416
V2017-12-16 09:28
p417
aV188.5
p418
aV0.83
p419
aV0.83
p420
aI01
aa(lp421
V2017-12-16 09:28
p422
aV187.5
p423
aV0.83
p424
aV0.83
p425
aI01
aa(lp426
V2017-12-16 09:27
p427
aV186.5
p428
aV0.83
p429
aV0.83
p430
aI01
aa(lp431
V2017-12-16 09:26
p432
aV187.5
p433
aV0.83
p434
aV0.83
p435
aI01
aa(lp436
V2017-12-16 09:26
p437
aV186.5
p438
aV0.83
p439
aV0.83
p440
aI01
aa(lp441
V2017-12-16 09:24
p442
aV185.5
p443
aV0.83
p444
aV0.83
p445
aI01
aa(lp446
V2017-12-16 09:23
p447
aV186.5
p448
aV0.83
p449
aV0.83
p450
aI01
aa(lp451
V2017-12-16 09:23
p452
aV187.5
p453
aV0.83
p454
aV0.83
p455
aI01
aa(lp456
V2017-12-16 09:22
p457
aV185.5
p458
aV0.83
p459
aV0.83
p460
aI01
aa(lp461
V2017-12-16 09:22
p462
aV184.5
p463
aV0.70
p464
aV0.96
p465
aI01
aa(lp466
V2017-12-16 09:22
p467
aV185.5
p468
aV0.83
p469
aV0.83
p470
aI01
aa(lp471
V2017-12-16 09:21
p472
aV183.5
p473
aV0.88
p474
aV0.78
p475
aI01
aa(lp476
V2017-12-16 09:21
p477
aV184.5
p478
aV0.88
p479
aV0.78
p480
aI01
aa(lp481
V2017-12-16 09:20
p482
aV185.5
p483
aV0.88
p484
aV0.78
p485
aI01
aa(lp486
V2017-12-16 09:20
p487
aV185.5
p488
aV0.93
p489
aV0.73
p490
aI01
aa(lp491
V2017-12-16 09:19
p492
aV187.5
p493
aV0.88
p494
aV0.78
p495
aI01
aa(lp496
V2017-12-16 09:19
p497
aV188.5
p498
aV0.93
p499
aV0.73
p500
aI01
aa(lp501
V2017-12-16 09:19
p502
aV189.5
p503
aV0.93
p504
aV0.73
p505
aI01
aa(lp506
V2017-12-16 09:18
p507
aV189.5
p508
aV0.88
p509
aV0.78
p510
aI01
aa(lp511
V2017-12-16 09:18
p512
aV190.5
p513
aV0.88
p514
aV0.78
p515
aI01
aa(lp516
V2017-12-16 09:17
p517
aV192.5
p518
aV0.83
p519
aV0.83
p520
aI01
aa(lp521
V2017-12-16 09:16
p522
aV193.5
p523
aV0.83
p524
aV0.83
p525
aI01
aa(lp526
V2017-12-16 09:13
p527
aV194.5
p528
aV0.83
p529
aV0.83
p530
aI01
aa(lp531
V2017-12-16 09:13
p532
aV192.5
p533
aV0.83
p534
aV0.83
p535
aI01
aa(lp536
V2017-12-16 09:13
p537
aV193.5
p538
aV0.83
p539
aV0.83
p540
aI01
aa(lp541
V2017-12-16 09:11
p542
aV194.5
p543
aV0.83
p544
aV0.83
p545
aI01
aa(lp546
V2017-12-16 09:10
p547
aV195.5
p548
aV0.83
p549
aV0.83
p550
aI01
aa(lp551
V2017-12-16 09:10
p552
aV193.5
p553
aV0.83
p554
aV0.83
p555
aI01
aa(lp556
V2017-12-16 09:09
p557
aV194.5
p558
aV0.83
p559
aV0.83
p560
aI01
aa(lp561
V2017-12-16 09:08
p562
aV195.5
p563
aV0.83
p564
aV0.83
p565
aI01
aa(lp566
V2017-12-16 09:05
p567
aV194.5
p568
aV0.83
p569
aV0.83
p570
aI01
aa(lp571
V2017-12-16 09:04
p572
aV195.5
p573
aV0.83
p574
aV0.83
p575
aI01
aa(lp576
V2017-12-16 09:03
p577
aV196.5
p578
aV0.83
p579
aV0.83
p580
aI01
aa(lp581
V2017-12-16 09:02
p582
aV197.5
p583
aV0.83
p584
aV0.83
p585
aI01
aa(lp586
V2017-12-16 09:01
p587
aV198.5
p588
aV0.83
p589
aV0.83
p590
aI01
aa(lp591
V2017-12-16 08:58
p592
aV199.5
p593
aV0.83
p594
aV0.83
p595
aI01
aa(lp596
V2017-12-16 08:58
p597
aV200.5
p598
aV0.83
p599
aV0.83
p600
aI01
aa(lp601
V2017-12-16 08:57
p602
aV198.5
p603
aV0.83
p604
aV0.83
p605
aI01
aa(lp606
V2017-12-16 08:57
p607
aV199.5
p608
aV0.83
p609
aV0.83
p610
aI01
aa(lp611
V2017-12-16 08:57
p612
aV198.5
p613
aV0.83
p614
aV0.83
p615
aI01
aa(lp616
V2017-12-16 08:53
p617
aV197.5
p618
aV0.83
p619
aV0.83
p620
aI01
aa(lp621
V2017-12-16 08:53
p622
aV196.5
p623
aV0.83
p624
aV0.83
p625
aI01
aa(lp626
V2017-12-16 08:53
p627
aV197.5
p628
aV0.83
p629
aV0.83
p630
aI01
aa(lp631
V2017-12-16 08:52
p632
aV198.5
p633
aV0.83
p634
aV0.83
p635
aI01
aa(lp636
V2017-12-16 08:52
p637
aV199.5
p638
aV0.83
p639
aV0.83
p640
aI01
aa(lp641
V2017-12-16 08:52
p642
aV198.5
p643
aV0.83
p644
aV0.83
p645
aI01
aa(lp646
V2017-12-16 08:51
p647
aV196.5
p648
aV0.83
p649
aV0.83
p650
aI01
aa(lp651
V2017-12-16 08:51
p652
aV195.5
p653
aV0.83
p654
aV0.83
p655
aI01
aa(lp656
V2017-12-16 08:50
p657
aV196.5
p658
aV0.83
p659
aV0.83
p660
aI01
aa(lp661
V2017-12-16 08:50
p662
aV195.5
p663
aV0.83
p664
aV0.83
p665
aI01
aa(lp666
V2017-12-16 08:49
p667
aV196.5
p668
aV0.83
p669
aV0.83
p670
aI01
aa(lp671
V2017-12-16 08:49
p672
aV197.5
p673
aV0.83
p674
aV0.83
p675
aI01
aa(lp676
V2017-12-16 08:49
p677
aV198.5
p678
aV0.83
p679
aV0.83
p680
aI01
aa(lp681
V2017-12-16 08:48
p682
aV197.5
p683
aV0.83
p684
aV0.83
p685
aI01
aa(lp686
V2017-12-16 08:48
p687
aV195.5
p688
aV0.83
p689
aV0.83
p690
aI01
aa(lp691
V2017-12-16 08:47
p692
aV192.5
p693
aV0.83
p694
aV0.83
p695
aI01
aa(lp696
V2017-12-16 08:47
p697
aV193.5
p698
aV0.83
p699
aV0.83
p700
aI01
aa(lp701
V2017-12-16 08:47
p702
aV194.5
p703
aV0.83
p704
aV0.83
p705
aI01
aa(lp706
V2017-12-16 08:46
p707
aV195.5
p708
aV0.83
p709
aV0.83
p710
aI01
aa(lp711
V2017-12-16 08:44
p712
aV195.5
p713
aV0.88
p714
aV0.78
p715
aI01
aa(lp716
V2017-12-16 08:42
p717
aV195.5
p718
aV0.83
p719
aV0.83
p720
aI01
aa(lp721
V2017-12-16 08:42
p722
aV196.5
p723
aV0.83
p724
aV0.83
p725
aI01
aa(lp726
V2017-12-16 08:41
p727
aV197.5
p728
aV0.83
p729
aV0.83
p730
aI01
aa(lp731
V2017-12-16 08:41
p732
aV197.5
p733
aV0.88
p734
aV0.78
p735
aI01
aa(lp736
V2017-12-16 08:41
p737
aV198.5
p738
aV0.88
p739
aV0.78
p740
aI01
aa(lp741
V2017-12-16 08:33
p742
aV197.5
p743
aV0.88
p744
aV0.78
p745
aI00
aa(lp746
V2017-12-16 07:19
p747
aV198.5
p748
aV1.06
p749
aV0.80
p750
aI00
aa(lp751
V2017-12-16 06:44
p752
aV198.5
p753
aV0.97
p754
aV0.89
p755
aI00
aa(lp756
V2017-12-16 06:44
p757
aV198.5
p758
aV0.95
p759
aV0.91
p760
aI00
aa(lp761
V2017-12-16 05:08
p762
aV198.5
p763
aV0.97
p764
aV0.89
p765
aI00
aa(lp766
V2017-12-16 05:08
p767
aV197.5
p768
aV0.87
p769
aV0.99
p770
aI00
aa(lp771
V2017-12-16 04:57
p772
aV198.5
p773
aV0.97
p774
aV0.89
p775
aI00
aa(lp776
V2017-12-16 04:53
p777
aV198.5
p778
aV0.99
p779
aV0.87
p780
aI00
aa(lp781
V2017-12-16 04:17
p782
aV199.5
p783
aV1.06
p784
aV0.80
p785
aI00
aa(lp786
V2017-12-16 04:14
p787
aV199.5
p788
aV0.98
p789
aV0.88
p790
aI00
aa(lp791
V2017-12-16 02:36
p792
aV199.5
p793
aV0.98
p794
aV0.86
p795
aI00
aa(lp796
V2017-12-16 02:00
p797
aV199.5
p798
aV0.93
p799
aV0.91
p800
aI00
aa(lp801
V2017-12-16 01:58
p802
aV199.5
p803
aV0.95
p804
aV0.89
p805
aI00
aa(lp806
V2017-12-16 01:56
p807
aV199.5
p808
aV0.98
p809
aV0.86
p810
aI00
aa(lp811
V2017-12-16 01:55
p812
aV199.5
p813
aV0.95
p814
aV0.89
p815
aI00
aa(lp816
V2017-12-16 01:52
p817
aV199.5
p818
aV0.92
p819
aV0.92
p820
aI00
aa(lp821
V2017-12-16 01:42
p822
aV199.5
p823
aV0.86
p824
aV0.98
p825
aI00
aa(lp826
V2017-12-16 01:42
p827
aV199.5
p828
aV0.88
p829
aV0.96
p830
aI00
aa(lp831
V2017-12-16 01:41
p832
aV199.5
p833
aV0.86
p834
aV0.98
p835
aI00
aa(lp836
V2017-12-16 01:41
p837
aV199.5
p838
aV0.91
p839
aV0.93
p840
aI00
aa(lp841
V2017-12-16 01:41
p842
aV199.5
p843
aV0.96
p844
aV0.88
p845
aI00
aa(lp846
V2017-12-16 00:50
p847
aV199.5
p848
aV0.98
p849
aV0.86
p850
aI00
aa(lp851
V2017-12-16 00:37
p852
aV199.5
p853
aV0.90
p854
aV0.94
p855
aI00
aa(lp856
V2017-12-15 22:30
p857
aV198.5
p858
aV0.92
p859
aV0.92
p860
aI00
aa(lp861
V2017-12-15 22:29
p862
aV197.5
p863
aV0.82
p864
aV1.02
p865
aI00
aa(lp866
V2017-12-15 20:30
p867
aV198.5
p868
aV0.92
p869
aV0.92
p870
aI00
aa(lp871
V2017-12-15 18:24
p872
aV198.5
p873
aV0.93
p874
aV0.91
p875
aI00
aa(lp876
V2017-12-15 18:24
p877
aV199.5
p878
aV1.03
p879
aV0.81
p880
aI00
aa(lp881
V2017-12-15 16:20
p882
aV198.5
p883
aV0.93
p884
aV0.91
p885
aI00
aa(lp886
V2017-12-15 11:46
p887
aV198.5
p888
aV0.92
p889
aV0.92
p890
aI00
aasS'sbo'
p891
(lp892
(lp893
V2017-12-16 10:30
p894
aV196.5
p895
aV0.80
p896
aV0.90
p897
aI01
aa(lp898
V2017-12-16 10:29
p899
aV196.5
p900
aV0.90
p901
aV0.80
p902
aI01
aa(lp903
V2017-12-16 10:29
p904
aV196.5
p905
aV0.95
p906
aV0.75
p907
aI01
aa(lp908
V2017-12-16 10:28
p909
aV200.5
p910
aV1.05
p911
aV0.65
p912
aI01
aa(lp913
V2017-12-16 10:27
p914
aV200.5
p915
aV0.95
p916
aV0.75
p917
aI01
aa(lp918
V2017-12-16 10:26
p919
aV200.5
p920
aV1.00
p921
aV0.70
p922
aI01
aa(lp923
V2017-12-16 10:26
p924
aV200.5
p925
aV0.85
p926
aV0.85
p927
aI01
aa(lp928
V2017-12-16 10:26
p929
aV200.5
p930
aV0.70
p931
aV1.00
p932
aI01
aa(lp933
V2017-12-16 10:25
p934
aV200.5
p935
aV0.90
p936
aV0.80
p937
aI01
aa(lp938
V2017-12-16 10:25
p939
aV200.5
p940
aV0.80
p941
aV0.90
p942
aI01
aa(lp943
V2017-12-16 10:24
p944
aV200.5
p945
aV0.65
p946
aV1.05
p947
aI01
aa(lp948
V2017-12-16 10:24
p949
aV200.5
p950
aV0.75
p951
aV0.95
p952
aI01
aa(lp953
V2017-12-16 10:23
p954
aV200.5
p955
aV0.85
p956
aV0.85
p957
aI01
aa(lp958
V2017-12-16 10:23
p959
aV200.5
p960
aV0.90
p961
aV0.80
p962
aI01
aa(lp963
V2017-12-16 10:22
p964
aV200.5
p965
aV0.85
p966
aV0.85
p967
aI01
aa(lp968
V2017-12-16 10:22
p969
aV198.5
p970
aV0.85
p971
aV0.85
p972
aI01
aa(lp973
V2017-12-16 10:21
p974
aV200.5
p975
aV0.95
p976
aV0.75
p977
aI01
aa(lp978
V2017-12-16 10:21
p979
aV200.5
p980
aV0.90
p981
aV0.80
p982
aI01
aa(lp983
V2017-12-16 10:21
p984
aV200.5
p985
aV0.70
p986
aV1.00
p987
aI01
aa(lp988
V2017-12-16 10:21
p989
aV200.5
p990
aV0.80
p991
aV0.90
p992
aI01
aa(lp993
V2017-12-16 10:19
p994
aV198.5
p995
aV0.90
p996
aV0.80
p997
aI01
aa(lp998
V2017-12-16 10:18
p999
aV198.5
p1000
aV0.95
p1001
aV0.75
p1002
aI01
aa(lp1003
V2017-12-16 10:17
p1004
aV200.5
p1005
aV0.95
p1006
aV0.75
p1007
aI01
aa(lp1008
V2017-12-16 10:16
p1009
aV200.5
p1010
aV0.85
p1011
aV0.85
p1012
aI01
aa(lp1013
V2017-12-16 10:16
p1014
aV201.5
p1015
aV1.00
p1016
aV0.70
p1017
aI01
aa(lp1018
V2017-12-16 10:15
p1019
aV202.5
p1020
aV1.05
p1021
aV0.65
p1022
aI01
aa(lp1023
V2017-12-16 10:14
p1024
aV202.5
p1025
aV1.00
p1026
aV0.70
p1027
aI01
aa(lp1028
V2017-12-16 10:14
p1029
aV202.5
p1030
aV0.85
p1031
aV0.85
p1032
aI01
aa(lp1033
V2017-12-16 10:13
p1034
aV202.5
p1035
aV0.70
p1036
aV1.00
p1037
aI01
aa(lp1038
V2017-12-16 10:13
p1039
aV202.5
p1040
aV0.90
p1041
aV0.80
p1042
aI01
aa(lp1043
V2017-12-16 10:12
p1044
aV202.5
p1045
aV0.75
p1046
aV0.95
p1047
aI01
aa(lp1048
V2017-12-16 10:10
p1049
aV201.5
p1050
aV0.80
p1051
aV0.90
p1052
aI01
aa(lp1053
V2017-12-16 10:09
p1054
aV202.5
p1055
aV0.95
p1056
aV0.75
p1057
aI01
aa(lp1058
V2017-12-16 10:08
p1059
aV202.5
p1060
aV1.00
p1061
aV0.70
p1062
aI01
aa(lp1063
V2017-12-16 10:07
p1064
aV202.5
p1065
aV0.70
p1066
aV1.00
p1067
aI01
aa(lp1068
V2017-12-16 10:07
p1069
aV202.5
p1070
aV0.75
p1071
aV0.95
p1072
aI01
aa(lp1073
V2017-12-16 10:07
p1074
aV202.5
p1075
aV0.85
p1076
aV0.85
p1077
aI01
aa(lp1078
V2017-12-16 10:06
p1079
aV202.5
p1080
aV0.90
p1081
aV0.80
p1082
aI01
aa(lp1083
V2017-12-16 10:05
p1084
aV202.5
p1085
aV1.05
p1086
aV0.65
p1087
aI01
aa(lp1088
V2017-12-16 10:05
p1089
aV202.5
p1090
aV1.11
p1091
aV0.60
p1092
aI01
aa(lp1093
V2017-12-16 10:04
p1094
aV202.5
p1095
aV1.00
p1096
aV0.70
p1097
aI01
aa(lp1098
V2017-12-16 10:04
p1099
aV200.5
p1100
aV0.90
p1101
aV0.80
p1102
aI01
aa(lp1103
V2017-12-16 10:03
p1104
aV200.5
p1105
aV0.95
p1106
aV0.75
p1107
aI01
aa(lp1108
V2017-12-16 10:03
p1109
aV200.5
p1110
aV1.11
p1111
aV0.60
p1112
aI01
aa(lp1113
V2017-12-16 10:03
p1114
aV200.5
p1115
aV0.95
p1116
aV0.75
p1117
aI01
aa(lp1118
V2017-12-16 10:02
p1119
aV198.5
p1120
aV0.75
p1121
aV0.95
p1122
aI01
aa(lp1123
V2017-12-16 10:02
p1124
aV198.5
p1125
aV0.85
p1126
aV0.85
p1127
aI01
aa(lp1128
V2017-12-16 10:02
p1129
aV196.5
p1130
aV0.70
p1131
aV1.00
p1132
aI01
aa(lp1133
V2017-12-16 10:01
p1134
aV196.5
p1135
aV0.80
p1136
aV0.90
p1137
aI01
aa(lp1138
V2017-12-16 09:58
p1139
aV196.5
p1140
aV0.85
p1141
aV0.85
p1142
aI01
aa(lp1143
V2017-12-16 09:58
p1144
aV195.5
p1145
aV0.70
p1146
aV1.00
p1147
aI01
aa(lp1148
V2017-12-16 09:57
p1149
aV195.5
p1150
aV0.90
p1151
aV0.80
p1152
aI01
aa(lp1153
V2017-12-16 09:55
p1154
aV191.5
p1155
aV0.70
p1156
aV1.00
p1157
aI01
aa(lp1158
V2017-12-16 09:55
p1159
aV191.5
p1160
aV0.80
p1161
aV0.90
p1162
aI01
aa(lp1163
V2017-12-16 09:54
p1164
aV191.5
p1165
aV0.70
p1166
aV1.00
p1167
aI01
aa(lp1168
V2017-12-16 09:53
p1169
aV189.5
p1170
aV0.75
p1171
aV0.95
p1172
aI01
aa(lp1173
V2017-12-16 09:53
p1174
aV189.5
p1175
aV0.85
p1176
aV0.85
p1177
aI01
aa(lp1178
V2017-12-16 09:52
p1179
aV188.5
p1180
aV0.80
p1181
aV0.90
p1182
aI01
aa(lp1183
V2017-12-16 09:52
p1184
aV188.5
p1185
aV1.00
p1186
aV0.70
p1187
aI01
aa(lp1188
V2017-12-16 09:52
p1189
aV188.5
p1190
aV1.11
p1191
aV0.60
p1192
aI01
aa(lp1193
V2017-12-16 09:51
p1194
aV188.5
p1195
aV0.85
p1196
aV0.85
p1197
aI01
aa(lp1198
V2017-12-16 09:48
p1199
aV187.5
p1200
aV0.70
p1201
aV1.00
p1202
aI01
aa(lp1203
V2017-12-16 09:47
p1204
aV187.5
p1205
aV0.86
p1206
aV1.00
p1207
aI01
aa(lp1208
V2017-12-16 09:47
p1209
aV187.5
p1210
aV0.84
p1211
aV1.02
p1212
aI01
aa(lp1213
V2017-12-16 09:40
p1214
aV187.5
p1215
aV0.94
p1216
aV0.92
p1217
aI01
aa(lp1218
V2017-12-16 09:39
p1219
aV187.5
p1220
aV0.91
p1221
aV0.95
p1222
aI01
aa(lp1223
V2017-12-16 09:30
p1224
aV189.5
p1225
aV1.00
p1226
aV0.70
p1227
aI01
aa(lp1228
V2017-12-16 09:30
p1229
aV189.5
p1230
aV1.05
p1231
aV0.65
p1232
aI01
aa(lp1233
V2017-12-16 09:29
p1234
aV189.5
p1235
aV0.95
p1236
aV0.75
p1237
aI01
aa(lp1238
V2017-12-16 09:29
p1239
aV189.5
p1240
aV1.00
p1241
aV0.70
p1242
aI01
aa(lp1243
V2017-12-16 09:29
p1244
aV189.5
p1245
aV1.11
p1246
aV0.60
p1247
aI01
aa(lp1248
V2017-12-16 09:29
p1249
aV189.5
p1250
aV0.90
p1251
aV0.80
p1252
aI01
aa(lp1253
V2017-12-16 09:28
p1254
aV189.5
p1255
aV1.00
p1256
aV0.70
p1257
aI01
aa(lp1258
V2017-12-16 09:25
p1259
aV189.5
p1260
aV0.95
p1261
aV0.75
p1262
aI01
aa(lp1263
V2017-12-16 09:25
p1264
aV187.5
p1265
aV0.80
p1266
aV0.90
p1267
aI01
aa(lp1268
V2017-12-16 09:25
p1269
aV187.5
p1270
aV1.00
p1271
aV0.70
p1272
aI01
aa(lp1273
V2017-12-16 09:24
p1274
aV187.5
p1275
aV0.80
p1276
aV0.90
p1277
aI01
aa(lp1278
V2017-12-16 09:24
p1279
aV187.5
p1280
aV0.75
p1281
aV0.95
p1282
aI01
aa(lp1283
V2017-12-16 09:24
p1284
aV187.5
p1285
aV1.00
p1286
aV0.70
p1287
aI01
aa(lp1288
V2017-12-16 09:23
p1289
aV187.5
p1290
aV0.90
p1291
aV0.80
p1292
aI01
aa(lp1293
V2017-12-16 09:23
p1294
aV185.5
p1295
aV0.70
p1296
aV1.00
p1297
aI01
aa(lp1298
V2017-12-16 09:22
p1299
aV185.5
p1300
aV0.80
p1301
aV0.90
p1302
aI01
aa(lp1303
V2017-12-16 09:22
p1304
aV185.5
p1305
aV0.95
p1306
aV0.75
p1307
aI01
aa(lp1308
V2017-12-16 09:21
p1309
aV185.5
p1310
aV1.00
p1311
aV0.70
p1312
aI01
aa(lp1313
V2017-12-16 09:21
p1314
aV187.5
p1315
aV1.17
p1316
aV0.55
p1317
aI01
aa(lp1318
V2017-12-16 09:21
p1319
aV187.5
p1320
aV1.00
p1321
aV0.70
p1322
aI01
aa(lp1323
V2017-12-16 09:21
p1324
aV187.5
p1325
aV1.11
p1326
aV0.60
p1327
aI01
aa(lp1328
V2017-12-16 09:20
p1329
aV187.5
p1330
aV0.95
p1331
aV0.75
p1332
aI01
aa(lp1333
V2017-12-16 09:20
p1334
aV189.5
p1335
aV1.25
p1336
aV0.50
p1337
aI01
aa(lp1338
V2017-12-16 09:19
p1339
aV189.5
p1340
aV1.05
p1341
aV0.65
p1342
aI01
aa(lp1343
V2017-12-16 09:19
p1344
aV189.5
p1345
aV0.95
p1346
aV0.75
p1347
aI01
aa(lp1348
V2017-12-16 09:19
p1349
aV191.5
p1350
aV1.11
p1351
aV0.60
p1352
aI01
aa(lp1353
V2017-12-16 09:18
p1354
aV191.5
p1355
aV1.05
p1356
aV0.65
p1357
aI01
aa(lp1358
V2017-12-16 09:18
p1359
aV191.5
p1360
aV0.85
p1361
aV0.85
p1362
aI01
aa(lp1363
V2017-12-16 09:17
p1364
aV193.5
p1365
aV0.95
p1366
aV0.75
p1367
aI01
aa(lp1368
V2017-12-16 09:17
p1369
aV195.5
p1370
aV1.11
p1371
aV0.60
p1372
aI01
aa(lp1373
V2017-12-16 09:17
p1374
aV195.5
p1375
aV0.95
p1376
aV0.75
p1377
aI01
aa(lp1378
V2017-12-16 09:14
p1379
aV195.5
p1380
aV0.90
p1381
aV0.80
p1382
aI01
aa(lp1383
V2017-12-16 09:14
p1384
aV195.5
p1385
aV0.80
p1386
aV0.90
p1387
aI01
aa(lp1388
V2017-12-16 09:13
p1389
aV195.5
p1390
aV1.00
p1391
aV0.70
p1392
aI01
aa(lp1393
V2017-12-16 09:12
p1394
aV195.5
p1395
aV0.85
p1396
aV0.85
p1397
aI01
aa(lp1398
V2017-12-16 09:12
p1399
aV195.5
p1400
aV0.80
p1401
aV0.90
p1402
aI01
aa(lp1403
V2017-12-16 09:11
p1404
aV193.5
p1405
aV0.60
p1406
aV1.11
p1407
aI01
aa(lp1408
V2017-12-16 09:11
p1409
aV193.5
p1410
aV0.65
p1411
aV1.05
p1412
aI01
aa(lp1413
V2017-12-16 09:10
p1414
aV193.5
p1415
aV0.70
p1416
aV1.00
p1417
aI01
aa(lp1418
V2017-12-16 09:09
p1419
aV193.5
p1420
aV0.65
p1421
aV1.05
p1422
aI01
aa(lp1423
V2017-12-16 09:09
p1424
aV195.5
p1425
aV1.00
p1426
aV0.70
p1427
aI01
aa(lp1428
V2017-12-16 09:07
p1429
aV195.5
p1430
aV0.80
p1431
aV0.90
p1432
aI01
aa(lp1433
V2017-12-16 09:06
p1434
aV195.5
p1435
aV0.85
p1436
aV0.85
p1437
aI01
aa(lp1438
V2017-12-16 09:06
p1439
aV196.5
p1440
aV1.00
p1441
aV0.70
p1442
aI01
aa(lp1443
V2017-12-16 09:05
p1444
aV196.5
p1445
aV0.80
p1446
aV0.90
p1447
aI01
aa(lp1448
V2017-12-16 09:05
p1449
aV196.5
p1450
aV0.75
p1451
aV0.95
p1452
aI01
aa(lp1453
V2017-12-16 09:04
p1454
aV197.5
p1455
aV0.90
p1456
aV0.80
p1457
aI01
aa(lp1458
V2017-12-16 09:03
p1459
aV198.5
p1460
aV0.90
p1461
aV0.80
p1462
aI01
aa(lp1463
V2017-12-16 09:02
p1464
aV198.5
p1465
aV0.80
p1466
aV0.90
p1467
aI01
aa(lp1468
V2017-12-16 09:02
p1469
aV198.5
p1470
aV0.90
p1471
aV0.80
p1472
aI01
aa(lp1473
V2017-12-16 09:02
p1474
aV198.5
p1475
aV0.85
p1476
aV0.85
p1477
aI01
aa(lp1478
V2017-12-16 09:02
p1479
aV198.5
p1480
aV0.70
p1481
aV1.00
p1482
aI01
aa(lp1483
V2017-12-16 09:01
p1484
aV199.5
p1485
aV1.05
p1486
aV0.65
p1487
aI01
aa(lp1488
V2017-12-16 09:01
p1489
aV199.5
p1490
aV0.95
p1491
aV0.75
p1492
aI01
aa(lp1493
V2017-12-16 09:00
p1494
aV199.5
p1495
aV0.85
p1496
aV0.85
p1497
aI01
aa(lp1498
V2017-12-16 08:59
p1499
aV199.5
p1500
aV0.95
p1501
aV0.75
p1502
aI01
aa(lp1503
V2017-12-16 08:58
p1504
aV199.5
p1505
aV0.70
p1506
aV1.00
p1507
aI01
aa(lp1508
V2017-12-16 08:57
p1509
aV199.5
p1510
aV0.95
p1511
aV0.75
p1512
aI01
aa(lp1513
V2017-12-16 08:57
p1514
aV198.5
p1515
aV0.70
p1516
aV1.00
p1517
aI01
aa(lp1518
V2017-12-16 08:57
p1519
aV198.5
p1520
aV0.80
p1521
aV0.90
p1522
aI01
aa(lp1523
V2017-12-16 08:57
p1524
aV198.5
p1525
aV0.65
p1526
aV1.05
p1527
aI01
aa(lp1528
V2017-12-16 08:54
p1529
aV197.5
p1530
aV0.65
p1531
aV1.05
p1532
aI01
aa(lp1533
V2017-12-16 08:53
p1534
aV197.5
p1535
aV0.70
p1536
aV1.00
p1537
aI01
aa(lp1538
V2017-12-16 08:52
p1539
aV197.5
p1540
aV0.60
p1541
aV1.11
p1542
aI01
aa(lp1543
V2017-12-16 08:52
p1544
aV197.5
p1545
aV0.55
p1546
aV1.17
p1547
aI01
aa(lp1548
V2017-12-16 08:52
p1549
aV197.5
p1550
aV0.60
p1551
aV1.11
p1552
aI01
aa(lp1553
V2017-12-16 08:51
p1554
aV197.5
p1555
aV0.70
p1556
aV1.00
p1557
aI01
aa(lp1558
V2017-12-16 08:51
p1559
aV195.5
p1560
aV0.55
p1561
aV1.17
p1562
aI01
aa(lp1563
V2017-12-16 08:51
p1564
aV195.5
p1565
aV0.60
p1566
aV1.11
p1567
aI01
aa(lp1568
V2017-12-16 08:50
p1569
aV197.5
p1570
aV0.80
p1571
aV0.90
p1572
aI01
aa(lp1573
V2017-12-16 08:50
p1574
aV197.5
p1575
aV0.90
p1576
aV0.80
p1577
aI01
aa(lp1578
V2017-12-16 08:50
p1579
aV197.5
p1580
aV0.80
p1581
aV0.90
p1582
aI01
aa(lp1583
V2017-12-16 08:49
p1584
aV197.5
p1585
aV0.60
p1586
aV1.11
p1587
aI01
aa(lp1588
V2017-12-16 08:49
p1589
aV197.5
p1590
aV0.70
p1591
aV1.00
p1592
aI01
aa(lp1593
V2017-12-16 08:48
p1594
aV195.5
p1595
aV0.60
p1596
aV1.11
p1597
aI01
aa(lp1598
V2017-12-16 08:48
p1599
aV193.5
p1600
aV0.50
p1601
aV1.25
p1602
aI01
aa(lp1603
V2017-12-16 08:48
p1604
aV193.5
p1605
aV0.65
p1606
aV1.05
p1607
aI01
aa(lp1608
V2017-12-16 08:47
p1609
aV193.5
p1610
aV0.75
p1611
aV0.95
p1612
aI01
aa(lp1613
V2017-12-16 08:47
p1614
aV193.5
p1615
aV0.70
p1616
aV1.00
p1617
aI01
aa(lp1618
V2017-12-16 08:47
p1619
aV195.5
p1620
aV0.75
p1621
aV0.95
p1622
aI01
aa(lp1623
V2017-12-16 08:47
p1624
aV195.5
p1625
aV0.90
p1626
aV0.80
p1627
aI01
aa(lp1628
V2017-12-16 08:46
p1629
aV195.5
p1630
aV0.85
p1631
aV0.85
p1632
aI01
aa(lp1633
V2017-12-16 08:46
p1634
aV195.5
p1635
aV0.80
p1636
aV0.90
p1637
aI01
aa(lp1638
V2017-12-16 08:46
p1639
aV195.5
p1640
aV0.85
p1641
aV0.85
p1642
aI01
aa(lp1643
V2017-12-16 08:45
p1644
aV195.5
p1645
aV0.80
p1646
aV0.90
p1647
aI01
aa(lp1648
V2017-12-16 08:43
p1649
aV194.5
p1650
aV0.65
p1651
aV1.05
p1652
aI01
aa(lp1653
V2017-12-16 08:42
p1654
aV195.5
p1655
aV0.75
p1656
aV0.95
p1657
aI01
aa(lp1658
V2017-12-16 08:42
p1659
aV197.5
p1660
aV0.90
p1661
aV0.80
p1662
aI01
aa(lp1663
V2017-12-16 08:42
p1664
aV197.5
p1665
aV0.85
p1666
aV0.85
p1667
aI01
aa(lp1668
V2017-12-16 08:42
p1669
aV197.5
p1670
aV0.80
p1671
aV0.90
p1672
aI01
aa(lp1673
V2017-12-16 08:41
p1674
aV197.5
p1675
aV0.70
p1676
aV1.00
p1677
aI01
aa(lp1678
V2017-12-16 08:41
p1679
aV197.5
p1680
aV0.60
p1681
aV1.11
p1682
aI01
aa(lp1683
V2017-12-16 08:41
p1684
aV197.5
p1685
aV0.70
p1686
aV1.00
p1687
aI00
aa(lp1688
V2017-12-16 08:30
p1689
aV197.5
p1690
aV0.80
p1691
aV0.90
p1692
aI00
aa(lp1693
V2017-12-16 07:53
p1694
aV198
p1695
aV1.00
p1696
aV0.88
p1697
aI00
aa(lp1698
V2017-12-16 07:22
p1699
aV198
p1700
aV1.02
p1701
aV0.86
p1702
aI00
aa(lp1703
V2017-12-16 07:03
p1704
aV198
p1705
aV0.97
p1706
aV0.91
p1707
aI00
aa(lp1708
V2017-12-16 04:59
p1709
aV198
p1710
aV0.90
p1711
aV0.98
p1712
aI00
aa(lp1713
V2017-12-16 04:27
p1714
aV198
p1715
aV0.92
p1716
aV0.96
p1717
aI00
aa(lp1718
V2017-12-16 03:16
p1719
aV198
p1720
aV0.93
p1721
aV0.95
p1722
aI00
aa(lp1723
V2017-12-16 03:03
p1724
aV198
p1725
aV0.88
p1726
aV1.00
p1727
aI00
aa(lp1728
V2017-12-16 02:55
p1729
aV198
p1730
aV0.85
p1731
aV1.03
p1732
aI00
aa(lp1733
V2017-12-16 02:11
p1734
aV198
p1735
aV0.88
p1736
aV1.00
p1737
aI00
aa(lp1738
V2017-12-16 01:41
p1739
aV198
p1740
aV0.83
p1741
aV1.05
p1742
aI00
aa(lp1743
V2017-12-16 01:26
p1744
aV198
p1745
aV0.93
p1746
aV0.95
p1747
aI00
aa(lp1748
V2017-12-16 01:18
p1749
aV198
p1750
aV0.90
p1751
aV0.98
p1752
aI00
aa(lp1753
V2017-12-16 00:55
p1754
aV198
p1755
aV0.89
p1756
aV0.99
p1757
aI00
aa(lp1758
V2017-12-16 00:47
p1759
aV198
p1760
aV0.78
p1761
aV1.11
p1762
aI00
aa(lp1763
V2017-12-16 00:31
p1764
aV198
p1765
aV0.75
p1766
aV1.14
p1767
aI00
aa(lp1768
V2017-12-15 22:56
p1769
aV198
p1770
aV0.80
p1771
aV1.08
p1772
aI00
aa(lp1773
V2017-12-15 20:04
p1774
aV198
p1775
aV0.89
p1776
aV0.99
p1777
aI00
aa(lp1778
V2017-12-15 16:52
p1779
aV198
p1780
aV0.90
p1781
aV0.98
p1782
aI00
aa(lp1783
V2017-12-15 10:48
p1784
aV198
p1785
aV0.89
p1786
aV0.99
p1787
aI00
aa(lp1788
V2017-12-15 07:11
p1789
aV198
p1790
aV0.90
p1791
aV0.96
p1792
aI00
aasS'wade'
p1793
(lp1794
(lp1795
V2017-12-16 08:29
p1796
aV195.5
p1797
aV0.70
p1798
aV1.05
p1799
aI00
aa(lp1800
V2017-12-16 08:26
p1801
aV197.5
p1802
aV0.85
p1803
aV0.85
p1804
aI00
aa(lp1805
V2017-12-16 08:17
p1806
aV195.5
p1807
aV0.70
p1808
aV1.05
p1809
aI00
aa(lp1810
V2017-12-16 08:05
p1811
aV197
p1812
aV0.90
p1813
aV0.90
p1814
aI00
aa(lp1815
V2017-12-16 07:51
p1816
aV197.5
p1817
aV0.90
p1818
aV0.90
p1819
aI00
aa(lp1820
V2017-12-16 07:24
p1821
aV197
p1822
aV0.90
p1823
aV0.90
p1824
aI00
aa(lp1825
V2017-12-16 07:19
p1826
aV197.5
p1827
aV0.90
p1828
aV0.90
p1829
aI00
aa(lp1830
V2017-12-16 07:12
p1831
aV198
p1832
aV0.90
p1833
aV0.90
p1834
aI00
aa(lp1835
V2017-12-16 04:55
p1836
aV198.5
p1837
aV0.90
p1838
aV0.90
p1839
aI00
aa(lp1840
V2017-12-16 03:22
p1841
aV198
p1842
aV0.90
p1843
aV0.90
p1844
aI00
aa(lp1845
V2017-12-16 03:02
p1846
aV198.5
p1847
aV0.90
p1848
aV0.90
p1849
aI00
aa(lp1850
V2017-12-16 02:50
p1851
aV199
p1852
aV0.90
p1853
aV0.90
p1854
aI00
aa(lp1855
V2017-12-16 02:17
p1856
aV198.5
p1857
aV0.90
p1858
aV0.90
p1859
aI00
aa(lp1860
V2017-12-16 01:46
p1861
aV199
p1862
aV0.90
p1863
aV0.90
p1864
aI00
aa(lp1865
V2017-12-16 01:15
p1866
aV198.5
p1867
aV0.90
p1868
aV0.90
p1869
aI00
aa(lp1870
V2017-12-16 00:57
p1871
aV199
p1872
aV0.90
p1873
aV0.90
p1874
aI00
aa(lp1875
V2017-12-16 00:51
p1876
aV199.5
p1877
aV0.90
p1878
aV0.90
p1879
aI00
aa(lp1880
V2017-12-16 00:44
p1881
aV200
p1882
aV0.90
p1883
aV0.90
p1884
aI00
aa(lp1885
V2017-12-16 00:33
p1886
aV199.5
p1887
aV0.90
p1888
aV0.90
p1889
aI00
aa(lp1890
V2017-12-15 22:52
p1891
aV199
p1892
aV0.90
p1893
aV0.90
p1894
aI00
aa(lp1895
V2017-12-15 20:02
p1896
aV198.5
p1897
aV0.90
p1898
aV0.90
p1899
aI00
aa(lp1900
V2017-12-15 19:31
p1901
aV198
p1902
aV0.90
p1903
aV0.90
p1904
aI00
aa(lp1905
V2017-12-15 18:22
p1906
aV198.5
p1907
aV0.90
p1908
aV0.90
p1909
aI00
aa(lp1910
V2017-12-15 18:12
p1911
aV198
p1912
aV0.90
p1913
aV0.90
p1914
aI00
aa(lp1915
V2017-12-15 18:03
p1916
aV198.5
p1917
aV0.90
p1918
aV0.90
p1919
aI00
aa(lp1920
V2017-12-15 16:52
p1921
aV198
p1922
aV0.90
p1923
aV0.90
p1924
aI00
aa(lp1925
V2017-12-15 16:44
p1926
aV198.5
p1927
aV0.90
p1928
aV0.90
p1929
aI00
aa(lp1930
V2017-12-15 16:26
p1931
aV198
p1932
aV0.90
p1933
aV0.90
p1934
aI00
aa(lp1935
V2017-12-15 10:05
p1936
aV198.5
p1937
aV0.90
p1938
aV0.90
p1939
aI00
aa(lp1940
V2017-12-15 04:59
p1941
aV198
p1942
aV0.90
p1943
aV0.90
p1944
aI00
aasS'game_id'
p1945
V294929
p1946
sS'bet365'
p1947
(lp1948
(lp1949
V2017-12-16 10:32
p1950
aV199.5
p1951
aV0.90
p1952
aV0.83
p1953
aI01
aa(lp1954
V2017-12-16 10:32
p1955
aV200.5
p1956
aV0.86
p1957
aV0.86
p1958
aI01
aa(lp1959
V2017-12-16 10:30
p1960
aV197.5
p1961
aV0.86
p1962
aV0.86
p1963
aI01
aa(lp1964
V2017-12-16 10:28
p1965
aV196.5
p1966
aV0.83
p1967
aV0.90
p1968
aI01
aa(lp1969
V2017-12-16 10:28
p1970
aV197.5
p1971
aV0.83
p1972
aV0.90
p1973
aI01
aa(lp1974
V2017-12-16 10:28
p1975
aV199.5
p1976
aV0.90
p1977
aV0.83
p1978
aI01
aa(lp1979
V2017-12-16 10:27
p1980
aV199.5
p1981
aV0.80
p1982
aV0.95
p1983
aI01
aa(lp1984
V2017-12-16 10:27
p1985
aV198.5
p1986
aV0.80
p1987
aV0.95
p1988
aI01
aa(lp1989
V2017-12-16 10:26
p1990
aV201.5
p1991
aV0.90
p1992
aV0.83
p1993
aI01
aa(lp1994
V2017-12-16 10:26
p1995
aV201.5
p1996
aV0.80
p1997
aV0.95
p1998
aI01
aa(lp1999
V2017-12-16 10:26
p2000
aV202.5
p2001
aV0.95
p2002
aV0.80
p2003
aI01
aa(lp2004
V2017-12-16 10:25
p2005
aV199.5
p2006
aV0.83
p2007
aV0.90
p2008
aI01
aa(lp2009
V2017-12-16 10:24
p2010
aV200.5
p2011
aV0.86
p2012
aV0.86
p2013
aI01
aa(lp2014
V2017-12-16 10:24
p2015
aV201.5
p2016
aV0.86
p2017
aV0.86
p2018
aI01
aa(lp2019
V2017-12-16 10:24
p2020
aV200.5
p2021
aV0.83
p2022
aV0.90
p2023
aI01
aa(lp2024
V2017-12-16 10:23
p2025
aV200.5
p2026
aV0.80
p2027
aV0.95
p2028
aI01
aa(lp2029
V2017-12-16 10:23
p2030
aV200.5
p2031
aV0.90
p2032
aV0.83
p2033
aI01
aa(lp2034
V2017-12-16 10:23
p2035
aV199.5
p2036
aV0.86
p2037
aV0.86
p2038
aI01
aa(lp2039
V2017-12-16 10:22
p2040
aV199.5
p2041
aV0.83
p2042
aV0.90
p2043
aI01
aa(lp2044
V2017-12-16 10:22
p2045
aV198.5
p2046
aV0.86
p2047
aV0.86
p2048
aI01
aa(lp2049
V2017-12-16 10:22
p2050
aV199.5
p2051
aV0.95
p2052
aV0.80
p2053
aI01
aa(lp2054
V2017-12-16 10:21
p2055
aV200.5
p2056
aV0.90
p2057
aV0.83
p2058
aI01
aa(lp2059
V2017-12-16 10:21
p2060
aV201.5
p2061
aV0.80
p2062
aV0.95
p2063
aI01
aa(lp2064
V2017-12-16 10:21
p2065
aV200.5
p2066
aV0.95
p2067
aV0.80
p2068
aI01
aa(lp2069
V2017-12-16 10:20
p2070
aV201.5
p2071
aV0.86
p2072
aV0.86
p2073
aI01
aa(lp2074
V2017-12-16 10:20
p2075
aV199.5
p2076
aV0.86
p2077
aV0.86
p2078
aI01
aa(lp2079
V2017-12-16 10:17
p2080
aV198.5
p2081
aV0.86
p2082
aV0.86
p2083
aI01
aa(lp2084
V2017-12-16 10:17
p2085
aV199.5
p2086
aV0.86
p2087
aV0.86
p2088
aI01
aa(lp2089
V2017-12-16 10:16
p2090
aV200.5
p2091
aV0.80
p2092
aV0.95
p2093
aI01
aa(lp2094
V2017-12-16 10:16
p2095
aV199.5
p2096
aV0.83
p2097
aV0.90
p2098
aI01
aa(lp2099
V2017-12-16 10:15
p2100
aV201.5
p2101
aV0.86
p2102
aV0.86
p2103
aI01
aa(lp2104
V2017-12-16 10:15
p2105
aV202.5
p2106
aV0.80
p2107
aV0.95
p2108
aI01
aa(lp2109
V2017-12-16 10:14
p2110
aV202.5
p2111
aV0.83
p2112
aV0.90
p2113
aI01
aa(lp2114
V2017-12-16 10:14
p2115
aV202.5
p2116
aV0.86
p2117
aV0.86
p2118
aI01
aa(lp2119
V2017-12-16 10:14
p2120
aV201.5
p2121
aV0.86
p2122
aV0.86
p2123
aI01
aa(lp2124
V2017-12-16 10:13
p2125
aV203.5
p2126
aV0.83
p2127
aV0.90
p2128
aI01
aa(lp2129
V2017-12-16 10:13
p2130
aV203.5
p2131
aV0.90
p2132
aV0.83
p2133
aI01
aa(lp2134
V2017-12-16 10:13
p2135
aV201.5
p2136
aV0.83
p2137
aV0.90
p2138
aI01
aa(lp2139
V2017-12-16 10:12
p2140
aV203.5
p2141
aV0.83
p2142
aV0.90
p2143
aI01
aa(lp2144
V2017-12-16 10:12
p2145
aV202.5
p2146
aV0.90
p2147
aV0.83
p2148
aI01
aa(lp2149
V2017-12-16 10:11
p2150
aV202.5
p2151
aV0.95
p2152
aV0.80
p2153
aI01
aa(lp2154
V2017-12-16 10:10
p2155
aV201.5
p2156
aV0.80
p2157
aV0.95
p2158
aI01
aa(lp2159
V2017-12-16 10:09
p2160
aV201.5
p2161
aV0.83
p2162
aV0.90
p2163
aI01
aa(lp2164
V2017-12-16 10:08
p2165
aV201.5
p2166
aV0.86
p2167
aV0.86
p2168
aI01
aa(lp2169
V2017-12-16 10:08
p2170
aV203.5
p2171
aV0.90
p2172
aV0.83
p2173
aI01
aa(lp2174
V2017-12-16 10:04
p2175
aV200.5
p2176
aV0.86
p2177
aV0.86
p2178
aI01
aa(lp2179
V2017-12-16 10:04
p2180
aV202.5
p2181
aV0.90
p2182
aV0.83
p2183
aI01
aa(lp2184
V2017-12-16 10:04
p2185
aV199.5
p2186
aV0.86
p2187
aV0.86
p2188
aI01
aa(lp2189
V2017-12-16 10:03
p2190
aV199.5
p2191
aV0.90
p2192
aV0.83
p2193
aI01
aa(lp2194
V2017-12-16 10:03
p2195
aV199.5
p2196
aV0.86
p2197
aV0.86
p2198
aI01
aa(lp2199
V2017-12-16 10:02
p2200
aV199.5
p2201
aV0.90
p2202
aV0.83
p2203
aI01
aa(lp2204
V2017-12-16 10:02
p2205
aV198.5
p2206
aV0.86
p2207
aV0.86
p2208
aI01
aa(lp2209
V2017-12-16 10:01
p2210
aV198.5
p2211
aV0.90
p2212
aV0.83
p2213
aI01
aa(lp2214
V2017-12-16 10:01
p2215
aV196.5
p2216
aV0.83
p2217
aV0.90
p2218
aI01
aa(lp2219
V2017-12-16 10:01
p2220
aV196.5
p2221
aV0.90
p2222
aV0.83
p2223
aI01
aa(lp2224
V2017-12-16 09:58
p2225
aV195.5
p2226
aV0.83
p2227
aV0.90
p2228
aI01
aa(lp2229
V2017-12-16 09:57
p2230
aV194.5
p2231
aV0.86
p2232
aV0.86
p2233
aI01
aa(lp2234
V2017-12-16 09:57
p2235
aV196.5
p2236
aV0.86
p2237
aV0.86
p2238
aI01
aa(lp2239
V2017-12-16 09:56
p2240
aV196.5
p2241
aV0.90
p2242
aV0.83
p2243
aI01
aa(lp2244
V2017-12-16 09:55
p2245
aV193.5
p2246
aV0.90
p2247
aV0.83
p2248
aI01
aa(lp2249
V2017-12-16 09:55
p2250
aV192.5
p2251
aV0.86
p2252
aV0.86
p2253
aI01
aa(lp2254
V2017-12-16 09:55
p2255
aV192.5
p2256
aV0.90
p2257
aV0.83
p2258
aI01
aa(lp2259
V2017-12-16 09:54
p2260
aV192.5
p2261
aV0.86
p2262
aV0.86
p2263
aI01
aa(lp2264
V2017-12-16 09:54
p2265
aV192.5
p2266
aV0.90
p2267
aV0.83
p2268
aI01
aa(lp2269
V2017-12-16 09:53
p2270
aV190.5
p2271
aV0.86
p2272
aV0.86
p2273
aI01
aa(lp2274
V2017-12-16 09:53
p2275
aV189.5
p2276
aV0.86
p2277
aV0.86
p2278
aI01
aa(lp2279
V2017-12-16 09:52
p2280
aV187.5
p2281
aV0.83
p2282
aV0.90
p2283
aI01
aa(lp2284
V2017-12-16 09:52
p2285
aV187.5
p2286
aV0.90
p2287
aV0.83
p2288
aI01
aa(lp2289
V2017-12-16 09:39
p2290
aV187.5
p2291
aV0.83
p2292
aV0.90
p2293
aI01
aa(lp2294
V2017-12-16 09:36
p2295
aV187.5
p2296
aV0.86
p2297
aV0.86
p2298
aI01
aa(lp2299
V2017-12-16 09:35
p2300
aV189.5
p2301
aV0.90
p2302
aV0.83
p2303
aI01
aa(lp2304
V2017-12-16 09:35
p2305
aV187.5
p2306
aV0.86
p2307
aV0.86
p2308
aI01
aa(lp2309
V2017-12-16 09:34
p2310
aV184.5
p2311
aV0.83
p2312
aV0.90
p2313
aI01
aa(lp2314
V2017-12-16 09:33
p2315
aV186.5
p2316
aV0.86
p2317
aV0.86
p2318
aI01
aa(lp2319
V2017-12-16 09:31
p2320
aV186.5
p2321
aV0.90
p2322
aV0.83
p2323
aI01
aa(lp2324
V2017-12-16 09:31
p2325
aV187.5
p2326
aV0.90
p2327
aV0.83
p2328
aI01
aa(lp2329
V2017-12-16 09:30
p2330
aV188.5
p2331
aV0.86
p2332
aV0.86
p2333
aI01
aa(lp2334
V2017-12-16 09:30
p2335
aV186.5
p2336
aV0.86
p2337
aV0.86
p2338
aI01
aa(lp2339
V2017-12-16 09:29
p2340
aV188.5
p2341
aV0.83
p2342
aV0.90
p2343
aI01
aa(lp2344
V2017-12-16 09:29
p2345
aV186.5
p2346
aV0.83
p2347
aV0.90
p2348
aI01
aa(lp2349
V2017-12-16 09:28
p2350
aV189.5
p2351
aV0.86
p2352
aV0.86
p2353
aI01
aa(lp2354
V2017-12-16 09:28
p2355
aV187.5
p2356
aV0.83
p2357
aV0.90
p2358
aI01
aa(lp2359
V2017-12-16 09:25
p2360
aV188.5
p2361
aV0.83
p2362
aV0.90
p2363
aI01
aa(lp2364
V2017-12-16 09:24
p2365
aV186.5
p2366
aV0.86
p2367
aV0.86
p2368
aI01
aa(lp2369
V2017-12-16 09:24
p2370
aV188.5
p2371
aV0.86
p2372
aV0.86
p2373
aI01
aa(lp2374
V2017-12-16 09:24
p2375
aV189.5
p2376
aV0.86
p2377
aV0.86
p2378
aI01
aa(lp2379
V2017-12-16 09:23
p2380
aV188.5
p2381
aV0.83
p2382
aV0.90
p2383
aI01
aa(lp2384
V2017-12-16 09:23
p2385
aV189.5
p2386
aV0.86
p2387
aV0.86
p2388
aI01
aa(lp2389
V2017-12-16 09:23
p2390
aV188.5
p2391
aV0.86
p2392
aV0.86
p2393
aI01
aa(lp2394
V2017-12-16 09:22
p2395
aV186.5
p2396
aV0.86
p2397
aV0.86
p2398
aI01
aa(lp2399
V2017-12-16 09:22
p2400
aV185.5
p2401
aV0.86
p2402
aV0.86
p2403
aI01
aa(lp2404
V2017-12-16 09:21
p2405
aV184.5
p2406
aV0.86
p2407
aV0.86
p2408
aI01
aa(lp2409
V2017-12-16 09:21
p2410
aV185.5
p2411
aV0.86
p2412
aV0.86
p2413
aI01
aa(lp2414
V2017-12-16 09:21
p2415
aV186.5
p2416
aV0.83
p2417
aV0.90
p2418
aI01
aa(lp2419
V2017-12-16 09:20
p2420
aV186.5
p2421
aV0.86
p2422
aV0.86
p2423
aI01
aa(lp2424
V2017-12-16 09:19
p2425
aV186.5
p2426
aV0.83
p2427
aV0.90
p2428
aI01
aa(lp2429
V2017-12-16 09:18
p2430
aV189.5
p2431
aV0.90
p2432
aV0.83
p2433
aI01
aa(lp2434
V2017-12-16 09:18
p2435
aV189.5
p2436
aV0.86
p2437
aV0.86
p2438
aI01
aa(lp2439
V2017-12-16 09:17
p2440
aV190.5
p2441
aV0.86
p2442
aV0.86
p2443
aI01
aa(lp2444
V2017-12-16 09:17
p2445
aV192.5
p2446
aV0.86
p2447
aV0.86
p2448
aI01
aa(lp2449
V2017-12-16 09:16
p2450
aV194.5
p2451
aV0.90
p2452
aV0.83
p2453
aI01
aa(lp2454
V2017-12-16 09:13
p2455
aV194.5
p2456
aV0.83
p2457
aV0.90
p2458
aI01
aa(lp2459
V2017-12-16 09:13
p2460
aV192.5
p2461
aV0.83
p2462
aV0.90
p2463
aI01
aa(lp2464
V2017-12-16 09:13
p2465
aV194.5
p2466
aV0.90
p2467
aV0.83
p2468
aI01
aa(lp2469
V2017-12-16 09:12
p2470
aV195.5
p2471
aV0.90
p2472
aV0.83
p2473
aI01
aa(lp2474
V2017-12-16 09:12
p2475
aV195.5
p2476
aV0.83
p2477
aV0.90
p2478
aI01
aa(lp2479
V2017-12-16 09:11
p2480
aV194.5
p2481
aV0.83
p2482
aV0.90
p2483
aI01
aa(lp2484
V2017-12-16 09:10
p2485
aV195.5
p2486
aV0.86
p2487
aV0.86
p2488
aI01
aa(lp2489
V2017-12-16 09:10
p2490
aV195.5
p2491
aV0.90
p2492
aV0.83
p2493
aI01
aa(lp2494
V2017-12-16 09:09
p2495
aV194.5
p2496
aV0.86
p2497
aV0.86
p2498
aI01
aa(lp2499
V2017-12-16 09:09
p2500
aV195.5
p2501
aV0.86
p2502
aV0.86
p2503
aI01
aa(lp2504
V2017-12-16 09:06
p2505
aV196.5
p2506
aV0.86
p2507
aV0.86
p2508
aI01
aa(lp2509
V2017-12-16 09:05
p2510
aV194.5
p2511
aV0.83
p2512
aV0.90
p2513
aI01
aa(lp2514
V2017-12-16 09:04
p2515
aV195.5
p2516
aV0.83
p2517
aV0.90
p2518
aI01
aa(lp2519
V2017-12-16 09:03
p2520
aV196.5
p2521
aV0.86
p2522
aV0.86
p2523
aI01
aa(lp2524
V2017-12-16 09:03
p2525
aV197.5
p2526
aV0.86
p2527
aV0.86
p2528
aI01
aa(lp2529
V2017-12-16 09:02
p2530
aV197.5
p2531
aV0.83
p2532
aV0.90
p2533
aI01
aa(lp2534
V2017-12-16 09:02
p2535
aV197.5
p2536
aV0.86
p2537
aV0.86
p2538
aI01
aa(lp2539
V2017-12-16 09:02
p2540
aV198.5
p2541
aV0.86
p2542
aV0.86
p2543
aI01
aa(lp2544
V2017-12-16 09:01
p2545
aV197.5
p2546
aV0.86
p2547
aV0.86
p2548
aI01
aa(lp2549
V2017-12-16 09:01
p2550
aV199.5
p2551
aV0.90
p2552
aV0.83
p2553
aI01
aa(lp2554
V2017-12-16 09:00
p2555
aV199.5
p2556
aV0.86
p2557
aV0.86
p2558
aI01
aa(lp2559
V2017-12-16 09:00
p2560
aV200.5
p2561
aV0.86
p2562
aV0.86
p2563
aI01
aa(lp2564
V2017-12-16 08:59
p2565
aV199.5
p2566
aV0.86
p2567
aV0.86
p2568
aI01
aa(lp2569
V2017-12-16 08:58
p2570
aV200.5
p2571
aV0.90
p2572
aV0.83
p2573
aI01
aa(lp2574
V2017-12-16 08:57
p2575
aV198.5
p2576
aV0.86
p2577
aV0.86
p2578
aI01
aa(lp2579
V2017-12-16 08:56
p2580
aV198.5
p2581
aV0.83
p2582
aV0.90
p2583
aI01
aa(lp2584
V2017-12-16 08:56
p2585
aV197.5
p2586
aV0.86
p2587
aV0.86
p2588
aI01
aa(lp2589
V2017-12-16 08:53
p2590
aV197.5
p2591
aV0.90
p2592
aV0.83
p2593
aI01
aa(lp2594
V2017-12-16 08:52
p2595
aV198.5
p2596
aV0.86
p2597
aV0.86
p2598
aI01
aa(lp2599
V2017-12-16 08:52
p2600
aV199.5
p2601
aV0.86
p2602
aV0.86
p2603
aI01
aa(lp2604
V2017-12-16 08:52
p2605
aV199.5
p2606
aV0.90
p2607
aV0.83
p2608
aI01
aa(lp2609
V2017-12-16 08:51
p2610
aV197.5
p2611
aV0.90
p2612
aV0.83
p2613
aI01
aa(lp2614
V2017-12-16 08:51
p2615
aV195.5
p2616
aV0.86
p2617
aV0.86
p2618
aI01
aa(lp2619
V2017-12-16 08:50
p2620
aV196.5
p2621
aV0.86
p2622
aV0.86
p2623
aI01
aa(lp2624
V2017-12-16 08:50
p2625
aV195.5
p2626
aV0.86
p2627
aV0.86
p2628
aI01
aa(lp2629
V2017-12-16 08:49
p2630
aV196.5
p2631
aV0.86
p2632
aV0.86
p2633
aI01
aa(lp2634
V2017-12-16 08:49
p2635
aV198.5
p2636
aV0.86
p2637
aV0.86
p2638
aI01
aa(lp2639
V2017-12-16 08:49
p2640
aV197.5
p2641
aV0.86
p2642
aV0.86
p2643
aI01
aa(lp2644
V2017-12-16 08:48
p2645
aV199.5
p2646
aV0.90
p2647
aV0.83
p2648
aI01
aa(lp2649
V2017-12-16 08:48
p2650
aV197.5
p2651
aV0.86
p2652
aV0.86
p2653
aI01
aa(lp2654
V2017-12-16 08:48
p2655
aV195.5
p2656
aV0.86
p2657
aV0.86
p2658
aI01
aa(lp2659
V2017-12-16 08:47
p2660
aV194.5
p2661
aV0.83
p2662
aV0.90
p2663
aI01
aa(lp2664
V2017-12-16 08:47
p2665
aV193.5
p2666
aV0.86
p2667
aV0.86
p2668
aI01
aa(lp2669
V2017-12-16 08:46
p2670
aV194.5
p2671
aV0.86
p2672
aV0.86
p2673
aI01
aa(lp2674
V2017-12-16 08:46
p2675
aV193.5
p2676
aV0.83
p2677
aV0.90
p2678
aI01
aa(lp2679
V2017-12-16 08:46
p2680
aV194.5
p2681
aV0.90
p2682
aV0.83
p2683
aI01
aa(lp2684
V2017-12-16 08:46
p2685
aV194.5
p2686
aV0.83
p2687
aV0.90
p2688
aI01
aa(lp2689
V2017-12-16 08:45
p2690
aV194.5
p2691
aV0.90
p2692
aV0.83
p2693
aI01
aa(lp2694
V2017-12-16 08:42
p2695
aV194.5
p2696
aV0.86
p2697
aV0.86
p2698
aI01
aa(lp2699
V2017-12-16 08:42
p2700
aV195.5
p2701
aV0.86
p2702
aV0.86
p2703
aI01
aa(lp2704
V2017-12-16 08:41
p2705
aV197.5
p2706
aV0.86
p2707
aV0.86
p2708
aI01
aa(lp2709
V2017-12-16 08:41
p2710
aV198.5
p2711
aV0.86
p2712
aV0.86
p2713
aI01
aa(lp2714
V2017-12-16 08:41
p2715
aV197.5
p2716
aV0.86
p2717
aV0.86
p2718
aI00
aa(lp2719
V2017-12-16 08:40
p2720
aV196.5
p2721
aV0.86
p2722
aV0.86
p2723
aI00
aa(lp2724
V2017-12-16 08:14
p2725
aV197
p2726
aV0.90
p2727
aV0.90
p2728
aI00
aa(lp2729
V2017-12-16 07:48
p2730
aV197.5
p2731
aV0.90
p2732
aV0.90
p2733
aI00
aa(lp2734
V2017-12-16 07:22
p2735
aV197
p2736
aV0.90
p2737
aV0.90
p2738
aI00
aa(lp2739
V2017-12-16 07:18
p2740
aV197.5
p2741
aV0.90
p2742
aV0.90
p2743
aI00
aa(lp2744
V2017-12-16 07:13
p2745
aV198
p2746
aV0.90
p2747
aV0.90
p2748
aI00
aa(lp2749
V2017-12-16 02:10
p2750
aV198.5
p2751
aV0.90
p2752
aV0.90
p2753
aI00
aa(lp2754
V2017-12-16 01:44
p2755
aV199
p2756
aV0.90
p2757
aV0.90
p2758
aI00
aa(lp2759
V2017-12-16 01:21
p2760
aV198.5
p2761
aV0.90
p2762
aV0.90
p2763
aI00
aa(lp2764
V2017-12-16 01:19
p2765
aV199
p2766
aV0.90
p2767
aV0.90
p2768
aI00
aa(lp2769
V2017-12-16 01:15
p2770
aV198.5
p2771
aV0.90
p2772
aV0.90
p2773
aI00
aa(lp2774
V2017-12-16 00:49
p2775
aV199
p2776
aV0.90
p2777
aV0.90
p2778
aI00
aa(lp2779
V2017-12-16 00:28
p2780
aV199.5
p2781
aV0.90
p2782
aV0.90
p2783
aI00
aa(lp2784
V2017-12-15 22:51
p2785
aV199
p2786
aV0.90
p2787
aV0.90
p2788
aI00
aa(lp2789
V2017-12-15 20:02
p2790
aV198.5
p2791
aV0.90
p2792
aV0.90
p2793
aI00
aa(lp2794
V2017-12-15 10:00
p2795
aV198
p2796
aV0.90
p2797
aV0.90
p2798
aI00
aassb.