ccopy_reg
_reconstructor
p0
(cmy_oddsportal.items
WinOverUnderItem
p1
c__builtin__
object
p2
Ntp3
Rp4
(dp5
S'_values'
p6
(dp7
S'ysb8'
p8
(lp9
(lp10
V2018-12-14 11:27
p11
aV210
p12
aV0.99
p13
aV0.87
p14
aI00
aa(lp15
V2018-12-14 11:24
p16
aV210
p17
aV0.96
p18
aV0.90
p19
aI00
aa(lp20
V2018-12-14 11:22
p21
aV210
p22
aV0.90
p23
aV0.96
p24
aI00
aa(lp25
V2018-12-14 11:21
p26
aV210
p27
aV0.96
p28
aV0.90
p29
aI00
aa(lp30
V2018-12-14 10:53
p31
aV210
p32
aV0.93
p33
aV0.93
p34
aI00
aa(lp35
V2018-12-14 10:24
p36
aV210
p37
aV0.96
p38
aV0.90
p39
aI00
aa(lp40
V2018-12-14 10:22
p41
aV210
p42
aV1.00
p43
aV0.86
p44
aI00
aa(lp45
V2018-12-14 10:20
p46
aV210
p47
aV0.94
p48
aV0.92
p49
aI00
aa(lp50
V2018-12-14 10:17
p51
aV210
p52
aV0.97
p53
aV0.89
p54
aI00
aa(lp55
V2018-12-14 10:11
p56
aV210
p57
aV0.99
p58
aV0.87
p59
aI00
aa(lp60
V2018-12-14 09:29
p61
aV210
p62
aV1.08
p63
aV0.80
p64
aI00
aa(lp65
V2018-12-14 08:36
p66
aV210
p67
aV1.05
p68
aV0.82
p69
aI00
aa(lp70
V2018-12-14 05:36
p71
aV210
p72
aV1.01
p73
aV0.85
p74
aI00
aa(lp75
V2018-12-14 05:35
p76
aV210.5
p77
aV1.08
p78
aV0.80
p79
aI00
aa(lp80
V2018-12-14 05:28
p81
aV210.5
p82
aV1.05
p83
aV0.82
p84
aI00
aa(lp85
V2018-12-14 05:27
p86
aV210.5
p87
aV1.08
p88
aV0.80
p89
aI00
aa(lp90
V2018-12-14 05:13
p91
aV210.5
p92
aV1.05
p93
aV0.82
p94
aI00
aa(lp95
V2018-12-14 05:05
p96
aV210.5
p97
aV1.10
p98
aV0.78
p99
aI00
aa(lp100
V2018-12-14 05:02
p101
aV210.5
p102
aV1.08
p103
aV0.80
p104
aI00
aa(lp105
V2018-12-14 05:01
p106
aV210.5
p107
aV1.10
p108
aV0.78
p109
aI00
aa(lp110
V2018-12-14 04:54
p111
aV210.5
p112
aV1.05
p113
aV0.82
p114
aI00
aa(lp115
V2018-12-14 04:02
p116
aV210.5
p117
aV1.12
p118
aV0.77
p119
aI00
aa(lp120
V2018-12-14 03:26
p121
aV210.5
p122
aV1.15
p123
aV0.75
p124
aI00
aa(lp125
V2018-12-14 03:22
p126
aV210.5
p127
aV1.10
p128
aV0.78
p129
aI00
aa(lp130
V2018-12-14 03:19
p131
aV210.5
p132
aV1.15
p133
aV0.75
p134
aI00
aa(lp135
V2018-12-14 02:23
p136
aV211
p137
aV1.15
p138
aV0.75
p139
aI00
aa(lp140
V2018-12-14 01:37
p141
aV211
p142
aV1.10
p143
aV0.78
p144
aI00
aa(lp145
V2018-12-14 01:30
p146
aV211
p147
aV1.08
p148
aV0.80
p149
aI00
aa(lp150
V2018-12-14 01:29
p151
aV211
p152
aV1.16
p153
aV0.74
p154
aI00
aa(lp155
V2018-12-14 01:28
p156
aV211
p157
aV1.10
p158
aV0.78
p159
aI00
aa(lp160
V2018-12-14 01:28
p161
aV211
p162
aV1.00
p163
aV0.86
p164
aI00
aa(lp165
V2018-12-14 01:26
p166
aV211
p167
aV0.98
p168
aV0.88
p169
aI00
aa(lp170
V2018-12-14 01:25
p171
aV211
p172
aV0.92
p173
aV0.94
p174
aI00
aa(lp175
V2018-12-14 00:58
p176
aV211
p177
aV0.94
p178
aV0.92
p179
aI00
aa(lp180
V2018-12-14 00:36
p181
aV211
p182
aV0.90
p183
aV0.96
p184
aI00
aa(lp185
V2018-12-14 00:10
p186
aV211
p187
aV0.88
p188
aV0.98
p189
aI00
aa(lp190
V2018-12-14 00:04
p191
aV211
p192
aV0.92
p193
aV0.94
p194
aI00
aa(lp195
V2018-12-13 23:50
p196
aV211
p197
aV0.88
p198
aV0.98
p199
aI00
aa(lp200
V2018-12-13 23:43
p201
aV211
p202
aV0.85
p203
aV1.01
p204
aI00
aa(lp205
V2018-12-13 23:08
p206
aV211
p207
aV0.88
p208
aV0.98
p209
aI00
aa(lp210
V2018-12-13 22:10
p211
aV211
p212
aV0.86
p213
aV1.00
p214
aI00
aa(lp215
V2018-12-13 22:09
p216
aV211
p217
aV0.84
p218
aV1.03
p219
aI00
aa(lp220
V2018-12-13 21:11
p221
aV211
p222
aV0.92
p223
aV0.94
p224
aI00
aasS'macau'
p225
(lp226
(lp227
V2018-12-14 11:38
p228
aV210.5
p229
aV1.00
p230
aV0.66
p231
aI00
aa(lp232
V2018-12-14 11:38
p233
aV210.5
p234
aV0.66
p235
aV1.00
p236
aI00
aa(lp237
V2018-12-14 11:37
p238
aV208.5
p239
aV0.66
p240
aV1.00
p241
aI00
aa(lp242
V2018-12-14 11:31
p243
aV208.5
p244
aV0.84
p245
aV0.820
p246
aI00
aa(lp247
V2018-12-14 10:50
p248
aV208.5
p249
aV0.84
p250
aV0.86
p251
aI00
aa(lp252
V2018-12-14 06:25
p253
aV208.5
p254
aV0.86
p255
aV0.84
p256
aI00
aa(lp257
V2018-12-14 02:49
p258
aV209.5
p259
aV0.88
p260
aV0.820
p261
aI00
aa(lp262
V2018-12-13 21:52
p263
aV211.5
p264
aV0.90
p265
aV0.80
p266
aI00
aasS'title'
p267
V\u000a                \u9cf3\u51f0\u57ce\u592a\u967d\u000a                vs\u000a                \u9054\u62c9\u65af\u7368\u884c\u4fe0\u000a            
p268
sS'crown'
p269
(lp270
(lp271
V2018-12-14 13:54
p272
aV189.5
p273
aV0.70
p274
aV0.96
p275
aI01
aa(lp276
V2018-12-14 13:54
p277
aV188.5
p278
aV0.70
p279
aV0.96
p280
aI01
aa(lp281
V2018-12-14 13:53
p282
aV188.5
p283
aV0.61
p284
aV1.05
p285
aI01
aa(lp286
V2018-12-14 13:53
p287
aV189.5
p288
aV0.61
p289
aV1.05
p290
aI01
aa(lp291
V2018-12-14 13:53
p292
aV191.5
p293
aV0.61
p294
aV1.05
p295
aI01
aa(lp296
V2018-12-14 13:52
p297
aV192.5
p298
aV0.61
p299
aV1.05
p300
aI01
aa(lp301
V2018-12-14 13:52
p302
aV194.5
p303
aV0.61
p304
aV1.05
p305
aI01
aa(lp306
V2018-12-14 13:52
p307
aV193.5
p308
aV0.61
p309
aV1.05
p310
aI01
aa(lp311
V2018-12-14 13:52
p312
aV194.5
p313
aV0.61
p314
aV1.05
p315
aI01
aa(lp316
V2018-12-14 13:51
p317
aV193.5
p318
aV0.61
p319
aV1.05
p320
aI01
aa(lp321
V2018-12-14 13:51
p322
aV193.5
p323
aV0.60
p324
aV1.06
p325
aI01
aa(lp326
V2018-12-14 13:50
p327
aV192.5
p328
aV0.60
p329
aV1.06
p330
aI01
aa(lp331
V2018-12-14 13:50
p332
aV193.5
p333
aV0.60
p334
aV1.06
p335
aI01
aa(lp336
V2018-12-14 13:50
p337
aV194.5
p338
aV0.60
p339
aV1.06
p340
aI01
aa(lp341
V2018-12-14 13:50
p342
aV193.5
p343
aV0.60
p344
aV1.06
p345
aI01
aa(lp346
V2018-12-14 13:49
p347
aV192.5
p348
aV0.60
p349
aV1.06
p350
aI01
aa(lp351
V2018-12-14 13:49
p352
aV192.5
p353
aV0.66
p354
aV1.00
p355
aI01
aa(lp356
V2018-12-14 13:49
p357
aV193.5
p358
aV0.70
p359
aV0.96
p360
aI01
aa(lp361
V2018-12-14 13:48
p362
aV192.5
p363
aV0.70
p364
aV0.96
p365
aI01
aa(lp366
V2018-12-14 13:48
p367
aV192.5
p368
aV0.80
p369
aV0.86
p370
aI01
aa(lp371
V2018-12-14 13:48
p372
aV191.5
p373
aV0.83
p374
aV0.83
p375
aI01
aa(lp376
V2018-12-14 13:48
p377
aV191.5
p378
aV0.88
p379
aV0.78
p380
aI01
aa(lp381
V2018-12-14 13:46
p382
aV191.5
p383
aV0.83
p384
aV0.83
p385
aI01
aa(lp386
V2018-12-14 13:46
p387
aV191.5
p388
aV0.76
p389
aV0.90
p390
aI01
aa(lp391
V2018-12-14 13:45
p392
aV191.5
p393
aV0.83
p394
aV0.83
p395
aI01
aa(lp396
V2018-12-14 13:44
p397
aV192.5
p398
aV0.90
p399
aV0.76
p400
aI01
aa(lp401
V2018-12-14 13:44
p402
aV192.5
p403
aV0.83
p404
aV0.83
p405
aI01
aa(lp406
V2018-12-14 13:44
p407
aV191.5
p408
aV0.83
p409
aV0.83
p410
aI01
aa(lp411
V2018-12-14 13:43
p412
aV192.5
p413
aV0.83
p414
aV0.83
p415
aI01
aa(lp416
V2018-12-14 13:43
p417
aV193.5
p418
aV0.83
p419
aV0.83
p420
aI01
aa(lp421
V2018-12-14 13:43
p422
aV194.5
p423
aV0.83
p424
aV0.83
p425
aI01
aa(lp426
V2018-12-14 13:43
p427
aV195.5
p428
aV0.83
p429
aV0.83
p430
aI01
aa(lp431
V2018-12-14 13:42
p432
aV194.5
p433
aV0.83
p434
aV0.83
p435
aI01
aa(lp436
V2018-12-14 13:38
p437
aV196.5
p438
aV0.83
p439
aV0.83
p440
aI01
aa(lp441
V2018-12-14 13:37
p442
aV194.5
p443
aV0.83
p444
aV0.83
p445
aI01
aa(lp446
V2018-12-14 13:37
p447
aV195.5
p448
aV0.83
p449
aV0.83
p450
aI01
aa(lp451
V2018-12-14 13:37
p452
aV194.5
p453
aV0.83
p454
aV0.83
p455
aI01
aa(lp456
V2018-12-14 13:37
p457
aV193.5
p458
aV0.83
p459
aV0.83
p460
aI01
aa(lp461
V2018-12-14 13:37
p462
aV194.5
p463
aV0.83
p464
aV0.83
p465
aI01
aa(lp466
V2018-12-14 13:36
p467
aV193.5
p468
aV0.83
p469
aV0.83
p470
aI01
aa(lp471
V2018-12-14 13:36
p472
aV194.5
p473
aV0.83
p474
aV0.83
p475
aI01
aa(lp476
V2018-12-14 13:36
p477
aV193.5
p478
aV0.83
p479
aV0.83
p480
aI01
aa(lp481
V2018-12-14 13:35
p482
aV194.5
p483
aV0.83
p484
aV0.83
p485
aI01
aa(lp486
V2018-12-14 13:35
p487
aV195.5
p488
aV0.83
p489
aV0.83
p490
aI01
aa(lp491
V2018-12-14 13:35
p492
aV196.5
p493
aV0.83
p494
aV0.83
p495
aI01
aa(lp496
V2018-12-14 13:34
p497
aV196.5
p498
aV0.88
p499
aV0.78
p500
aI01
aa(lp501
V2018-12-14 13:34
p502
aV197.5
p503
aV0.88
p504
aV0.78
p505
aI01
aa(lp506
V2018-12-14 13:33
p507
aV198.5
p508
aV0.88
p509
aV0.78
p510
aI01
aa(lp511
V2018-12-14 13:31
p512
aV197.5
p513
aV0.88
p514
aV0.78
p515
aI01
aa(lp516
V2018-12-14 13:30
p517
aV197.5
p518
aV0.83
p519
aV0.83
p520
aI01
aa(lp521
V2018-12-14 13:29
p522
aV198.5
p523
aV0.83
p524
aV0.83
p525
aI01
aa(lp526
V2018-12-14 13:28
p527
aV197.5
p528
aV0.83
p529
aV0.83
p530
aI01
aa(lp531
V2018-12-14 13:26
p532
aV198.5
p533
aV0.83
p534
aV0.83
p535
aI01
aa(lp536
V2018-12-14 13:26
p537
aV197.5
p538
aV0.83
p539
aV0.83
p540
aI01
aa(lp541
V2018-12-14 13:26
p542
aV196.5
p543
aV0.83
p544
aV0.83
p545
aI01
aa(lp546
V2018-12-14 13:25
p547
aV197.5
p548
aV0.83
p549
aV0.83
p550
aI01
aa(lp551
V2018-12-14 13:25
p552
aV196.5
p553
aV0.83
p554
aV0.83
p555
aI01
aa(lp556
V2018-12-14 13:25
p557
aV197.5
p558
aV0.83
p559
aV0.83
p560
aI01
aa(lp561
V2018-12-14 13:25
p562
aV198.5
p563
aV0.83
p564
aV0.83
p565
aI01
aa(lp566
V2018-12-14 13:24
p567
aV197.5
p568
aV0.83
p569
aV0.83
p570
aI01
aa(lp571
V2018-12-14 13:24
p572
aV196.5
p573
aV0.83
p574
aV0.83
p575
aI01
aa(lp576
V2018-12-14 13:24
p577
aV195.5
p578
aV0.83
p579
aV0.83
p580
aI01
aa(lp581
V2018-12-14 13:23
p582
aV196.5
p583
aV0.83
p584
aV0.83
p585
aI01
aa(lp586
V2018-12-14 13:22
p587
aV194.5
p588
aV0.83
p589
aV0.83
p590
aI01
aa(lp591
V2018-12-14 13:21
p592
aV195.5
p593
aV0.83
p594
aV0.83
p595
aI01
aa(lp596
V2018-12-14 13:21
p597
aV194.5
p598
aV0.83
p599
aV0.83
p600
aI01
aa(lp601
V2018-12-14 13:20
p602
aV193.5
p603
aV0.83
p604
aV0.83
p605
aI01
aa(lp606
V2018-12-14 13:20
p607
aV193.5
p608
aV0.88
p609
aV0.78
p610
aI01
aa(lp611
V2018-12-14 13:19
p612
aV193.5
p613
aV0.83
p614
aV0.83
p615
aI01
aa(lp616
V2018-12-14 13:18
p617
aV194.5
p618
aV0.88
p619
aV0.78
p620
aI01
aa(lp621
V2018-12-14 13:17
p622
aV195.5
p623
aV0.88
p624
aV0.78
p625
aI01
aa(lp626
V2018-12-14 13:15
p627
aV195.5
p628
aV0.83
p629
aV0.83
p630
aI01
aa(lp631
V2018-12-14 13:14
p632
aV195.5
p633
aV0.88
p634
aV0.78
p635
aI01
aa(lp636
V2018-12-14 13:13
p637
aV194.5
p638
aV0.88
p639
aV0.78
p640
aI01
aa(lp641
V2018-12-14 13:13
p642
aV195.5
p643
aV0.88
p644
aV0.78
p645
aI01
aa(lp646
V2018-12-14 13:13
p647
aV193.5
p648
aV0.88
p649
aV0.78
p650
aI01
aa(lp651
V2018-12-14 13:12
p652
aV194.5
p653
aV0.88
p654
aV0.78
p655
aI01
aa(lp656
V2018-12-14 13:12
p657
aV195.5
p658
aV0.83
p659
aV0.83
p660
aI01
aa(lp661
V2018-12-14 13:12
p662
aV196.5
p663
aV0.83
p664
aV0.83
p665
aI01
aa(lp666
V2018-12-14 13:11
p667
aV195.5
p668
aV0.83
p669
aV0.83
p670
aI01
aa(lp671
V2018-12-14 13:10
p672
aV193.5
p673
aV0.83
p674
aV0.83
p675
aI01
aa(lp676
V2018-12-14 13:10
p677
aV194.5
p678
aV0.83
p679
aV0.83
p680
aI01
aa(lp681
V2018-12-14 13:09
p682
aV195.5
p683
aV0.83
p684
aV0.83
p685
aI01
aa(lp686
V2018-12-14 13:09
p687
aV196.5
p688
aV0.83
p689
aV0.83
p690
aI01
aa(lp691
V2018-12-14 13:09
p692
aV195.5
p693
aV0.83
p694
aV0.83
p695
aI01
aa(lp696
V2018-12-14 13:06
p697
aV193.5
p698
aV0.83
p699
aV0.83
p700
aI01
aa(lp701
V2018-12-14 13:05
p702
aV192.5
p703
aV0.83
p704
aV0.83
p705
aI01
aa(lp706
V2018-12-14 13:05
p707
aV191.5
p708
aV0.70
p709
aV0.96
p710
aI01
aa(lp711
V2018-12-14 13:05
p712
aV191.5
p713
aV0.83
p714
aV0.83
p715
aI01
aa(lp716
V2018-12-14 13:04
p717
aV189.5
p718
aV0.83
p719
aV0.83
p720
aI01
aa(lp721
V2018-12-14 13:04
p722
aV190.5
p723
aV0.83
p724
aV0.83
p725
aI01
aa(lp726
V2018-12-14 13:03
p727
aV191.5
p728
aV0.83
p729
aV0.83
p730
aI01
aa(lp731
V2018-12-14 13:03
p732
aV190.5
p733
aV0.83
p734
aV0.83
p735
aI01
aa(lp736
V2018-12-14 13:03
p737
aV191.5
p738
aV0.83
p739
aV0.83
p740
aI01
aa(lp741
V2018-12-14 13:03
p742
aV190.5
p743
aV0.83
p744
aV0.83
p745
aI01
aa(lp746
V2018-12-14 13:02
p747
aV189.5
p748
aV0.83
p749
aV0.83
p750
aI01
aa(lp751
V2018-12-14 13:02
p752
aV190.5
p753
aV0.83
p754
aV0.83
p755
aI01
aa(lp756
V2018-12-14 13:01
p757
aV191.5
p758
aV0.83
p759
aV0.83
p760
aI01
aa(lp761
V2018-12-14 13:01
p762
aV190.5
p763
aV0.83
p764
aV0.83
p765
aI01
aa(lp766
V2018-12-14 13:01
p767
aV190.5
p768
aV0.66
p769
aV1.00
p770
aI01
aa(lp771
V2018-12-14 13:00
p772
aV189.5
p773
aV0.66
p774
aV1.00
p775
aI01
aa(lp776
V2018-12-14 13:00
p777
aV189.5
p778
aV0.70
p779
aV0.96
p780
aI01
aa(lp781
V2018-12-14 13:00
p782
aV189.5
p783
aV0.83
p784
aV0.83
p785
aI01
aa(lp786
V2018-12-14 13:00
p787
aV189.5
p788
aV0.88
p789
aV0.78
p790
aI01
aa(lp791
V2018-12-14 12:59
p792
aV188.5
p793
aV0.90
p794
aV0.76
p795
aI01
aa(lp796
V2018-12-14 12:59
p797
aV188.5
p798
aV0.83
p799
aV0.83
p800
aI01
aa(lp801
V2018-12-14 12:59
p802
aV189.5
p803
aV0.83
p804
aV0.83
p805
aI01
aa(lp806
V2018-12-14 12:59
p807
aV190.5
p808
aV0.83
p809
aV0.83
p810
aI01
aa(lp811
V2018-12-14 12:58
p812
aV191.5
p813
aV0.83
p814
aV0.83
p815
aI01
aa(lp816
V2018-12-14 12:58
p817
aV191.5
p818
aV1.00
p819
aV0.66
p820
aI01
aa(lp821
V2018-12-14 12:57
p822
aV192.5
p823
aV1.00
p824
aV0.66
p825
aI01
aa(lp826
V2018-12-14 12:55
p827
aV192.5
p828
aV0.92
p829
aV0.74
p830
aI01
aa(lp831
V2018-12-14 12:54
p832
aV192.5
p833
aV0.90
p834
aV0.76
p835
aI01
aa(lp836
V2018-12-14 12:54
p837
aV192.5
p838
aV0.86
p839
aV0.80
p840
aI01
aa(lp841
V2018-12-14 12:52
p842
aV192.5
p843
aV0.90
p844
aV0.76
p845
aI01
aa(lp846
V2018-12-14 12:50
p847
aV192.5
p848
aV0.88
p849
aV0.78
p850
aI01
aa(lp851
V2018-12-14 12:49
p852
aV192.5
p853
aV0.86
p854
aV0.80
p855
aI01
aa(lp856
V2018-12-14 12:43
p857
aV192.5
p858
aV0.83
p859
aV0.83
p860
aI01
aa(lp861
V2018-12-14 12:38
p862
aV191.5
p863
aV0.83
p864
aV0.83
p865
aI01
aa(lp866
V2018-12-14 12:37
p867
aV192.5
p868
aV0.83
p869
aV0.83
p870
aI01
aa(lp871
V2018-12-14 12:36
p872
aV190.5
p873
aV0.83
p874
aV0.83
p875
aI01
aa(lp876
V2018-12-14 12:36
p877
aV191.5
p878
aV0.83
p879
aV0.83
p880
aI01
aa(lp881
V2018-12-14 12:35
p882
aV192.5
p883
aV0.83
p884
aV0.83
p885
aI01
aa(lp886
V2018-12-14 12:35
p887
aV193.5
p888
aV0.83
p889
aV0.83
p890
aI01
aa(lp891
V2018-12-14 12:35
p892
aV190.5
p893
aV0.83
p894
aV0.83
p895
aI01
aa(lp896
V2018-12-14 12:34
p897
aV191.5
p898
aV0.83
p899
aV0.83
p900
aI01
aa(lp901
V2018-12-14 12:34
p902
aV192.5
p903
aV0.83
p904
aV0.83
p905
aI01
aa(lp906
V2018-12-14 12:34
p907
aV194.5
p908
aV0.83
p909
aV0.83
p910
aI01
aa(lp911
V2018-12-14 12:33
p912
aV195.5
p913
aV0.83
p914
aV0.83
p915
aI01
aa(lp916
V2018-12-14 12:32
p917
aV196.5
p918
aV0.83
p919
aV0.83
p920
aI01
aa(lp921
V2018-12-14 12:32
p922
aV197.5
p923
aV0.83
p924
aV0.83
p925
aI01
aa(lp926
V2018-12-14 12:30
p927
aV198.5
p928
aV0.80
p929
aV0.86
p930
aI01
aa(lp931
V2018-12-14 12:28
p932
aV198.5
p933
aV0.83
p934
aV0.83
p935
aI01
aa(lp936
V2018-12-14 12:28
p937
aV199.5
p938
aV0.83
p939
aV0.83
p940
aI01
aa(lp941
V2018-12-14 12:27
p942
aV200.5
p943
aV0.83
p944
aV0.83
p945
aI01
aa(lp946
V2018-12-14 12:27
p947
aV198.5
p948
aV0.83
p949
aV0.83
p950
aI01
aa(lp951
V2018-12-14 12:26
p952
aV197.5
p953
aV0.83
p954
aV0.83
p955
aI01
aa(lp956
V2018-12-14 12:26
p957
aV198.5
p958
aV0.83
p959
aV0.83
p960
aI01
aa(lp961
V2018-12-14 12:25
p962
aV199.5
p963
aV0.83
p964
aV0.83
p965
aI01
aa(lp966
V2018-12-14 12:25
p967
aV198.5
p968
aV0.83
p969
aV0.83
p970
aI01
aa(lp971
V2018-12-14 12:24
p972
aV200.5
p973
aV0.83
p974
aV0.83
p975
aI01
aa(lp976
V2018-12-14 12:24
p977
aV199.5
p978
aV0.90
p979
aV0.76
p980
aI01
aa(lp981
V2018-12-14 12:24
p982
aV198.5
p983
aV0.90
p984
aV0.76
p985
aI01
aa(lp986
V2018-12-14 12:24
p987
aV199.5
p988
aV0.90
p989
aV0.76
p990
aI01
aa(lp991
V2018-12-14 12:24
p992
aV200.5
p993
aV0.90
p994
aV0.76
p995
aI01
aa(lp996
V2018-12-14 12:24
p997
aV199.5
p998
aV0.90
p999
aV0.76
p1000
aI01
aa(lp1001
V2018-12-14 12:21
p1002
aV200.5
p1003
aV0.90
p1004
aV0.76
p1005
aI01
aa(lp1006
V2018-12-14 12:21
p1007
aV200.5
p1008
aV0.83
p1009
aV0.83
p1010
aI01
aa(lp1011
V2018-12-14 12:20
p1012
aV199.5
p1013
aV0.83
p1014
aV0.83
p1015
aI01
aa(lp1016
V2018-12-14 12:20
p1017
aV200.5
p1018
aV0.83
p1019
aV0.83
p1020
aI01
aa(lp1021
V2018-12-14 12:20
p1022
aV199.5
p1023
aV0.83
p1024
aV0.83
p1025
aI01
aa(lp1026
V2018-12-14 12:20
p1027
aV200.5
p1028
aV0.83
p1029
aV0.83
p1030
aI01
aa(lp1031
V2018-12-14 12:19
p1032
aV201.5
p1033
aV0.86
p1034
aV0.80
p1035
aI01
aa(lp1036
V2018-12-14 12:19
p1037
aV200.5
p1038
aV0.86
p1039
aV0.80
p1040
aI01
aa(lp1041
V2018-12-14 12:19
p1042
aV199.5
p1043
aV0.86
p1044
aV0.80
p1045
aI01
aa(lp1046
V2018-12-14 12:19
p1047
aV200.5
p1048
aV0.86
p1049
aV0.80
p1050
aI01
aa(lp1051
V2018-12-14 12:18
p1052
aV200.5
p1053
aV0.96
p1054
aV0.70
p1055
aI01
aa(lp1056
V2018-12-14 12:18
p1057
aV200.5
p1058
aV0.90
p1059
aV0.76
p1060
aI01
aa(lp1061
V2018-12-14 12:18
p1062
aV200.5
p1063
aV0.83
p1064
aV0.83
p1065
aI01
aa(lp1066
V2018-12-14 12:17
p1067
aV199.5
p1068
aV0.83
p1069
aV0.83
p1070
aI01
aa(lp1071
V2018-12-14 12:17
p1072
aV198.5
p1073
aV0.83
p1074
aV0.83
p1075
aI01
aa(lp1076
V2018-12-14 12:17
p1077
aV197.5
p1078
aV0.83
p1079
aV0.83
p1080
aI01
aa(lp1081
V2018-12-14 12:17
p1082
aV198.5
p1083
aV0.83
p1084
aV0.83
p1085
aI01
aa(lp1086
V2018-12-14 12:16
p1087
aV197.5
p1088
aV0.83
p1089
aV0.83
p1090
aI01
aa(lp1091
V2018-12-14 12:16
p1092
aV196.5
p1093
aV0.83
p1094
aV0.83
p1095
aI01
aa(lp1096
V2018-12-14 12:15
p1097
aV197.5
p1098
aV0.83
p1099
aV0.83
p1100
aI01
aa(lp1101
V2018-12-14 12:15
p1102
aV196.5
p1103
aV0.83
p1104
aV0.83
p1105
aI01
aa(lp1106
V2018-12-14 12:15
p1107
aV197.5
p1108
aV0.83
p1109
aV0.83
p1110
aI01
aa(lp1111
V2018-12-14 12:14
p1112
aV198.5
p1113
aV0.83
p1114
aV0.83
p1115
aI01
aa(lp1116
V2018-12-14 12:14
p1117
aV197.5
p1118
aV0.83
p1119
aV0.83
p1120
aI01
aa(lp1121
V2018-12-14 12:14
p1122
aV199.5
p1123
aV0.83
p1124
aV0.83
p1125
aI01
aa(lp1126
V2018-12-14 12:13
p1127
aV200.5
p1128
aV0.83
p1129
aV0.83
p1130
aI01
aa(lp1131
V2018-12-14 12:13
p1132
aV201.5
p1133
aV0.83
p1134
aV0.83
p1135
aI01
aa(lp1136
V2018-12-14 12:10
p1137
aV202.5
p1138
aV0.83
p1139
aV0.83
p1140
aI01
aa(lp1141
V2018-12-14 12:09
p1142
aV203.5
p1143
aV0.83
p1144
aV0.83
p1145
aI01
aa(lp1146
V2018-12-14 12:08
p1147
aV202.5
p1148
aV0.83
p1149
aV0.83
p1150
aI01
aa(lp1151
V2018-12-14 12:08
p1152
aV201.5
p1153
aV0.83
p1154
aV0.83
p1155
aI01
aa(lp1156
V2018-12-14 12:08
p1157
aV202.5
p1158
aV0.83
p1159
aV0.83
p1160
aI01
aa(lp1161
V2018-12-14 12:07
p1162
aV203.5
p1163
aV0.83
p1164
aV0.83
p1165
aI01
aa(lp1166
V2018-12-14 12:07
p1167
aV202.5
p1168
aV0.83
p1169
aV0.83
p1170
aI01
aa(lp1171
V2018-12-14 12:07
p1172
aV203.5
p1173
aV0.83
p1174
aV0.83
p1175
aI01
aa(lp1176
V2018-12-14 12:06
p1177
aV204.5
p1178
aV0.83
p1179
aV0.83
p1180
aI01
aa(lp1181
V2018-12-14 12:06
p1182
aV205.5
p1183
aV0.83
p1184
aV0.83
p1185
aI01
aa(lp1186
V2018-12-14 12:05
p1187
aV207.5
p1188
aV0.83
p1189
aV0.83
p1190
aI01
aa(lp1191
V2018-12-14 12:05
p1192
aV209.5
p1193
aV0.83
p1194
aV0.83
p1195
aI01
aa(lp1196
V2018-12-14 12:01
p1197
aV208.5
p1198
aV0.83
p1199
aV0.83
p1200
aI01
aa(lp1201
V2018-12-14 12:01
p1202
aV209.5
p1203
aV0.83
p1204
aV0.83
p1205
aI01
aa(lp1206
V2018-12-14 12:01
p1207
aV208.5
p1208
aV0.83
p1209
aV0.83
p1210
aI01
aa(lp1211
V2018-12-14 12:00
p1212
aV206.5
p1213
aV0.83
p1214
aV0.83
p1215
aI01
aa(lp1216
V2018-12-14 12:00
p1217
aV205.5
p1218
aV0.83
p1219
aV0.83
p1220
aI01
aa(lp1221
V2018-12-14 12:00
p1222
aV204.5
p1223
aV0.83
p1224
aV0.83
p1225
aI01
aa(lp1226
V2018-12-14 11:59
p1227
aV205.5
p1228
aV0.83
p1229
aV0.83
p1230
aI01
aa(lp1231
V2018-12-14 11:59
p1232
aV204.5
p1233
aV0.83
p1234
aV0.83
p1235
aI01
aa(lp1236
V2018-12-14 11:59
p1237
aV205.5
p1238
aV0.83
p1239
aV0.83
p1240
aI01
aa(lp1241
V2018-12-14 11:59
p1242
aV206.5
p1243
aV0.90
p1244
aV0.76
p1245
aI01
aa(lp1246
V2018-12-14 11:59
p1247
aV204.5
p1248
aV0.90
p1249
aV0.76
p1250
aI01
aa(lp1251
V2018-12-14 11:58
p1252
aV205.5
p1253
aV0.90
p1254
aV0.76
p1255
aI01
aa(lp1256
V2018-12-14 11:58
p1257
aV203.5
p1258
aV0.90
p1259
aV0.76
p1260
aI01
aa(lp1261
V2018-12-14 11:58
p1262
aV204.5
p1263
aV0.90
p1264
aV0.76
p1265
aI01
aa(lp1266
V2018-12-14 11:57
p1267
aV205.5
p1268
aV0.90
p1269
aV0.76
p1270
aI01
aa(lp1271
V2018-12-14 11:57
p1272
aV206.5
p1273
aV0.88
p1274
aV0.78
p1275
aI01
aa(lp1276
V2018-12-14 11:56
p1277
aV206.5
p1278
aV0.96
p1279
aV0.70
p1280
aI01
aa(lp1281
V2018-12-14 11:56
p1282
aV206.5
p1283
aV0.93
p1284
aV0.73
p1285
aI01
aa(lp1286
V2018-12-14 11:55
p1287
aV207.5
p1288
aV0.96
p1289
aV0.70
p1290
aI01
aa(lp1291
V2018-12-14 11:52
p1292
aV206.5
p1293
aV0.86
p1294
aV0.80
p1295
aI01
aa(lp1296
V2018-12-14 11:51
p1297
aV204.5
p1298
aV0.90
p1299
aV0.76
p1300
aI01
aa(lp1301
V2018-12-14 11:51
p1302
aV205.5
p1303
aV0.90
p1304
aV0.76
p1305
aI01
aa(lp1306
V2018-12-14 11:50
p1307
aV204.5
p1308
aV0.90
p1309
aV0.76
p1310
aI01
aa(lp1311
V2018-12-14 11:49
p1312
aV203.5
p1313
aV0.90
p1314
aV0.76
p1315
aI01
aa(lp1316
V2018-12-14 11:49
p1317
aV204.5
p1318
aV0.90
p1319
aV0.76
p1320
aI01
aa(lp1321
V2018-12-14 11:49
p1322
aV203.5
p1323
aV0.90
p1324
aV0.76
p1325
aI01
aa(lp1326
V2018-12-14 11:49
p1327
aV204.5
p1328
aV0.90
p1329
aV0.76
p1330
aI01
aa(lp1331
V2018-12-14 11:48
p1332
aV205.5
p1333
aV0.90
p1334
aV0.76
p1335
aI01
aa(lp1336
V2018-12-14 11:48
p1337
aV204.5
p1338
aV0.90
p1339
aV0.76
p1340
aI01
aa(lp1341
V2018-12-14 11:48
p1342
aV205.5
p1343
aV0.90
p1344
aV0.76
p1345
aI01
aa(lp1346
V2018-12-14 11:48
p1347
aV206.5
p1348
aV0.90
p1349
aV0.76
p1350
aI01
aa(lp1351
V2018-12-14 11:47
p1352
aV207.5
p1353
aV0.90
p1354
aV0.76
p1355
aI01
aa(lp1356
V2018-12-14 11:47
p1357
aV208.5
p1358
aV0.88
p1359
aV0.78
p1360
aI01
aa(lp1361
V2018-12-14 11:44
p1362
aV209.5
p1363
aV0.86
p1364
aV0.80
p1365
aI00
aa(lp1366
V2018-12-14 11:43
p1367
aV209.5
p1368
aV0.83
p1369
aV0.83
p1370
aI00
aa(lp1371
V2018-12-14 11:38
p1372
aV210.5
p1373
aV1.00
p1374
aV0.66
p1375
aI00
aa(lp1376
V2018-12-14 11:38
p1377
aV211.5
p1378
aV1.09
p1379
aV0.57
p1380
aI00
aa(lp1381
V2018-12-14 11:38
p1382
aV210.5
p1383
aV1.00
p1384
aV0.66
p1385
aI00
aa(lp1386
V2018-12-14 11:31
p1387
aV210.5
p1388
aV0.98
p1389
aV0.68
p1390
aI00
aa(lp1391
V2018-12-14 11:31
p1392
aV210.5
p1393
aV0.93
p1394
aV0.73
p1395
aI00
aa(lp1396
V2018-12-14 11:24
p1397
aV209.5
p1398
aV0.96
p1399
aV0.90
p1400
aI00
aa(lp1401
V2018-12-14 11:23
p1402
aV209.5
p1403
aV0.94
p1404
aV0.92
p1405
aI00
aa(lp1406
V2018-12-14 11:18
p1407
aV209.5
p1408
aV0.96
p1409
aV0.90
p1410
aI00
aa(lp1411
V2018-12-14 11:18
p1412
aV209.5
p1413
aV0.95
p1414
aV0.91
p1415
aI00
aa(lp1416
V2018-12-14 11:08
p1417
aV209.5
p1418
aV0.94
p1419
aV0.92
p1420
aI00
aa(lp1421
V2018-12-14 10:25
p1422
aV209.5
p1423
aV0.93
p1424
aV0.93
p1425
aI00
aa(lp1426
V2018-12-14 10:19
p1427
aV209.5
p1428
aV0.92
p1429
aV0.94
p1430
aI00
aa(lp1431
V2018-12-14 10:16
p1432
aV209.5
p1433
aV0.96
p1434
aV0.90
p1435
aI00
aa(lp1436
V2018-12-14 10:12
p1437
aV209.5
p1438
aV0.98
p1439
aV0.88
p1440
aI00
aa(lp1441
V2018-12-14 09:05
p1442
aV208.5
p1443
aV0.94
p1444
aV0.92
p1445
aI00
aa(lp1446
V2018-12-14 08:51
p1447
aV208.5
p1448
aV0.93
p1449
aV0.93
p1450
aI00
aa(lp1451
V2018-12-14 08:51
p1452
aV208.5
p1453
aV0.89
p1454
aV0.97
p1455
aI00
aa(lp1456
V2018-12-14 08:25
p1457
aV208.5
p1458
aV0.88
p1459
aV0.98
p1460
aI00
aa(lp1461
V2018-12-14 08:24
p1462
aV208.5
p1463
aV0.90
p1464
aV0.96
p1465
aI00
aa(lp1466
V2018-12-14 08:23
p1467
aV208.5
p1468
aV0.89
p1469
aV0.97
p1470
aI00
aa(lp1471
V2018-12-14 08:10
p1472
aV208.5
p1473
aV0.88
p1474
aV0.98
p1475
aI00
aa(lp1476
V2018-12-14 08:00
p1477
aV208.5
p1478
aV0.93
p1479
aV0.93
p1480
aI00
aa(lp1481
V2018-12-14 07:59
p1482
aV207.5
p1483
aV0.83
p1484
aV1.03
p1485
aI00
aa(lp1486
V2018-12-14 07:19
p1487
aV208.5
p1488
aV0.93
p1489
aV0.93
p1490
aI00
aa(lp1491
V2018-12-14 07:14
p1492
aV208.5
p1493
aV0.92
p1494
aV0.94
p1495
aI00
aa(lp1496
V2018-12-14 06:27
p1497
aV208.5
p1498
aV0.90
p1499
aV0.96
p1500
aI00
aa(lp1501
V2018-12-14 05:30
p1502
aV208.5
p1503
aV0.93
p1504
aV0.93
p1505
aI00
aa(lp1506
V2018-12-14 05:26
p1507
aV208.5
p1508
aV0.92
p1509
aV0.94
p1510
aI00
aa(lp1511
V2018-12-14 05:16
p1512
aV208.5
p1513
aV0.90
p1514
aV0.96
p1515
aI00
aa(lp1516
V2018-12-14 05:03
p1517
aV208.5
p1518
aV0.88
p1519
aV0.98
p1520
aI00
aa(lp1521
V2018-12-14 05:03
p1522
aV207.5
p1523
aV0.78
p1524
aV1.08
p1525
aI00
aa(lp1526
V2018-12-14 04:56
p1527
aV208.5
p1528
aV0.88
p1529
aV0.98
p1530
aI00
aa(lp1531
V2018-12-14 04:04
p1532
aV208.5
p1533
aV0.90
p1534
aV0.96
p1535
aI00
aa(lp1536
V2018-12-14 04:04
p1537
aV208.5
p1538
aV0.93
p1539
aV0.93
p1540
aI00
aa(lp1541
V2018-12-14 04:01
p1542
aV209.5
p1543
aV1.00
p1544
aV0.86
p1545
aI00
aa(lp1546
V2018-12-14 01:54
p1547
aV209.5
p1548
aV1.00
p1549
aV0.84
p1550
aI00
aa(lp1551
V2018-12-14 01:46
p1552
aV209.5
p1553
aV0.98
p1554
aV0.86
p1555
aI00
aa(lp1556
V2018-12-14 01:43
p1557
aV209.5
p1558
aV1.00
p1559
aV0.84
p1560
aI00
aa(lp1561
V2018-12-14 01:38
p1562
aV209.5
p1563
aV0.98
p1564
aV0.86
p1565
aI00
aa(lp1566
V2018-12-14 01:38
p1567
aV208.5
p1568
aV0.88
p1569
aV0.96
p1570
aI00
aa(lp1571
V2018-12-14 01:34
p1572
aV209.5
p1573
aV0.98
p1574
aV0.86
p1575
aI00
aa(lp1576
V2018-12-14 01:31
p1577
aV211.5
p1578
aV1.18
p1579
aV0.66
p1580
aI00
aa(lp1581
V2018-12-14 01:30
p1582
aV209.5
p1583
aV0.98
p1584
aV0.86
p1585
aI00
aa(lp1586
V2018-12-14 01:28
p1587
aV211.5
p1588
aV1.18
p1589
aV0.66
p1590
aI00
aa(lp1591
V2018-12-14 01:26
p1592
aV209.5
p1593
aV0.98
p1594
aV0.86
p1595
aI00
aa(lp1596
V2018-12-14 01:26
p1597
aV211.5
p1598
aV1.18
p1599
aV0.66
p1600
aI00
aa(lp1601
V2018-12-14 01:25
p1602
aV211.5
p1603
aV1.14
p1604
aV0.70
p1605
aI00
aa(lp1606
V2018-12-14 01:25
p1607
aV211.5
p1608
aV1.12
p1609
aV0.72
p1610
aI00
aa(lp1611
V2018-12-14 01:24
p1612
aV211.5
p1613
aV0.97
p1614
aV0.87
p1615
aI00
aa(lp1616
V2018-12-13 22:10
p1617
aV211.5
p1618
aV0.92
p1619
aV0.92
p1620
aI00
aa(lp1621
V2018-12-13 21:22
p1622
aV211.5
p1623
aV0.96
p1624
aV0.88
p1625
aI00
aasS'sbo'
p1626
(lp1627
(lp1628
V2018-12-14 13:50
p1629
aV196.5
p1630
aV1.00
p1631
aV0.70
p1632
aI01
aa(lp1633
V2018-12-14 13:50
p1634
aV198.5
p1635
aV1.00
p1636
aV0.70
p1637
aI01
aa(lp1638
V2018-12-14 13:49
p1639
aV194.5
p1640
aV0.85
p1641
aV0.85
p1642
aI01
aa(lp1643
V2018-12-14 13:49
p1644
aV194.5
p1645
aV0.95
p1646
aV0.75
p1647
aI01
aa(lp1648
V2018-12-14 13:48
p1649
aV194.5
p1650
aV1.00
p1651
aV0.70
p1652
aI01
aa(lp1653
V2018-12-14 13:48
p1654
aV192.5
p1655
aV0.85
p1656
aV0.85
p1657
aI01
aa(lp1658
V2018-12-14 13:48
p1659
aV192.5
p1660
aV0.90
p1661
aV0.80
p1662
aI01
aa(lp1663
V2018-12-14 13:48
p1664
aV192.5
p1665
aV1.00
p1666
aV0.70
p1667
aI01
aa(lp1668
V2018-12-14 13:47
p1669
aV192.5
p1670
aV0.95
p1671
aV0.75
p1672
aI01
aa(lp1673
V2018-12-14 13:46
p1674
aV191.5
p1675
aV0.80
p1676
aV0.90
p1677
aI01
aa(lp1678
V2018-12-14 13:45
p1679
aV191.5
p1680
aV0.70
p1681
aV1.00
p1682
aI01
aa(lp1683
V2018-12-14 13:44
p1684
aV193.5
p1685
aV1.05
p1686
aV0.65
p1687
aI01
aa(lp1688
V2018-12-14 13:44
p1689
aV193.5
p1690
aV0.95
p1691
aV0.75
p1692
aI01
aa(lp1693
V2018-12-14 13:44
p1694
aV194.5
p1695
aV1.11
p1696
aV0.60
p1697
aI01
aa(lp1698
V2018-12-14 13:43
p1699
aV192.5
p1700
aV1.00
p1701
aV0.70
p1702
aI01
aa(lp1703
V2018-12-14 13:43
p1704
aV194.5
p1705
aV1.11
p1706
aV0.60
p1707
aI01
aa(lp1708
V2018-12-14 13:43
p1709
aV194.5
p1710
aV1.00
p1711
aV0.70
p1712
aI01
aa(lp1713
V2018-12-14 13:43
p1714
aV196.5
p1715
aV1.25
p1716
aV0.50
p1717
aI01
aa(lp1718
V2018-12-14 13:43
p1719
aV196.5
p1720
aV1.00
p1721
aV0.70
p1722
aI01
aa(lp1723
V2018-12-14 13:42
p1724
aV194.5
p1725
aV1.11
p1726
aV0.60
p1727
aI01
aa(lp1728
V2018-12-14 13:42
p1729
aV198.5
p1730
aV1.11
p1731
aV0.60
p1732
aI01
aa(lp1733
V2018-12-14 13:41
p1734
aV196.5
p1735
aV0.85
p1736
aV0.85
p1737
aI01
aa(lp1738
V2018-12-14 13:41
p1739
aV196.5
p1740
aV0.80
p1741
aV0.90
p1742
aI01
aa(lp1743
V2018-12-14 13:39
p1744
aV196.5
p1745
aV1.00
p1746
aV0.70
p1747
aI01
aa(lp1748
V2018-12-14 13:39
p1749
aV196.5
p1750
aV0.85
p1751
aV0.85
p1752
aI01
aa(lp1753
V2018-12-14 13:38
p1754
aV196.5
p1755
aV0.95
p1756
aV0.75
p1757
aI01
aa(lp1758
V2018-12-14 13:38
p1759
aV196.5
p1760
aV0.90
p1761
aV0.80
p1762
aI01
aa(lp1763
V2018-12-14 13:38
p1764
aV196.5
p1765
aV1.11
p1766
aV0.60
p1767
aI01
aa(lp1768
V2018-12-14 13:37
p1769
aV196.5
p1770
aV1.00
p1771
aV0.70
p1772
aI01
aa(lp1773
V2018-12-14 13:37
p1774
aV196.5
p1775
aV1.11
p1776
aV0.60
p1777
aI01
aa(lp1778
V2018-12-14 13:37
p1779
aV194.5
p1780
aV0.85
p1781
aV0.85
p1782
aI01
aa(lp1783
V2018-12-14 13:36
p1784
aV194.5
p1785
aV0.95
p1786
aV0.75
p1787
aI01
aa(lp1788
V2018-12-14 13:36
p1789
aV194.5
p1790
aV1.05
p1791
aV0.65
p1792
aI01
aa(lp1793
V2018-12-14 13:35
p1794
aV194.5
p1795
aV0.95
p1796
aV0.75
p1797
aI01
aa(lp1798
V2018-12-14 13:35
p1799
aV196.5
p1800
aV1.11
p1801
aV0.60
p1802
aI01
aa(lp1803
V2018-12-14 13:35
p1804
aV196.5
p1805
aV1.05
p1806
aV0.65
p1807
aI01
aa(lp1808
V2018-12-14 13:34
p1809
aV196.5
p1810
aV0.85
p1811
aV0.85
p1812
aI01
aa(lp1813
V2018-12-14 13:34
p1814
aV198.5
p1815
aV1.11
p1816
aV0.60
p1817
aI01
aa(lp1818
V2018-12-14 13:33
p1819
aV198.5
p1820
aV1.00
p1821
aV0.70
p1822
aI01
aa(lp1823
V2018-12-14 13:33
p1824
aV197.5
p1825
aV0.85
p1826
aV0.85
p1827
aI01
aa(lp1828
V2018-12-14 13:33
p1829
aV197.5
p1830
aV0.75
p1831
aV0.95
p1832
aI01
aa(lp1833
V2018-12-14 13:31
p1834
aV197.5
p1835
aV0.85
p1836
aV0.85
p1837
aI01
aa(lp1838
V2018-12-14 13:31
p1839
aV197.5
p1840
aV0.75
p1841
aV0.95
p1842
aI01
aa(lp1843
V2018-12-14 13:30
p1844
aV197.5
p1845
aV0.85
p1846
aV0.85
p1847
aI01
aa(lp1848
V2018-12-14 13:26
p1849
aV196.5
p1850
aV1.00
p1851
aV0.70
p1852
aI01
aa(lp1853
V2018-12-14 13:26
p1854
aV196.5
p1855
aV0.85
p1856
aV0.85
p1857
aI01
aa(lp1858
V2018-12-14 13:26
p1859
aV198.5
p1860
aV1.11
p1861
aV0.60
p1862
aI01
aa(lp1863
V2018-12-14 13:25
p1864
aV198.5
p1865
aV0.95
p1866
aV0.75
p1867
aI01
aa(lp1868
V2018-12-14 13:24
p1869
aV198.5
p1870
aV1.00
p1871
aV0.70
p1872
aI01
aa(lp1873
V2018-12-14 13:24
p1874
aV196.5
p1875
aV0.85
p1876
aV0.85
p1877
aI01
aa(lp1878
V2018-12-14 13:24
p1879
aV196.5
p1880
aV1.11
p1881
aV0.60
p1882
aI01
aa(lp1883
V2018-12-14 13:24
p1884
aV194.5
p1885
aV0.85
p1886
aV0.85
p1887
aI01
aa(lp1888
V2018-12-14 13:23
p1889
aV196.5
p1890
aV1.11
p1891
aV0.60
p1892
aI01
aa(lp1893
V2018-12-14 13:23
p1894
aV196.5
p1895
aV1.00
p1896
aV0.70
p1897
aI01
aa(lp1898
V2018-12-14 13:22
p1899
aV196.5
p1900
aV1.11
p1901
aV0.60
p1902
aI01
aa(lp1903
V2018-12-14 13:22
p1904
aV196.5
p1905
aV1.00
p1906
aV0.70
p1907
aI01
aa(lp1908
V2018-12-14 13:21
p1909
aV196.5
p1910
aV1.05
p1911
aV0.65
p1912
aI01
aa(lp1913
V2018-12-14 13:21
p1914
aV196.5
p1915
aV0.95
p1916
aV0.75
p1917
aI01
aa(lp1918
V2018-12-14 13:21
p1919
aV194.5
p1920
aV0.85
p1921
aV0.85
p1922
aI01
aa(lp1923
V2018-12-14 13:20
p1924
aV192.5
p1925
aV0.70
p1926
aV1.00
p1927
aI01
aa(lp1928
V2018-12-14 13:19
p1929
aV192.5
p1930
aV0.80
p1931
aV0.90
p1932
aI01
aa(lp1933
V2018-12-14 13:18
p1934
aV194.5
p1935
aV0.95
p1936
aV0.75
p1937
aI01
aa(lp1938
V2018-12-14 13:18
p1939
aV196.5
p1940
aV1.00
p1941
aV0.70
p1942
aI01
aa(lp1943
V2018-12-14 13:18
p1944
aV195.5
p1945
aV0.90
p1946
aV0.80
p1947
aI01
aa(lp1948
V2018-12-14 13:17
p1949
aV196.5
p1950
aV0.95
p1951
aV0.75
p1952
aI01
aa(lp1953
V2018-12-14 13:17
p1954
aV196.5
p1955
aV0.85
p1956
aV0.85
p1957
aI01
aa(lp1958
V2018-12-14 13:17
p1959
aV196.5
p1960
aV0.95
p1961
aV0.75
p1962
aI01
aa(lp1963
V2018-12-14 13:15
p1964
aV196.5
p1965
aV1.00
p1966
aV0.70
p1967
aI01
aa(lp1968
V2018-12-14 13:14
p1969
aV196.5
p1970
aV0.95
p1971
aV0.75
p1972
aI01
aa(lp1973
V2018-12-14 13:13
p1974
aV194.5
p1975
aV0.85
p1976
aV0.85
p1977
aI01
aa(lp1978
V2018-12-14 13:13
p1979
aV194.5
p1980
aV0.80
p1981
aV0.90
p1982
aI01
aa(lp1983
V2018-12-14 13:13
p1984
aV194.5
p1985
aV0.70
p1986
aV1.00
p1987
aI01
aa(lp1988
V2018-12-14 13:13
p1989
aV194.5
p1990
aV0.75
p1991
aV0.95
p1992
aI01
aa(lp1993
V2018-12-14 13:13
p1994
aV194.5
p1995
aV0.90
p1996
aV0.80
p1997
aI01
aa(lp1998
V2018-12-14 13:13
p1999
aV194.5
p2000
aV1.00
p2001
aV0.70
p2002
aI01
aa(lp2003
V2018-12-14 13:13
p2004
aV194.5
p2005
aV0.85
p2006
aV0.85
p2007
aI01
aa(lp2008
V2018-12-14 13:12
p2009
aV196.5
p2010
aV1.05
p2011
aV0.65
p2012
aI01
aa(lp2013
V2018-12-14 13:12
p2014
aV196.5
p2015
aV0.95
p2016
aV0.75
p2017
aI01
aa(lp2018
V2018-12-14 13:12
p2019
aV196.5
p2020
aV0.85
p2021
aV0.85
p2022
aI01
aa(lp2023
V2018-12-14 13:12
p2024
aV194.5
p2025
aV0.75
p2026
aV0.95
p2027
aI01
aa(lp2028
V2018-12-14 13:11
p2029
aV194.5
p2030
aV0.85
p2031
aV0.85
p2032
aI01
aa(lp2033
V2018-12-14 13:11
p2034
aV194.5
p2035
aV1.00
p2036
aV0.70
p2037
aI01
aa(lp2038
V2018-12-14 13:11
p2039
aV194.5
p2040
aV0.95
p2041
aV0.75
p2042
aI01
aa(lp2043
V2018-12-14 13:10
p2044
aV192.5
p2045
aV0.85
p2046
aV0.85
p2047
aI01
aa(lp2048
V2018-12-14 13:10
p2049
aV192.5
p2050
aV0.80
p2051
aV0.90
p2052
aI01
aa(lp2053
V2018-12-14 13:10
p2054
aV192.5
p2055
aV0.70
p2056
aV1.00
p2057
aI01
aa(lp2058
V2018-12-14 13:10
p2059
aV196.5
p2060
aV1.11
p2061
aV0.60
p2062
aI01
aa(lp2063
V2018-12-14 13:09
p2064
aV196.5
p2065
aV1.00
p2066
aV0.70
p2067
aI01
aa(lp2068
V2018-12-14 13:08
p2069
aV192.5
p2070
aV0.70
p2071
aV1.00
p2072
aI01
aa(lp2073
V2018-12-14 13:06
p2074
aV192.5
p2075
aV0.80
p2076
aV0.90
p2077
aI01
aa(lp2078
V2018-12-14 13:05
p2079
aV192.5
p2080
aV0.85
p2081
aV0.85
p2082
aI01
aa(lp2083
V2018-12-14 13:05
p2084
aV192.5
p2085
aV0.95
p2086
aV0.75
p2087
aI01
aa(lp2088
V2018-12-14 13:05
p2089
aV192.5
p2090
aV1.00
p2091
aV0.70
p2092
aI01
aa(lp2093
V2018-12-14 13:05
p2094
aV190.5
p2095
aV0.60
p2096
aV1.11
p2097
aI01
aa(lp2098
V2018-12-14 13:04
p2099
aV190.5
p2100
aV0.70
p2101
aV1.00
p2102
aI01
aa(lp2103
V2018-12-14 13:04
p2104
aV190.5
p2105
aV0.80
p2106
aV0.90
p2107
aI01
aa(lp2108
V2018-12-14 13:03
p2109
aV190.5
p2110
aV0.70
p2111
aV1.00
p2112
aI01
aa(lp2113
V2018-12-14 13:03
p2114
aV190.5
p2115
aV0.80
p2116
aV0.90
p2117
aI01
aa(lp2118
V2018-12-14 13:02
p2119
aV190.5
p2120
aV0.70
p2121
aV1.00
p2122
aI01
aa(lp2123
V2018-12-14 13:02
p2124
aV192.5
p2125
aV1.00
p2126
aV0.70
p2127
aI01
aa(lp2128
V2018-12-14 13:01
p2129
aV192.5
p2130
aV0.95
p2131
aV0.75
p2132
aI01
aa(lp2133
V2018-12-14 13:01
p2134
aV190.5
p2135
aV0.70
p2136
aV1.00
p2137
aI01
aa(lp2138
V2018-12-14 13:01
p2139
aV190.5
p2140
aV0.60
p2141
aV1.11
p2142
aI01
aa(lp2143
V2018-12-14 13:01
p2144
aV192.5
p2145
aV0.95
p2146
aV0.75
p2147
aI01
aa(lp2148
V2018-12-14 13:00
p2149
aV190.5
p2150
aV0.60
p2151
aV1.11
p2152
aI01
aa(lp2153
V2018-12-14 13:00
p2154
aV190.5
p2155
aV0.70
p2156
aV1.00
p2157
aI01
aa(lp2158
V2018-12-14 13:00
p2159
aV188.5
p2160
aV0.95
p2161
aV0.75
p2162
aI01
aa(lp2163
V2018-12-14 13:00
p2164
aV190.5
p2165
aV1.11
p2166
aV0.60
p2167
aI01
aa(lp2168
V2018-12-14 12:59
p2169
aV190.5
p2170
aV0.85
p2171
aV0.85
p2172
aI01
aa(lp2173
V2018-12-14 12:56
p2174
aV192.5
p2175
aV0.85
p2176
aV0.85
p2177
aI01
aa(lp2178
V2018-12-14 12:55
p2179
aV192.5
p2180
aV0.80
p2181
aV0.90
p2182
aI01
aa(lp2183
V2018-12-14 12:54
p2184
aV192.5
p2185
aV0.96
p2186
aV0.90
p2187
aI01
aa(lp2188
V2018-12-14 12:51
p2189
aV192.5
p2190
aV0.91
p2191
aV0.95
p2192
aI01
aa(lp2193
V2018-12-14 12:51
p2194
aV192.5
p2195
aV0.96
p2196
aV0.90
p2197
aI01
aa(lp2198
V2018-12-14 12:49
p2199
aV192.5
p2200
aV0.91
p2201
aV0.95
p2202
aI01
aa(lp2203
V2018-12-14 12:49
p2204
aV192.5
p2205
aV0.86
p2206
aV1.00
p2207
aI01
aa(lp2208
V2018-12-14 12:48
p2209
aV192.5
p2210
aV0.91
p2211
aV0.95
p2212
aI01
aa(lp2213
V2018-12-14 12:45
p2214
aV192.5
p2215
aV0.86
p2216
aV1.00
p2217
aI01
aa(lp2218
V2018-12-14 12:44
p2219
aV192.5
p2220
aV0.91
p2221
aV0.95
p2222
aI01
aa(lp2223
V2018-12-14 12:44
p2224
aV192.5
p2225
aV0.96
p2226
aV0.90
p2227
aI01
aa(lp2228
V2018-12-14 12:44
p2229
aV192.5
p2230
aV0.91
p2231
aV0.95
p2232
aI01
aa(lp2233
V2018-12-14 12:43
p2234
aV192.5
p2235
aV0.86
p2236
aV1.00
p2237
aI01
aa(lp2238
V2018-12-14 12:35
p2239
aV193.5
p2240
aV0.85
p2241
aV0.85
p2242
aI01
aa(lp2243
V2018-12-14 12:35
p2244
aV193.5
p2245
aV0.70
p2246
aV1.00
p2247
aI01
aa(lp2248
V2018-12-14 12:35
p2249
aV191.5
p2250
aV0.85
p2251
aV0.85
p2252
aI01
aa(lp2253
V2018-12-14 12:34
p2254
aV193.5
p2255
aV0.95
p2256
aV0.75
p2257
aI01
aa(lp2258
V2018-12-14 12:34
p2259
aV193.5
p2260
aV0.70
p2261
aV1.00
p2262
aI01
aa(lp2263
V2018-12-14 12:34
p2264
aV195.5
p2265
aV0.95
p2266
aV0.75
p2267
aI01
aa(lp2268
V2018-12-14 12:33
p2269
aV197.5
p2270
aV1.00
p2271
aV0.70
p2272
aI01
aa(lp2273
V2018-12-14 12:32
p2274
aV197.5
p2275
aV0.95
p2276
aV0.75
p2277
aI01
aa(lp2278
V2018-12-14 12:31
p2279
aV199.5
p2280
aV0.95
p2281
aV0.75
p2282
aI01
aa(lp2283
V2018-12-14 12:28
p2284
aV198.5
p2285
aV0.80
p2286
aV0.90
p2287
aI01
aa(lp2288
V2018-12-14 12:28
p2289
aV199.5
p2290
aV0.95
p2291
aV0.75
p2292
aI01
aa(lp2293
V2018-12-14 12:28
p2294
aV199.5
p2295
aV0.70
p2296
aV1.00
p2297
aI01
aa(lp2298
V2018-12-14 12:27
p2299
aV199.5
p2300
aV0.85
p2301
aV0.85
p2302
aI01
aa(lp2303
V2018-12-14 12:26
p2304
aV199.5
p2305
aV0.95
p2306
aV0.75
p2307
aI01
aa(lp2308
V2018-12-14 12:25
p2309
aV199.5
p2310
aV0.85
p2311
aV0.85
p2312
aI01
aa(lp2313
V2018-12-14 12:24
p2314
aV201.5
p2315
aV0.85
p2316
aV0.85
p2317
aI01
aa(lp2318
V2018-12-14 12:21
p2319
aV201.5
p2320
aV0.95
p2321
aV0.75
p2322
aI01
aa(lp2323
V2018-12-14 12:20
p2324
aV201.5
p2325
aV1.00
p2326
aV0.70
p2327
aI01
aa(lp2328
V2018-12-14 12:19
p2329
aV201.5
p2330
aV0.85
p2331
aV0.85
p2332
aI01
aa(lp2333
V2018-12-14 12:18
p2334
aV201.5
p2335
aV1.00
p2336
aV0.70
p2337
aI01
aa(lp2338
V2018-12-14 12:18
p2339
aV201.5
p2340
aV0.95
p2341
aV0.75
p2342
aI01
aa(lp2343
V2018-12-14 12:18
p2344
aV199.5
p2345
aV0.85
p2346
aV0.85
p2347
aI01
aa(lp2348
V2018-12-14 12:17
p2349
aV199.5
p2350
aV0.95
p2351
aV0.75
p2352
aI01
aa(lp2353
V2018-12-14 12:16
p2354
aV199.5
p2355
aV1.00
p2356
aV0.70
p2357
aI01
aa(lp2358
V2018-12-14 12:15
p2359
aV199.5
p2360
aV0.95
p2361
aV0.75
p2362
aI01
aa(lp2363
V2018-12-14 12:15
p2364
aV199.5
p2365
aV0.85
p2366
aV0.85
p2367
aI01
aa(lp2368
V2018-12-14 12:14
p2369
aV199.5
p2370
aV0.95
p2371
aV0.75
p2372
aI01
aa(lp2373
V2018-12-14 12:13
p2374
aV201.5
p2375
aV0.95
p2376
aV0.75
p2377
aI01
aa(lp2378
V2018-12-14 12:13
p2379
aV203.5
p2380
aV0.95
p2381
aV0.75
p2382
aI01
aa(lp2383
V2018-12-14 12:10
p2384
aV202.5
p2385
aV0.80
p2386
aV0.90
p2387
aI01
aa(lp2388
V2018-12-14 12:09
p2389
aV202.5
p2390
aV0.70
p2391
aV1.00
p2392
aI01
aa(lp2393
V2018-12-14 12:09
p2394
aV203.5
p2395
aV0.95
p2396
aV0.75
p2397
aI01
aa(lp2398
V2018-12-14 12:08
p2399
aV203.5
p2400
aV0.85
p2401
aV0.85
p2402
aI01
aa(lp2403
V2018-12-14 12:07
p2404
aV203.5
p2405
aV0.95
p2406
aV0.75
p2407
aI01
aa(lp2408
V2018-12-14 12:07
p2409
aV203.5
p2410
aV0.85
p2411
aV0.85
p2412
aI01
aa(lp2413
V2018-12-14 12:07
p2414
aV205.5
p2415
aV0.95
p2416
aV0.75
p2417
aI01
aa(lp2418
V2018-12-14 12:06
p2419
aV205.5
p2420
aV0.85
p2421
aV0.85
p2422
aI01
aa(lp2423
V2018-12-14 12:06
p2424
aV207.5
p2425
aV1.00
p2426
aV0.70
p2427
aI01
aa(lp2428
V2018-12-14 12:06
p2429
aV209.5
p2430
aV0.95
p2431
aV0.75
p2432
aI01
aa(lp2433
V2018-12-14 12:05
p2434
aV209.5
p2435
aV0.85
p2436
aV0.85
p2437
aI01
aa(lp2438
V2018-12-14 12:01
p2439
aV209.5
p2440
aV1.00
p2441
aV0.70
p2442
aI01
aa(lp2443
V2018-12-14 12:00
p2444
aV207.5
p2445
aV0.85
p2446
aV0.85
p2447
aI01
aa(lp2448
V2018-12-14 12:00
p2449
aV207.5
p2450
aV0.95
p2451
aV0.75
p2452
aI01
aa(lp2453
V2018-12-14 11:59
p2454
aV207.5
p2455
aV1.00
p2456
aV0.70
p2457
aI01
aa(lp2458
V2018-12-14 11:58
p2459
aV205.5
p2460
aV0.85
p2461
aV0.85
p2462
aI01
aa(lp2463
V2018-12-14 11:58
p2464
aV205.5
p2465
aV0.95
p2466
aV0.75
p2467
aI01
aa(lp2468
V2018-12-14 11:58
p2469
aV205.5
p2470
aV0.85
p2471
aV0.85
p2472
aI01
aa(lp2473
V2018-12-14 11:57
p2474
aV205.5
p2475
aV0.70
p2476
aV1.00
p2477
aI01
aa(lp2478
V2018-12-14 11:57
p2479
aV207.5
p2480
aV0.85
p2481
aV0.85
p2482
aI01
aa(lp2483
V2018-12-14 11:54
p2484
aV206.5
p2485
aV0.70
p2486
aV1.00
p2487
aI01
aa(lp2488
V2018-12-14 11:54
p2489
aV207.5
p2490
aV0.85
p2491
aV0.85
p2492
aI01
aa(lp2493
V2018-12-14 11:53
p2494
aV207.5
p2495
aV0.95
p2496
aV0.75
p2497
aI01
aa(lp2498
V2018-12-14 11:53
p2499
aV205.5
p2500
aV0.95
p2501
aV0.75
p2502
aI01
aa(lp2503
V2018-12-14 11:53
p2504
aV205.5
p2505
aV0.85
p2506
aV0.85
p2507
aI01
aa(lp2508
V2018-12-14 11:52
p2509
aV205.5
p2510
aV0.95
p2511
aV0.75
p2512
aI01
aa(lp2513
V2018-12-14 11:52
p2514
aV205.5
p2515
aV0.85
p2516
aV0.85
p2517
aI01
aa(lp2518
V2018-12-14 11:51
p2519
aV205.5
p2520
aV0.95
p2521
aV0.75
p2522
aI01
aa(lp2523
V2018-12-14 11:51
p2524
aV205.5
p2525
aV0.80
p2526
aV0.90
p2527
aI01
aa(lp2528
V2018-12-14 11:51
p2529
aV205.5
p2530
aV0.85
p2531
aV0.85
p2532
aI01
aa(lp2533
V2018-12-14 11:51
p2534
aV205.5
p2535
aV0.80
p2536
aV0.90
p2537
aI01
aa(lp2538
V2018-12-14 11:51
p2539
aV205.5
p2540
aV0.85
p2541
aV0.85
p2542
aI01
aa(lp2543
V2018-12-14 11:50
p2544
aV205.5
p2545
aV0.95
p2546
aV0.75
p2547
aI01
aa(lp2548
V2018-12-14 11:50
p2549
aV205.5
p2550
aV0.85
p2551
aV0.85
p2552
aI01
aa(lp2553
V2018-12-14 11:49
p2554
aV205.5
p2555
aV0.95
p2556
aV0.75
p2557
aI01
aa(lp2558
V2018-12-14 11:49
p2559
aV205.5
p2560
aV0.85
p2561
aV0.85
p2562
aI01
aa(lp2563
V2018-12-14 11:49
p2564
aV207.5
p2565
aV0.95
p2566
aV0.75
p2567
aI01
aa(lp2568
V2018-12-14 11:48
p2569
aV207.5
p2570
aV0.85
p2571
aV0.85
p2572
aI01
aa(lp2573
V2018-12-14 11:48
p2574
aV209.5
p2575
aV0.95
p2576
aV0.75
p2577
aI01
aa(lp2578
V2018-12-14 11:47
p2579
aV209.5
p2580
aV0.85
p2581
aV0.85
p2582
aI01
aa(lp2583
V2018-12-14 11:47
p2584
aV210.5
p2585
aV0.95
p2586
aV0.75
p2587
aI01
aa(lp2588
V2018-12-14 11:46
p2589
aV209.5
p2590
aV0.80
p2591
aV0.90
p2592
aI00
aa(lp2593
V2018-12-14 11:44
p2594
aV209.5
p2595
aV0.70
p2596
aV1.00
p2597
aI00
aa(lp2598
V2018-12-14 11:32
p2599
aV209.5
p2600
aV0.80
p2601
aV0.90
p2602
aI00
aa(lp2603
V2018-12-14 11:30
p2604
aV209.5
p2605
aV0.85
p2606
aV0.85
p2607
aI00
aa(lp2608
V2018-12-14 11:26
p2609
aV210
p2610
aV1.01
p2611
aV0.87
p2612
aI00
aa(lp2613
V2018-12-14 11:23
p2614
aV210
p2615
aV0.98
p2616
aV0.90
p2617
aI00
aa(lp2618
V2018-12-14 11:22
p2619
aV210
p2620
aV0.92
p2621
aV0.96
p2622
aI00
aa(lp2623
V2018-12-14 11:21
p2624
aV210
p2625
aV0.98
p2626
aV0.90
p2627
aI00
aa(lp2628
V2018-12-14 10:53
p2629
aV210
p2630
aV0.95
p2631
aV0.93
p2632
aI00
aa(lp2633
V2018-12-14 10:24
p2634
aV210
p2635
aV0.98
p2636
aV0.90
p2637
aI00
aa(lp2638
V2018-12-14 10:21
p2639
aV210
p2640
aV1.02
p2641
aV0.86
p2642
aI00
aa(lp2643
V2018-12-14 10:19
p2644
aV210
p2645
aV0.96
p2646
aV0.92
p2647
aI00
aa(lp2648
V2018-12-14 10:18
p2649
aV210
p2650
aV0.99
p2651
aV0.89
p2652
aI00
aa(lp2653
V2018-12-14 10:11
p2654
aV210
p2655
aV1.01
p2656
aV0.87
p2657
aI00
aa(lp2658
V2018-12-14 09:29
p2659
aV210
p2660
aV1.08
p2661
aV0.80
p2662
aI00
aa(lp2663
V2018-12-14 08:59
p2664
aV210
p2665
aV1.07
p2666
aV0.81
p2667
aI00
aa(lp2668
V2018-12-14 08:58
p2669
aV210
p2670
aV1.09
p2671
aV0.79
p2672
aI00
aa(lp2673
V2018-12-14 08:36
p2674
aV210
p2675
aV1.06
p2676
aV0.82
p2677
aI00
aa(lp2678
V2018-12-14 08:09
p2679
aV210
p2680
aV1.03
p2681
aV0.85
p2682
aI00
aa(lp2683
V2018-12-14 07:12
p2684
aV210
p2685
aV1.02
p2686
aV0.86
p2687
aI00
aa(lp2688
V2018-12-14 06:11
p2689
aV210
p2690
aV1.04
p2691
aV0.84
p2692
aI00
aa(lp2693
V2018-12-14 05:35
p2694
aV210
p2695
aV1.03
p2696
aV0.85
p2697
aI00
aa(lp2698
V2018-12-14 05:13
p2699
aV210
p2700
aV1.00
p2701
aV0.88
p2702
aI00
aa(lp2703
V2018-12-14 05:01
p2704
aV210
p2705
aV1.03
p2706
aV0.85
p2707
aI00
aa(lp2708
V2018-12-14 04:59
p2709
aV210
p2710
aV1.06
p2711
aV0.82
p2712
aI00
aa(lp2713
V2018-12-14 04:54
p2714
aV210
p2715
aV1.00
p2716
aV0.88
p2717
aI00
aa(lp2718
V2018-12-14 04:46
p2719
aV210
p2720
aV1.07
p2721
aV0.81
p2722
aI00
aa(lp2723
V2018-12-14 04:46
p2724
aV210
p2725
aV1.06
p2726
aV0.82
p2727
aI00
aa(lp2728
V2018-12-14 03:25
p2729
aV210
p2730
aV1.08
p2731
aV0.80
p2732
aI00
aa(lp2733
V2018-12-14 03:22
p2734
aV210
p2735
aV1.05
p2736
aV0.83
p2737
aI00
aa(lp2738
V2018-12-14 03:19
p2739
aV210
p2740
aV1.08
p2741
aV0.80
p2742
aI00
aa(lp2743
V2018-12-14 02:23
p2744
aV211
p2745
aV1.14
p2746
aV0.75
p2747
aI00
aa(lp2748
V2018-12-14 01:35
p2749
aV211
p2750
aV1.11
p2751
aV0.78
p2752
aI00
aa(lp2753
V2018-12-14 01:30
p2754
aV211
p2755
aV1.08
p2756
aV0.80
p2757
aI00
aa(lp2758
V2018-12-14 01:29
p2759
aV211
p2760
aV1.16
p2761
aV0.74
p2762
aI00
aa(lp2763
V2018-12-14 01:28
p2764
aV211
p2765
aV1.11
p2766
aV0.78
p2767
aI00
aa(lp2768
V2018-12-14 01:27
p2769
aV211
p2770
aV1.06
p2771
aV0.82
p2772
aI00
aa(lp2773
V2018-12-14 01:26
p2774
aV211
p2775
aV1.00
p2776
aV0.88
p2777
aI00
aa(lp2778
V2018-12-14 01:26
p2779
aV211
p2780
aV0.98
p2781
aV0.90
p2782
aI00
aa(lp2783
V2018-12-14 01:25
p2784
aV211
p2785
aV0.94
p2786
aV0.94
p2787
aI00
aa(lp2788
V2018-12-14 00:58
p2789
aV211
p2790
aV0.96
p2791
aV0.92
p2792
aI00
aa(lp2793
V2018-12-14 00:35
p2794
aV211
p2795
aV0.92
p2796
aV0.96
p2797
aI00
aa(lp2798
V2018-12-14 00:24
p2799
aV211
p2800
aV0.91
p2801
aV0.97
p2802
aI00
aa(lp2803
V2018-12-14 00:09
p2804
aV211
p2805
aV0.90
p2806
aV0.98
p2807
aI00
aa(lp2808
V2018-12-14 00:02
p2809
aV211
p2810
aV0.94
p2811
aV0.94
p2812
aI00
aa(lp2813
V2018-12-13 23:50
p2814
aV211
p2815
aV0.90
p2816
aV0.98
p2817
aI00
aa(lp2818
V2018-12-13 23:42
p2819
aV211
p2820
aV0.87
p2821
aV1.01
p2822
aI00
aa(lp2823
V2018-12-13 23:08
p2824
aV211
p2825
aV0.90
p2826
aV0.98
p2827
aI00
aa(lp2828
V2018-12-13 22:09
p2829
aV211
p2830
aV0.88
p2831
aV1.00
p2832
aI00
aa(lp2833
V2018-12-13 22:09
p2834
aV211
p2835
aV0.85
p2836
aV1.03
p2837
aI00
aa(lp2838
V2018-12-13 20:24
p2839
aV211
p2840
aV0.94
p2841
aV0.94
p2842
aI00
aasS'wade'
p2843
(lp2844
(lp2845
V2018-12-14 11:27
p2846
aV209.5
p2847
aV0.95
p2848
aV0.925
p2849
aI00
aa(lp2850
V2018-12-14 11:20
p2851
aV209.5
p2852
aV0.925
p2853
aV0.952
p2854
aI00
aa(lp2855
V2018-12-14 11:11
p2856
aV209.5
p2857
aV0.909
p2858
aV0.952
p2859
aI00
aa(lp2860
V2018-12-14 10:33
p2861
aV209.5
p2862
aV0.909
p2863
aV0.975
p2864
aI00
aa(lp2865
V2018-12-14 10:21
p2866
aV209.5
p2867
aV0.87
p2868
aV0.925
p2869
aI00
aa(lp2870
V2018-12-14 10:16
p2871
aV209.5
p2872
aV0.909
p2873
aV0.90
p2874
aI00
aa(lp2875
V2018-12-14 10:13
p2876
aV209.5
p2877
aV0.90
p2878
aV0.90
p2879
aI00
aa(lp2880
V2018-12-14 10:11
p2881
aV209.5
p2882
aV0.952
p2883
aV0.85
p2884
aI00
aa(lp2885
V2018-12-14 09:08
p2886
aV208.5
p2887
aV0.875
p2888
aV0.925
p2889
aI00
aa(lp2890
V2018-12-14 08:56
p2891
aV208.5
p2892
aV0.87
p2893
aV0.925
p2894
aI00
aa(lp2895
V2018-12-14 08:18
p2896
aV209.5
p2897
aV0.925
p2898
aV0.875
p2899
aI00
aa(lp2900
V2018-12-14 07:20
p2901
aV208.5
p2902
aV0.87
p2903
aV0.925
p2904
aI00
aa(lp2905
V2018-12-14 07:16
p2906
aV209.5
p2907
aV0.952
p2908
aV0.833
p2909
aI00
aa(lp2910
V2018-12-14 07:14
p2911
aV209.5
p2912
aV0.925
p2913
aV0.875
p2914
aI00
aa(lp2915
V2018-12-14 06:31
p2916
aV209.5
p2917
aV0.952
p2918
aV0.85
p2919
aI00
aa(lp2920
V2018-12-14 05:56
p2921
aV209.5
p2922
aV0.975
p2923
aV0.833
p2924
aI00
aa(lp2925
V2018-12-14 05:32
p2926
aV208.5
p2927
aV0.87
p2928
aV0.925
p2929
aI00
aa(lp2930
V2018-12-14 05:30
p2931
aV209.5
p2932
aV0.95
p2933
aV0.85
p2934
aI00
aa(lp2935
V2018-12-14 05:19
p2936
aV209.5
p2937
aV0.925
p2938
aV0.875
p2939
aI00
aa(lp2940
V2018-12-14 05:07
p2941
aV209.5
p2942
aV0.909
p2943
aV0.889
p2944
aI00
aa(lp2945
V2018-12-14 05:05
p2946
aV209.5
p2947
aV0.90
p2948
aV0.90
p2949
aI00
aa(lp2950
V2018-12-14 03:58
p2951
aV208.5
p2952
aV0.87
p2953
aV0.925
p2954
aI00
aa(lp2955
V2018-12-14 03:40
p2956
aV208.5
p2957
aV0.875
p2958
aV0.925
p2959
aI00
aa(lp2960
V2018-12-14 03:34
p2961
aV208.5
p2962
aV0.87
p2963
aV0.925
p2964
aI00
aa(lp2965
V2018-12-14 01:56
p2966
aV209.5
p2967
aV0.925
p2968
aV0.875
p2969
aI00
aa(lp2970
V2018-12-14 01:53
p2971
aV209.5
p2972
aV0.889
p2973
aV0.909
p2974
aI00
aa(lp2975
V2018-12-14 01:36
p2976
aV209.5
p2977
aV0.909
p2978
aV0.90
p2979
aI00
aa(lp2980
V2018-12-14 01:29
p2981
aV210.5
p2982
aV0.925
p2983
aV0.87
p2984
aI00
aa(lp2985
V2018-12-14 01:26
p2986
aV211.5
p2987
aV0.975
p2988
aV0.825
p2989
aI00
aa(lp2990
V2018-12-14 00:52
p2991
aV211.5
p2992
aV0.95
p2993
aV0.85
p2994
aI00
aa(lp2995
V2018-12-14 00:41
p2996
aV211.5
p2997
aV0.925
p2998
aV0.875
p2999
aI00
aa(lp3000
V2018-12-14 00:38
p3001
aV211.5
p3002
aV0.925
p3003
aV0.87
p3004
aI00
aa(lp3005
V2018-12-14 00:18
p3006
aV211.5
p3007
aV0.925
p3008
aV0.875
p3009
aI00
aa(lp3010
V2018-12-14 00:11
p3011
aV211.5
p3012
aV0.909
p3013
aV0.90
p3014
aI00
aa(lp3015
V2018-12-14 00:00
p3016
aV211.5
p3017
aV0.925
p3018
aV0.875
p3019
aI00
aa(lp3020
V2018-12-13 23:52
p3021
aV211.5
p3022
aV0.909
p3023
aV0.90
p3024
aI00
aa(lp3025
V2018-12-13 23:38
p3026
aV211.5
p3027
aV0.925
p3028
aV0.875
p3029
aI00
aa(lp3030
V2018-12-13 23:25
p3031
aV211.5
p3032
aV0.909
p3033
aV0.90
p3034
aI00
aa(lp3035
V2018-12-13 23:21
p3036
aV211.5
p3037
aV0.925
p3038
aV0.875
p3039
aI00
aa(lp3040
V2018-12-13 23:11
p3041
aV211.5
p3042
aV0.909
p3043
aV0.90
p3044
aI00
aa(lp3045
V2018-12-13 23:06
p3046
aV211.5
p3047
aV0.90
p3048
aV0.909
p3049
aI00
aa(lp3050
V2018-12-13 23:01
p3051
aV211.5
p3052
aV0.889
p3053
aV0.909
p3054
aI00
aa(lp3055
V2018-12-13 22:13
p3056
aV211.5
p3057
aV0.90
p3058
aV0.909
p3059
aI00
aa(lp3060
V2018-12-13 22:09
p3061
aV211.5
p3062
aV0.909
p3063
aV0.90
p3064
aI00
aa(lp3065
V2018-12-13 21:24
p3066
aV211.5
p3067
aV0.952
p3068
aV0.85
p3069
aI00
aa(lp3070
V2018-12-13 20:12
p3071
aV211.5
p3072
aV0.925
p3073
aV0.875
p3074
aI00
aa(lp3075
V2018-12-13 16:01
p3076
aV211.5
p3077
aV0.952
p3078
aV0.85
p3079
aI00
aasS'game_id'
p3080
S'325990'
p3081
sS'bet365'
p3082
(lp3083
(lp3084
V2018-12-14 13:59
p3085
aV190.5
p3086
aV0.86
p3087
aV0.86
p3088
aI01
aa(lp3089
V2018-12-14 13:57
p3090
aV191.5
p3091
aV0.86
p3092
aV0.86
p3093
aI01
aa(lp3094
V2018-12-14 13:56
p3095
aV192.5
p3096
aV0.83
p3097
aV0.90
p3098
aI01
aa(lp3099
V2018-12-14 13:56
p3100
aV192.5
p3101
aV0.80
p3102
aV0.95
p3103
aI01
aa(lp3104
V2018-12-14 13:55
p3105
aV191.5
p3106
aV1.00
p3107
aV0.76
p3108
aI01
aa(lp3109
V2018-12-14 13:55
p3110
aV192.5
p3111
aV0.86
p3112
aV0.86
p3113
aI01
aa(lp3114
V2018-12-14 13:55
p3115
aV190.5
p3116
aV0.83
p3117
aV0.90
p3118
aI01
aa(lp3119
V2018-12-14 13:55
p3120
aV191.5
p3121
aV0.90
p3122
aV0.83
p3123
aI01
aa(lp3124
V2018-12-14 13:55
p3125
aV192.5
p3126
aV0.80
p3127
aV0.95
p3128
aI01
aa(lp3129
V2018-12-14 13:54
p3130
aV190.5
p3131
aV0.80
p3132
aV0.95
p3133
aI01
aa(lp3134
V2018-12-14 13:54
p3135
aV191.5
p3136
aV0.86
p3137
aV0.86
p3138
aI01
aa(lp3139
V2018-12-14 13:54
p3140
aV190.5
p3141
aV0.80
p3142
aV0.95
p3143
aI01
aa(lp3144
V2018-12-14 13:54
p3145
aV191.5
p3146
aV0.86
p3147
aV0.86
p3148
aI01
aa(lp3149
V2018-12-14 13:53
p3150
aV190.5
p3151
aV0.80
p3152
aV0.95
p3153
aI01
aa(lp3154
V2018-12-14 13:53
p3155
aV189.5
p3156
aV0.80
p3157
aV0.95
p3158
aI01
aa(lp3159
V2018-12-14 13:53
p3160
aV190.5
p3161
aV0.80
p3162
aV0.95
p3163
aI01
aa(lp3164
V2018-12-14 13:53
p3165
aV191.5
p3166
aV0.76
p3167
aV1.00
p3168
aI01
aa(lp3169
V2018-12-14 13:52
p3170
aV192.5
p3171
aV0.86
p3172
aV0.86
p3173
aI01
aa(lp3174
V2018-12-14 13:52
p3175
aV192.5
p3176
aV0.80
p3177
aV0.95
p3178
aI01
aa(lp3179
V2018-12-14 13:52
p3180
aV193.5
p3181
aV0.90
p3182
aV0.83
p3183
aI01
aa(lp3184
V2018-12-14 13:52
p3185
aV194.5
p3186
aV0.86
p3187
aV0.86
p3188
aI01
aa(lp3189
V2018-12-14 13:51
p3190
aV193.5
p3191
aV0.83
p3192
aV0.90
p3193
aI01
aa(lp3194
V2018-12-14 13:51
p3195
aV194.5
p3196
aV0.86
p3197
aV0.86
p3198
aI01
aa(lp3199
V2018-12-14 13:51
p3200
aV195.5
p3201
aV0.83
p3202
aV0.90
p3203
aI01
aa(lp3204
V2018-12-14 13:50
p3205
aV194.5
p3206
aV0.95
p3207
aV0.80
p3208
aI01
aa(lp3209
V2018-12-14 13:50
p3210
aV195.5
p3211
aV0.86
p3212
aV0.86
p3213
aI01
aa(lp3214
V2018-12-14 13:50
p3215
aV196.5
p3216
aV0.83
p3217
aV0.90
p3218
aI01
aa(lp3219
V2018-12-14 13:50
p3220
aV197.5
p3221
aV0.83
p3222
aV0.90
p3223
aI01
aa(lp3224
V2018-12-14 13:50
p3225
aV198.5
p3226
aV0.90
p3227
aV0.83
p3228
aI01
aa(lp3229
V2018-12-14 13:49
p3230
aV195.5
p3231
aV0.95
p3232
aV0.80
p3233
aI01
aa(lp3234
V2018-12-14 13:49
p3235
aV194.5
p3236
aV0.83
p3237
aV0.90
p3238
aI01
aa(lp3239
V2018-12-14 13:49
p3240
aV193.5
p3241
aV0.83
p3242
aV0.90
p3243
aI01
aa(lp3244
V2018-12-14 13:48
p3245
aV193.5
p3246
aV0.86
p3247
aV0.86
p3248
aI01
aa(lp3249
V2018-12-14 13:48
p3250
aV193.5
p3251
aV0.80
p3252
aV0.95
p3253
aI01
aa(lp3254
V2018-12-14 13:47
p3255
aV191.5
p3256
aV0.83
p3257
aV0.90
p3258
aI01
aa(lp3259
V2018-12-14 13:47
p3260
aV192.5
p3261
aV0.86
p3262
aV0.86
p3263
aI01
aa(lp3264
V2018-12-14 13:45
p3265
aV191.5
p3266
aV0.86
p3267
aV0.86
p3268
aI01
aa(lp3269
V2018-12-14 13:44
p3270
aV192.5
p3271
aV0.86
p3272
aV0.86
p3273
aI01
aa(lp3274
V2018-12-14 13:44
p3275
aV193.5
p3276
aV0.90
p3277
aV0.83
p3278
aI01
aa(lp3279
V2018-12-14 13:44
p3280
aV191.5
p3281
aV0.95
p3282
aV0.80
p3283
aI01
aa(lp3284
V2018-12-14 13:43
p3285
aV191.5
p3286
aV0.83
p3287
aV0.90
p3288
aI01
aa(lp3289
V2018-12-14 13:43
p3290
aV192.5
p3291
aV0.86
p3292
aV0.86
p3293
aI01
aa(lp3294
V2018-12-14 13:43
p3295
aV193.5
p3296
aV0.86
p3297
aV0.86
p3298
aI01
aa(lp3299
V2018-12-14 13:43
p3300
aV194.5
p3301
aV0.95
p3302
aV0.80
p3303
aI01
aa(lp3304
V2018-12-14 13:43
p3305
aV194.5
p3306
aV0.83
p3307
aV0.90
p3308
aI01
aa(lp3309
V2018-12-14 13:43
p3310
aV195.5
p3311
aV0.86
p3312
aV0.86
p3313
aI01
aa(lp3314
V2018-12-14 13:42
p3315
aV194.5
p3316
aV0.80
p3317
aV0.95
p3318
aI01
aa(lp3319
V2018-12-14 13:42
p3320
aV196.5
p3321
aV0.83
p3322
aV0.90
p3323
aI01
aa(lp3324
V2018-12-14 13:41
p3325
aV197.5
p3326
aV0.83
p3327
aV0.90
p3328
aI01
aa(lp3329
V2018-12-14 13:41
p3330
aV198.5
p3331
aV0.95
p3332
aV0.80
p3333
aI01
aa(lp3334
V2018-12-14 13:38
p3335
aV196.5
p3336
aV0.83
p3337
aV0.90
p3338
aI01
aa(lp3339
V2018-12-14 13:38
p3340
aV194.5
p3341
aV0.86
p3342
aV0.86
p3343
aI01
aa(lp3344
V2018-12-14 13:37
p3345
aV195.5
p3346
aV0.83
p3347
aV0.90
p3348
aI01
aa(lp3349
V2018-12-14 13:37
p3350
aV195.5
p3351
aV0.80
p3352
aV0.95
p3353
aI01
aa(lp3354
V2018-12-14 13:37
p3355
aV196.5
p3356
aV0.95
p3357
aV0.80
p3358
aI01
aa(lp3359
V2018-12-14 13:36
p3360
aV193.5
p3361
aV0.83
p3362
aV0.90
p3363
aI01
aa(lp3364
V2018-12-14 13:36
p3365
aV194.5
p3366
aV0.86
p3367
aV0.86
p3368
aI01
aa(lp3369
V2018-12-14 13:36
p3370
aV193.5
p3371
aV0.80
p3372
aV0.95
p3373
aI01
aa(lp3374
V2018-12-14 13:36
p3375
aV194.5
p3376
aV0.86
p3377
aV0.86
p3378
aI01
aa(lp3379
V2018-12-14 13:35
p3380
aV194.5
p3381
aV0.83
p3382
aV0.90
p3383
aI01
aa(lp3384
V2018-12-14 13:35
p3385
aV195.5
p3386
aV0.86
p3387
aV0.86
p3388
aI01
aa(lp3389
V2018-12-14 13:34
p3390
aV195.5
p3391
aV0.80
p3392
aV0.95
p3393
aI01
aa(lp3394
V2018-12-14 13:34
p3395
aV196.5
p3396
aV0.83
p3397
aV0.90
p3398
aI01
aa(lp3399
V2018-12-14 13:34
p3400
aV197.5
p3401
aV0.86
p3402
aV0.86
p3403
aI01
aa(lp3404
V2018-12-14 13:33
p3405
aV198.5
p3406
aV0.83
p3407
aV0.90
p3408
aI01
aa(lp3409
V2018-12-14 13:33
p3410
aV197.5
p3411
aV0.95
p3412
aV0.80
p3413
aI01
aa(lp3414
V2018-12-14 13:29
p3415
aV197.5
p3416
aV0.86
p3417
aV0.86
p3418
aI01
aa(lp3419
V2018-12-14 13:29
p3420
aV197.5
p3421
aV0.83
p3422
aV0.90
p3423
aI01
aa(lp3424
V2018-12-14 13:29
p3425
aV198.5
p3426
aV0.83
p3427
aV0.90
p3428
aI01
aa(lp3429
V2018-12-14 13:29
p3430
aV198.5
p3431
aV0.86
p3432
aV0.86
p3433
aI01
aa(lp3434
V2018-12-14 13:28
p3435
aV196.5
p3436
aV0.83
p3437
aV0.90
p3438
aI01
aa(lp3439
V2018-12-14 13:28
p3440
aV197.5
p3441
aV0.90
p3442
aV0.83
p3443
aI01
aa(lp3444
V2018-12-14 13:27
p3445
aV197.5
p3446
aV0.83
p3447
aV0.90
p3448
aI01
aa(lp3449
V2018-12-14 13:27
p3450
aV197.5
p3451
aV0.90
p3452
aV0.83
p3453
aI01
aa(lp3454
V2018-12-14 13:27
p3455
aV197.5
p3456
aV0.80
p3457
aV0.95
p3458
aI01
aa(lp3459
V2018-12-14 13:27
p3460
aV197.5
p3461
aV0.83
p3462
aV0.90
p3463
aI01
aa(lp3464
V2018-12-14 13:26
p3465
aV197.5
p3466
aV0.86
p3467
aV0.86
p3468
aI01
aa(lp3469
V2018-12-14 13:26
p3470
aV196.5
p3471
aV0.83
p3472
aV0.90
p3473
aI01
aa(lp3474
V2018-12-14 13:25
p3475
aV195.5
p3476
aV0.83
p3477
aV0.90
p3478
aI01
aa(lp3479
V2018-12-14 13:25
p3480
aV196.5
p3481
aV0.83
p3482
aV0.90
p3483
aI01
aa(lp3484
V2018-12-14 13:25
p3485
aV197.5
p3486
aV0.80
p3487
aV0.95
p3488
aI01
aa(lp3489
V2018-12-14 13:25
p3490
aV196.5
p3491
aV0.86
p3492
aV0.86
p3493
aI01
aa(lp3494
V2018-12-14 13:25
p3495
aV197.5
p3496
aV0.95
p3497
aV0.80
p3498
aI01
aa(lp3499
V2018-12-14 13:25
p3500
aV197.5
p3501
aV0.86
p3502
aV0.86
p3503
aI01
aa(lp3504
V2018-12-14 13:24
p3505
aV198.5
p3506
aV0.90
p3507
aV0.83
p3508
aI01
aa(lp3509
V2018-12-14 13:24
p3510
aV197.5
p3511
aV0.80
p3512
aV0.95
p3513
aI01
aa(lp3514
V2018-12-14 13:24
p3515
aV197.5
p3516
aV0.83
p3517
aV0.90
p3518
aI01
aa(lp3519
V2018-12-14 13:24
p3520
aV196.5
p3521
aV0.90
p3522
aV0.83
p3523
aI01
aa(lp3524
V2018-12-14 13:23
p3525
aV194.5
p3526
aV0.86
p3527
aV0.86
p3528
aI01
aa(lp3529
V2018-12-14 13:23
p3530
aV195.5
p3531
aV0.90
p3532
aV0.83
p3533
aI01
aa(lp3534
V2018-12-14 13:22
p3535
aV196.5
p3536
aV0.86
p3537
aV0.86
p3538
aI01
aa(lp3539
V2018-12-14 13:22
p3540
aV194.5
p3541
aV0.80
p3542
aV0.95
p3543
aI01
aa(lp3544
V2018-12-14 13:22
p3545
aV195.5
p3546
aV0.86
p3547
aV0.86
p3548
aI01
aa(lp3549
V2018-12-14 13:21
p3550
aV195.5
p3551
aV0.83
p3552
aV0.90
p3553
aI01
aa(lp3554
V2018-12-14 13:21
p3555
aV194.5
p3556
aV0.90
p3557
aV0.83
p3558
aI01
aa(lp3559
V2018-12-14 13:20
p3560
aV194.5
p3561
aV0.86
p3562
aV0.86
p3563
aI01
aa(lp3564
V2018-12-14 13:20
p3565
aV192.5
p3566
aV0.90
p3567
aV0.83
p3568
aI01
aa(lp3569
V2018-12-14 13:18
p3570
aV192.5
p3571
aV0.83
p3572
aV0.90
p3573
aI01
aa(lp3574
V2018-12-14 13:18
p3575
aV193.5
p3576
aV0.83
p3577
aV0.90
p3578
aI01
aa(lp3579
V2018-12-14 13:18
p3580
aV194.5
p3581
aV0.83
p3582
aV0.90
p3583
aI01
aa(lp3584
V2018-12-14 13:18
p3585
aV193.5
p3586
aV0.86
p3587
aV0.86
p3588
aI01
aa(lp3589
V2018-12-14 13:15
p3590
aV194.5
p3591
aV0.86
p3592
aV0.86
p3593
aI01
aa(lp3594
V2018-12-14 13:14
p3595
aV195.5
p3596
aV0.86
p3597
aV0.86
p3598
aI01
aa(lp3599
V2018-12-14 13:14
p3600
aV194.5
p3601
aV0.90
p3602
aV0.83
p3603
aI01
aa(lp3604
V2018-12-14 13:13
p3605
aV193.5
p3606
aV0.83
p3607
aV0.90
p3608
aI01
aa(lp3609
V2018-12-14 13:13
p3610
aV194.5
p3611
aV0.90
p3612
aV0.83
p3613
aI01
aa(lp3614
V2018-12-14 13:13
p3615
aV195.5
p3616
aV0.86
p3617
aV0.86
p3618
aI01
aa(lp3619
V2018-12-14 13:13
p3620
aV193.5
p3621
aV0.90
p3622
aV0.83
p3623
aI01
aa(lp3624
V2018-12-14 13:12
p3625
aV193.5
p3626
aV0.83
p3627
aV0.90
p3628
aI01
aa(lp3629
V2018-12-14 13:12
p3630
aV194.5
p3631
aV0.86
p3632
aV0.86
p3633
aI01
aa(lp3634
V2018-12-14 13:12
p3635
aV196.5
p3636
aV0.83
p3637
aV0.90
p3638
aI01
aa(lp3639
V2018-12-14 13:11
p3640
aV196.5
p3641
aV0.90
p3642
aV0.83
p3643
aI01
aa(lp3644
V2018-12-14 13:11
p3645
aV195.5
p3646
aV0.90
p3647
aV0.83
p3648
aI01
aa(lp3649
V2018-12-14 13:11
p3650
aV193.5
p3651
aV0.90
p3652
aV0.83
p3653
aI01
aa(lp3654
V2018-12-14 13:11
p3655
aV193.5
p3656
aV0.83
p3657
aV0.90
p3658
aI01
aa(lp3659
V2018-12-14 13:11
p3660
aV194.5
p3661
aV0.90
p3662
aV0.83
p3663
aI01
aa(lp3664
V2018-12-14 13:10
p3665
aV194.5
p3666
aV0.86
p3667
aV0.86
p3668
aI01
aa(lp3669
V2018-12-14 13:10
p3670
aV193.5
p3671
aV0.83
p3672
aV0.90
p3673
aI01
aa(lp3674
V2018-12-14 13:09
p3675
aV193.5
p3676
aV0.86
p3677
aV0.86
p3678
aI01
aa(lp3679
V2018-12-14 13:09
p3680
aV194.5
p3681
aV0.86
p3682
aV0.86
p3683
aI01
aa(lp3684
V2018-12-14 13:09
p3685
aV195.5
p3686
aV0.86
p3687
aV0.86
p3688
aI01
aa(lp3689
V2018-12-14 13:09
p3690
aV194.5
p3691
aV0.90
p3692
aV0.83
p3693
aI01
aa(lp3694
V2018-12-14 13:09
p3695
aV194.5
p3696
aV0.83
p3697
aV0.90
p3698
aI01
aa(lp3699
V2018-12-14 13:08
p3700
aV192.5
p3701
aV0.83
p3702
aV0.90
p3703
aI01
aa(lp3704
V2018-12-14 13:05
p3705
aV193.5
p3706
aV0.86
p3707
aV0.86
p3708
aI01
aa(lp3709
V2018-12-14 13:05
p3710
aV192.5
p3711
aV0.90
p3712
aV0.83
p3713
aI01
aa(lp3714
V2018-12-14 13:04
p3715
aV191.5
p3716
aV0.86
p3717
aV0.86
p3718
aI01
aa(lp3719
V2018-12-14 13:03
p3720
aV189.5
p3721
aV0.83
p3722
aV0.90
p3723
aI01
aa(lp3724
V2018-12-14 13:03
p3725
aV190.5
p3726
aV0.83
p3727
aV0.90
p3728
aI01
aa(lp3729
V2018-12-14 13:03
p3730
aV189.5
p3731
aV0.83
p3732
aV0.90
p3733
aI01
aa(lp3734
V2018-12-14 13:03
p3735
aV190.5
p3736
aV0.83
p3737
aV0.90
p3738
aI01
aa(lp3739
V2018-12-14 13:02
p3740
aV189.5
p3741
aV0.86
p3742
aV0.86
p3743
aI01
aa(lp3744
V2018-12-14 13:02
p3745
aV190.5
p3746
aV0.90
p3747
aV0.83
p3748
aI01
aa(lp3749
V2018-12-14 13:02
p3750
aV190.5
p3751
aV0.83
p3752
aV0.90
p3753
aI01
aa(lp3754
V2018-12-14 13:01
p3755
aV191.5
p3756
aV0.86
p3757
aV0.86
p3758
aI01
aa(lp3759
V2018-12-14 13:01
p3760
aV192.5
p3761
aV0.90
p3762
aV0.83
p3763
aI01
aa(lp3764
V2018-12-14 13:01
p3765
aV190.5
p3766
aV0.86
p3767
aV0.86
p3768
aI01
aa(lp3769
V2018-12-14 13:00
p3770
aV190.5
p3771
aV0.90
p3772
aV0.83
p3773
aI01
aa(lp3774
V2018-12-14 13:00
p3775
aV190.5
p3776
aV0.86
p3777
aV0.86
p3778
aI01
aa(lp3779
V2018-12-14 13:00
p3780
aV188.5
p3781
aV0.86
p3782
aV0.86
p3783
aI01
aa(lp3784
V2018-12-14 13:00
p3785
aV187.5
p3786
aV0.86
p3787
aV0.86
p3788
aI01
aa(lp3789
V2018-12-14 12:59
p3790
aV188.5
p3791
aV0.90
p3792
aV0.83
p3793
aI01
aa(lp3794
V2018-12-14 12:59
p3795
aV189.5
p3796
aV0.86
p3797
aV0.86
p3798
aI01
aa(lp3799
V2018-12-14 12:59
p3800
aV189.5
p3801
aV0.83
p3802
aV0.90
p3803
aI01
aa(lp3804
V2018-12-14 12:59
p3805
aV190.5
p3806
aV0.86
p3807
aV0.86
p3808
aI01
aa(lp3809
V2018-12-14 12:58
p3810
aV192.5
p3811
aV0.90
p3812
aV0.83
p3813
aI01
aa(lp3814
V2018-12-14 12:58
p3815
aV191.5
p3816
aV0.86
p3817
aV0.86
p3818
aI01
aa(lp3819
V2018-12-14 12:58
p3820
aV192.5
p3821
aV0.90
p3822
aV0.83
p3823
aI01
aa(lp3824
V2018-12-14 12:43
p3825
aV192.5
p3826
aV0.86
p3827
aV0.86
p3828
aI01
aa(lp3829
V2018-12-14 12:40
p3830
aV189.5
p3831
aV0.86
p3832
aV0.86
p3833
aI01
aa(lp3834
V2018-12-14 12:40
p3835
aV188.5
p3836
aV0.86
p3837
aV0.86
p3838
aI01
aa(lp3839
V2018-12-14 12:40
p3840
aV189.5
p3841
aV0.86
p3842
aV0.86
p3843
aI01
aa(lp3844
V2018-12-14 12:39
p3845
aV190.5
p3846
aV0.86
p3847
aV0.86
p3848
aI01
aa(lp3849
V2018-12-14 12:38
p3850
aV189.5
p3851
aV0.86
p3852
aV0.86
p3853
aI01
aa(lp3854
V2018-12-14 12:38
p3855
aV190.5
p3856
aV0.83
p3857
aV0.90
p3858
aI01
aa(lp3859
V2018-12-14 12:37
p3860
aV191.5
p3861
aV0.86
p3862
aV0.86
p3863
aI01
aa(lp3864
V2018-12-14 12:37
p3865
aV192.5
p3866
aV0.90
p3867
aV0.83
p3868
aI01
aa(lp3869
V2018-12-14 12:36
p3870
aV190.5
p3871
aV0.83
p3872
aV0.90
p3873
aI01
aa(lp3874
V2018-12-14 12:36
p3875
aV189.5
p3876
aV0.86
p3877
aV0.86
p3878
aI01
aa(lp3879
V2018-12-14 12:36
p3880
aV190.5
p3881
aV0.86
p3882
aV0.86
p3883
aI01
aa(lp3884
V2018-12-14 12:35
p3885
aV192.5
p3886
aV0.90
p3887
aV0.83
p3888
aI01
aa(lp3889
V2018-12-14 12:35
p3890
aV193.5
p3891
aV0.86
p3892
aV0.86
p3893
aI01
aa(lp3894
V2018-12-14 12:35
p3895
aV191.5
p3896
aV0.90
p3897
aV0.83
p3898
aI01
aa(lp3899
V2018-12-14 12:35
p3900
aV190.5
p3901
aV0.86
p3902
aV0.86
p3903
aI01
aa(lp3904
V2018-12-14 12:34
p3905
aV191.5
p3906
aV0.83
p3907
aV0.90
p3908
aI01
aa(lp3909
V2018-12-14 12:34
p3910
aV192.5
p3911
aV0.86
p3912
aV0.86
p3913
aI01
aa(lp3914
V2018-12-14 12:34
p3915
aV194.5
p3916
aV0.90
p3917
aV0.83
p3918
aI01
aa(lp3919
V2018-12-14 12:34
p3920
aV194.5
p3921
aV0.86
p3922
aV0.86
p3923
aI01
aa(lp3924
V2018-12-14 12:33
p3925
aV195.5
p3926
aV0.90
p3927
aV0.83
p3928
aI01
aa(lp3929
V2018-12-14 12:33
p3930
aV196.5
p3931
aV0.86
p3932
aV0.86
p3933
aI01
aa(lp3934
V2018-12-14 12:32
p3935
aV196.5
p3936
aV0.90
p3937
aV0.83
p3938
aI01
aa(lp3939
V2018-12-14 12:32
p3940
aV196.5
p3941
aV0.83
p3942
aV0.90
p3943
aI01
aa(lp3944
V2018-12-14 12:32
p3945
aV196.5
p3946
aV0.86
p3947
aV0.86
p3948
aI01
aa(lp3949
V2018-12-14 12:28
p3950
aV197.5
p3951
aV0.83
p3952
aV0.90
p3953
aI01
aa(lp3954
V2018-12-14 12:27
p3955
aV198.5
p3956
aV0.90
p3957
aV0.83
p3958
aI01
aa(lp3959
V2018-12-14 12:27
p3960
aV199.5
p3961
aV0.86
p3962
aV0.86
p3963
aI01
aa(lp3964
V2018-12-14 12:27
p3965
aV198.5
p3966
aV0.86
p3967
aV0.86
p3968
aI01
aa(lp3969
V2018-12-14 12:26
p3970
aV197.5
p3971
aV0.83
p3972
aV0.90
p3973
aI01
aa(lp3974
V2018-12-14 12:26
p3975
aV197.5
p3976
aV0.90
p3977
aV0.83
p3978
aI01
aa(lp3979
V2018-12-14 12:26
p3980
aV198.5
p3981
aV0.86
p3982
aV0.86
p3983
aI01
aa(lp3984
V2018-12-14 12:25
p3985
aV199.5
p3986
aV0.90
p3987
aV0.83
p3988
aI01
aa(lp3989
V2018-12-14 12:24
p3990
aV199.5
p3991
aV0.86
p3992
aV0.86
p3993
aI01
aa(lp3994
V2018-12-14 12:24
p3995
aV200.5
p3996
aV0.86
p3997
aV0.86
p3998
aI01
aa(lp3999
V2018-12-14 12:24
p4000
aV199.5
p4001
aV0.86
p4002
aV0.86
p4003
aI01
aa(lp4004
V2018-12-14 12:24
p4005
aV198.5
p4006
aV0.86
p4007
aV0.86
p4008
aI01
aa(lp4009
V2018-12-14 12:20
p4010
aV199.5
p4011
aV0.83
p4012
aV0.90
p4013
aI01
aa(lp4014
V2018-12-14 12:20
p4015
aV200.5
p4016
aV0.90
p4017
aV0.83
p4018
aI01
aa(lp4019
V2018-12-14 12:20
p4020
aV199.5
p4021
aV0.86
p4022
aV0.86
p4023
aI01
aa(lp4024
V2018-12-14 12:19
p4025
aV201.5
p4026
aV0.90
p4027
aV0.83
p4028
aI01
aa(lp4029
V2018-12-14 12:18
p4030
aV199.5
p4031
aV0.86
p4032
aV0.86
p4033
aI01
aa(lp4034
V2018-12-14 12:18
p4035
aV200.5
p4036
aV0.86
p4037
aV0.86
p4038
aI01
aa(lp4039
V2018-12-14 12:17
p4040
aV199.5
p4041
aV0.90
p4042
aV0.83
p4043
aI01
aa(lp4044
V2018-12-14 12:17
p4045
aV198.5
p4046
aV0.90
p4047
aV0.83
p4048
aI01
aa(lp4049
V2018-12-14 12:16
p4050
aV196.5
p4051
aV0.90
p4052
aV0.83
p4053
aI01
aa(lp4054
V2018-12-14 12:16
p4055
aV197.5
p4056
aV0.86
p4057
aV0.86
p4058
aI01
aa(lp4059
V2018-12-14 12:16
p4060
aV196.5
p4061
aV0.90
p4062
aV0.83
p4063
aI01
aa(lp4064
V2018-12-14 12:15
p4065
aV196.5
p4066
aV0.83
p4067
aV0.90
p4068
aI01
aa(lp4069
V2018-12-14 12:15
p4070
aV196.5
p4071
aV0.90
p4072
aV0.83
p4073
aI01
aa(lp4074
V2018-12-14 12:15
p4075
aV197.5
p4076
aV0.86
p4077
aV0.86
p4078
aI01
aa(lp4079
V2018-12-14 12:15
p4080
aV197.5
p4081
aV0.83
p4082
aV0.90
p4083
aI01
aa(lp4084
V2018-12-14 12:14
p4085
aV198.5
p4086
aV0.86
p4087
aV0.86
p4088
aI01
aa(lp4089
V2018-12-14 12:14
p4090
aV197.5
p4091
aV0.90
p4092
aV0.83
p4093
aI01
aa(lp4094
V2018-12-14 12:14
p4095
aV197.5
p4096
aV0.83
p4097
aV0.90
p4098
aI01
aa(lp4099
V2018-12-14 12:14
p4100
aV198.5
p4101
aV0.83
p4102
aV0.90
p4103
aI01
aa(lp4104
V2018-12-14 12:13
p4105
aV199.5
p4106
aV0.90
p4107
aV0.83
p4108
aI01
aa(lp4109
V2018-12-14 12:13
p4110
aV199.5
p4111
aV0.86
p4112
aV0.86
p4113
aI01
aa(lp4114
V2018-12-14 12:13
p4115
aV200.5
p4116
aV0.86
p4117
aV0.86
p4118
aI01
aa(lp4119
V2018-12-14 12:13
p4120
aV201.5
p4121
aV0.90
p4122
aV0.83
p4123
aI01
aa(lp4124
V2018-12-14 12:11
p4125
aV201.5
p4126
aV0.86
p4127
aV0.86
p4128
aI01
aa(lp4129
V2018-12-14 12:10
p4130
aV202.5
p4131
aV0.86
p4132
aV0.86
p4133
aI01
aa(lp4134
V2018-12-14 12:09
p4135
aV203.5
p4136
aV0.90
p4137
aV0.83
p4138
aI01
aa(lp4139
V2018-12-14 12:09
p4140
aV204.5
p4141
aV0.90
p4142
aV0.83
p4143
aI01
aa(lp4144
V2018-12-14 12:08
p4145
aV203.5
p4146
aV0.86
p4147
aV0.86
p4148
aI01
aa(lp4149
V2018-12-14 12:08
p4150
aV202.5
p4151
aV0.86
p4152
aV0.86
p4153
aI01
aa(lp4154
V2018-12-14 12:08
p4155
aV201.5
p4156
aV0.83
p4157
aV0.90
p4158
aI01
aa(lp4159
V2018-12-14 12:07
p4160
aV203.5
p4161
aV0.90
p4162
aV0.83
p4163
aI01
aa(lp4164
V2018-12-14 12:07
p4165
aV203.5
p4166
aV0.86
p4167
aV0.86
p4168
aI01
aa(lp4169
V2018-12-14 12:07
p4170
aV203.5
p4171
aV0.90
p4172
aV0.83
p4173
aI01
aa(lp4174
V2018-12-14 12:07
p4175
aV203.5
p4176
aV0.86
p4177
aV0.86
p4178
aI01
aa(lp4179
V2018-12-14 12:06
p4180
aV205.5
p4181
aV0.86
p4182
aV0.86
p4183
aI01
aa(lp4184
V2018-12-14 12:06
p4185
aV206.5
p4186
aV0.86
p4187
aV0.86
p4188
aI01
aa(lp4189
V2018-12-14 12:05
p4190
aV207.5
p4191
aV0.86
p4192
aV0.86
p4193
aI01
aa(lp4194
V2018-12-14 12:01
p4195
aV208.5
p4196
aV0.86
p4197
aV0.86
p4198
aI01
aa(lp4199
V2018-12-14 12:01
p4200
aV207.5
p4201
aV0.86
p4202
aV0.86
p4203
aI01
aa(lp4204
V2018-12-14 12:00
p4205
aV205.5
p4206
aV0.86
p4207
aV0.86
p4208
aI01
aa(lp4209
V2018-12-14 12:00
p4210
aV207.5
p4211
aV0.90
p4212
aV0.83
p4213
aI01
aa(lp4214
V2018-12-14 12:00
p4215
aV206.5
p4216
aV0.90
p4217
aV0.83
p4218
aI01
aa(lp4219
V2018-12-14 11:59
p4220
aV205.5
p4221
aV0.86
p4222
aV0.86
p4223
aI01
aa(lp4224
V2018-12-14 11:59
p4225
aV206.5
p4226
aV0.86
p4227
aV0.86
p4228
aI01
aa(lp4229
V2018-12-14 11:58
p4230
aV204.5
p4231
aV0.86
p4232
aV0.86
p4233
aI01
aa(lp4234
V2018-12-14 11:58
p4235
aV205.5
p4236
aV0.86
p4237
aV0.86
p4238
aI01
aa(lp4239
V2018-12-14 11:58
p4240
aV203.5
p4241
aV0.86
p4242
aV0.86
p4243
aI01
aa(lp4244
V2018-12-14 11:58
p4245
aV204.5
p4246
aV0.90
p4247
aV0.83
p4248
aI01
aa(lp4249
V2018-12-14 11:58
p4250
aV204.5
p4251
aV0.86
p4252
aV0.86
p4253
aI01
aa(lp4254
V2018-12-14 11:57
p4255
aV205.5
p4256
aV0.86
p4257
aV0.86
p4258
aI01
aa(lp4259
V2018-12-14 11:57
p4260
aV206.5
p4261
aV0.86
p4262
aV0.86
p4263
aI01
aa(lp4264
V2018-12-14 11:54
p4265
aV207.5
p4266
aV0.86
p4267
aV0.86
p4268
aI01
aa(lp4269
V2018-12-14 11:54
p4270
aV206.5
p4271
aV0.86
p4272
aV0.86
p4273
aI01
aa(lp4274
V2018-12-14 11:52
p4275
aV204.5
p4276
aV0.86
p4277
aV0.86
p4278
aI01
aa(lp4279
V2018-12-14 11:52
p4280
aV204.5
p4281
aV0.83
p4282
aV0.90
p4283
aI01
aa(lp4284
V2018-12-14 11:52
p4285
aV206.5
p4286
aV0.86
p4287
aV0.86
p4288
aI01
aa(lp4289
V2018-12-14 11:52
p4290
aV203.5
p4291
aV0.86
p4292
aV0.86
p4293
aI01
aa(lp4294
V2018-12-14 11:52
p4295
aV205.5
p4296
aV0.90
p4297
aV0.83
p4298
aI01
aa(lp4299
V2018-12-14 11:51
p4300
aV204.5
p4301
aV0.86
p4302
aV0.86
p4303
aI01
aa(lp4304
V2018-12-14 11:51
p4305
aV205.5
p4306
aV0.86
p4307
aV0.86
p4308
aI01
aa(lp4309
V2018-12-14 11:51
p4310
aV204.5
p4311
aV0.86
p4312
aV0.86
p4313
aI01
aa(lp4314
V2018-12-14 11:50
p4315
aV205.5
p4316
aV0.86
p4317
aV0.86
p4318
aI01
aa(lp4319
V2018-12-14 11:50
p4320
aV204.5
p4321
aV0.83
p4322
aV0.90
p4323
aI01
aa(lp4324
V2018-12-14 11:49
p4325
aV204.5
p4326
aV0.86
p4327
aV0.86
p4328
aI01
aa(lp4329
V2018-12-14 11:48
p4330
aV205.5
p4331
aV0.86
p4332
aV0.86
p4333
aI01
aa(lp4334
V2018-12-14 11:48
p4335
aV206.5
p4336
aV0.86
p4337
aV0.86
p4338
aI01
aa(lp4339
V2018-12-14 11:48
p4340
aV205.5
p4341
aV0.83
p4342
aV0.90
p4343
aI01
aa(lp4344
V2018-12-14 11:48
p4345
aV206.5
p4346
aV0.86
p4347
aV0.86
p4348
aI01
aa(lp4349
V2018-12-14 11:47
p4350
aV207.5
p4351
aV0.86
p4352
aV0.86
p4353
aI01
aa(lp4354
V2018-12-14 11:47
p4355
aV209.5
p4356
aV0.86
p4357
aV0.86
p4358
aI01
aa(lp4359
V2018-12-14 11:47
p4360
aV210.5
p4361
aV0.86
p4362
aV0.86
p4363
aI01
aa(lp4364
V2018-12-14 10:18
p4365
aV210
p4366
aV0.90
p4367
aV0.90
p4368
aI00
aa(lp4369
V2018-12-14 10:11
p4370
aV210.5
p4371
aV0.90
p4372
aV0.90
p4373
aI00
aa(lp4374
V2018-12-14 04:49
p4375
aV209.5
p4376
aV0.90
p4377
aV0.90
p4378
aI00
aa(lp4379
V2018-12-14 03:21
p4380
aV208.5
p4381
aV0.90
p4382
aV0.90
p4383
aI00
aa(lp4384
V2018-12-14 02:15
p4385
aV209
p4386
aV0.90
p4387
aV0.90
p4388
aI00
aa(lp4389
V2018-12-14 02:13
p4390
aV209.5
p4391
aV0.90
p4392
aV0.90
p4393
aI00
aa(lp4394
V2018-12-14 01:35
p4395
aV210
p4396
aV0.90
p4397
aV0.90
p4398
aI00
aa(lp4399
V2018-12-14 01:30
p4400
aV210.5
p4401
aV0.90
p4402
aV0.90
p4403
aI00
aa(lp4404
V2018-12-14 01:29
p4405
aV211
p4406
aV0.90
p4407
aV0.90
p4408
aI00
aa(lp4409
V2018-12-13 22:11
p4410
aV211.5
p4411
aV0.90
p4412
aV0.90
p4413
aI00
aa(lp4414
V2018-12-13 20:25
p4415
aV211
p4416
aV0.90
p4417
aV0.90
p4418
aI00
aa(lp4419
V2018-12-13 20:10
p4420
aV211
p4421
aV0.95
p4422
aV0.86
p4423
aI00
aa(lp4424
V2018-12-13 15:59
p4425
aV211
p4426
aV0.90
p4427
aV0.90
p4428
aI00
aa(lp4429
V2018-12-13 06:54
p4430
aV211
p4431
aV0.95
p4432
aV0.86
p4433
aI00
aa(lp4434
V2018-12-13 06:44
p4435
aV211
p4436
aV0.90
p4437
aV0.90
p4438
aI00
aassb.