ccopy_reg
_reconstructor
p0
(cmy_oddsportal.items
WinOverUnderItem
p1
c__builtin__
object
p2
Ntp3
Rp4
(dp5
S'_values'
p6
(dp7
S'ysb8'
p8
(lp9
(lp10
V2018-12-22 11:22
p11
aV232.5
p12
aV0.70
p13
aV1.23
p14
aI00
aa(lp15
V2018-12-22 11:19
p16
aV232.5
p17
aV0.77
p18
aV1.12
p19
aI00
aa(lp20
V2018-12-22 11:14
p21
aV232.5
p22
aV0.80
p23
aV1.07
p24
aI00
aa(lp25
V2018-12-22 11:13
p26
aV232.5
p27
aV0.83
p28
aV1.04
p29
aI00
aa(lp30
V2018-12-22 11:05
p31
aV232.5
p32
aV0.80
p33
aV1.07
p34
aI00
aa(lp35
V2018-12-22 10:11
p36
aV232.5
p37
aV0.84
p38
aV1.03
p39
aI00
aa(lp40
V2018-12-22 08:20
p41
aV230.5
p42
aV0.80
p43
aV1.07
p44
aI00
aa(lp45
V2018-12-22 05:54
p46
aV230.5
p47
aV0.83
p48
aV1.04
p49
aI00
aa(lp50
V2018-12-22 04:07
p51
aV230.5
p52
aV0.87
p53
aV0.99
p54
aI00
aa(lp55
V2018-12-22 03:44
p56
aV230.5
p57
aV0.93
p58
aV0.93
p59
aI00
aa(lp60
V2018-12-22 03:43
p61
aV230.5
p62
aV0.91
p63
aV0.95
p64
aI00
aa(lp65
V2018-12-22 03:19
p66
aV230.5
p67
aV0.93
p68
aV0.93
p69
aI00
aa(lp70
V2018-12-22 02:46
p71
aV233.5
p72
aV1.01
p73
aV0.85
p74
aI00
aa(lp75
V2018-12-22 01:31
p76
aV233.5
p77
aV1.04
p78
aV0.83
p79
aI00
aa(lp80
V2018-12-22 00:55
p81
aV233.5
p82
aV1.00
p83
aV0.86
p84
aI00
aa(lp85
V2018-12-22 00:23
p86
aV233.5
p87
aV1.04
p88
aV0.83
p89
aI00
aa(lp90
V2018-12-21 23:41
p91
aV233.5
p92
aV0.98
p93
aV0.88
p94
aI00
aasS'macau'
p95
(lp96
(lp97
V2018-12-22 11:20
p98
aV233.5
p99
aV0.75
p100
aV0.95
p101
aI00
aa(lp102
V2018-12-22 10:06
p103
aV233.5
p104
aV0.88
p105
aV0.820
p106
aI00
aa(lp107
V2018-12-22 09:47
p108
aV231.5
p109
aV0.820
p110
aV0.88
p111
aI00
aa(lp112
V2018-12-22 06:28
p113
aV230.5
p114
aV0.80
p115
aV0.90
p116
aI00
aa(lp117
V2018-12-22 03:21
p118
aV230.5
p119
aV0.85
p120
aV0.85
p121
aI00
aa(lp122
V2018-12-22 00:41
p123
aV232.5
p124
aV0.84
p125
aV0.86
p126
aI00
aa(lp127
V2018-12-21 16:18
p128
aV234.5
p129
aV0.90
p130
aV0.80
p131
aI00
aasS'title'
p132
V\u000a                \u6d1b\u6749\u78ef\u6e56\u4eba\u000a                vs\u000a                \u65b0\u5967\u723e\u826f\u9d5c\u9d98\u000a            
p133
sS'crown'
p134
(lp135
(lp136
V2018-12-22 11:20
p137
aV233.5
p138
aV0.76
p139
aV1.10
p140
aI00
aa(lp141
V2018-12-22 11:19
p142
aV233.5
p143
aV0.78
p144
aV1.08
p145
aI00
aa(lp146
V2018-12-22 11:17
p147
aV233.5
p148
aV0.80
p149
aV1.06
p150
aI00
aa(lp151
V2018-12-22 11:16
p152
aV233.5
p153
aV0.82
p154
aV1.04
p155
aI00
aa(lp156
V2018-12-22 11:13
p157
aV233.5
p158
aV0.90
p159
aV0.96
p160
aI00
aa(lp161
V2018-12-22 11:11
p162
aV233.5
p163
aV0.93
p164
aV0.93
p165
aI00
aa(lp166
V2018-12-22 11:03
p167
aV233.5
p168
aV0.90
p169
aV0.96
p170
aI00
aa(lp171
V2018-12-22 10:18
p172
aV233.5
p173
aV0.95
p174
aV0.91
p175
aI00
aa(lp176
V2018-12-22 10:08
p177
aV233.5
p178
aV0.94
p179
aV0.92
p180
aI00
aa(lp181
V2018-12-22 09:55
p182
aV233.5
p183
aV0.92
p184
aV0.94
p185
aI00
aa(lp186
V2018-12-22 08:59
p187
aV231.5
p188
aV0.86
p189
aV1.00
p190
aI00
aa(lp191
V2018-12-22 08:16
p192
aV230.5
p193
aV0.80
p194
aV1.06
p195
aI00
aa(lp196
V2018-12-22 05:52
p197
aV230.5
p198
aV0.83
p199
aV1.03
p200
aI00
aa(lp201
V2018-12-22 04:06
p202
aV230.5
p203
aV0.88
p204
aV0.98
p205
aI00
aa(lp206
V2018-12-22 04:01
p207
aV230.5
p208
aV0.94
p209
aV0.92
p210
aI00
aa(lp211
V2018-12-22 03:43
p212
aV230.5
p213
aV0.92
p214
aV0.92
p215
aI00
aa(lp216
V2018-12-22 03:42
p217
aV230.5
p218
aV0.90
p219
aV0.94
p220
aI00
aa(lp221
V2018-12-22 03:16
p222
aV230.5
p223
aV0.92
p224
aV0.92
p225
aI00
aa(lp226
V2018-12-22 02:19
p227
aV232.5
p228
aV0.87
p229
aV0.97
p230
aI00
aa(lp231
V2018-12-22 02:18
p232
aV231.5
p233
aV0.77
p234
aV1.07
p235
aI00
aa(lp236
V2018-12-21 23:33
p237
aV232.5
p238
aV0.87
p239
aV0.97
p240
aI00
aasS'sbo'
p241
(lp242
(lp243
V2018-12-22 11:25
p244
aV232.5
p245
aV0.74
p246
aV1.16
p247
aI00
aa(lp248
V2018-12-22 11:25
p249
aV232.5
p250
aV0.76
p251
aV1.13
p252
aI00
aa(lp253
V2018-12-22 11:18
p254
aV231.5
p255
aV0.68
p256
aV1.25
p257
aI00
aa(lp258
V2018-12-22 11:17
p259
aV231.5
p260
aV0.69
p261
aV1.23
p262
aI00
aa(lp263
V2018-12-22 10:59
p264
aV231.5
p265
aV0.73
p266
aV1.17
p267
aI00
aa(lp268
V2018-12-22 10:01
p269
aV231.5
p270
aV0.75
p271
aV1.14
p272
aI00
aa(lp273
V2018-12-22 09:52
p274
aV231.5
p275
aV0.79
p276
aV1.09
p277
aI00
aa(lp278
V2018-12-22 09:46
p279
aV231.5
p280
aV0.82
p281
aV1.06
p282
aI00
aa(lp283
V2018-12-22 09:43
p284
aV231.5
p285
aV0.79
p286
aV1.09
p287
aI00
aa(lp288
V2018-12-22 09:42
p289
aV231.5
p290
aV0.82
p291
aV1.06
p292
aI00
aa(lp293
V2018-12-22 09:17
p294
aV231.5
p295
aV0.85
p296
aV1.03
p297
aI00
aa(lp298
V2018-12-22 08:57
p299
aV231.5
p300
aV0.86
p301
aV1.02
p302
aI00
aa(lp303
V2018-12-22 06:59
p304
aV231.5
p305
aV0.89
p306
aV0.99
p307
aI00
aa(lp308
V2018-12-22 06:12
p309
aV231.5
p310
aV0.91
p311
aV0.97
p312
aI00
aa(lp313
V2018-12-22 05:46
p314
aV231.5
p315
aV0.92
p316
aV0.96
p317
aI00
aa(lp318
V2018-12-22 04:56
p319
aV231.5
p320
aV0.94
p321
aV0.94
p322
aI00
aa(lp323
V2018-12-22 03:38
p324
aV231.5
p325
aV0.98
p326
aV0.90
p327
aI00
aa(lp328
V2018-12-22 03:30
p329
aV231.5
p330
aV0.94
p331
aV0.94
p332
aI00
aa(lp333
V2018-12-22 03:27
p334
aV231.5
p335
aV0.97
p336
aV0.91
p337
aI00
aa(lp338
V2018-12-22 03:19
p339
aV231.5
p340
aV1.01
p341
aV0.87
p342
aI00
aa(lp343
V2018-12-22 02:58
p344
aV233
p345
aV0.92
p346
aV0.96
p347
aI00
aa(lp348
V2018-12-22 02:53
p349
aV233
p350
aV0.95
p351
aV0.93
p352
aI00
aa(lp353
V2018-12-22 02:52
p354
aV233
p355
aV0.93
p356
aV0.95
p357
aI00
aa(lp358
V2018-12-22 02:45
p359
aV233
p360
aV0.96
p361
aV0.92
p362
aI00
aa(lp363
V2018-12-22 02:22
p364
aV233
p365
aV0.91
p366
aV0.97
p367
aI00
aa(lp368
V2018-12-22 02:03
p369
aV233
p370
aV0.94
p371
aV0.94
p372
aI00
aa(lp373
V2018-12-22 01:49
p374
aV233
p375
aV0.97
p376
aV0.91
p377
aI00
aa(lp378
V2018-12-22 01:31
p379
aV233
p380
aV1.00
p381
aV0.88
p382
aI00
aa(lp383
V2018-12-22 01:16
p384
aV233
p385
aV0.95
p386
aV0.93
p387
aI00
aa(lp388
V2018-12-22 01:13
p389
aV233
p390
aV0.98
p391
aV0.90
p392
aI00
aa(lp393
V2018-12-22 01:09
p394
aV233
p395
aV0.96
p396
aV0.92
p397
aI00
aa(lp398
V2018-12-22 01:07
p399
aV233
p400
aV0.91
p401
aV0.97
p402
aI00
aa(lp403
V2018-12-22 01:01
p404
aV233
p405
aV0.87
p406
aV1.01
p407
aI00
aa(lp408
V2018-12-22 00:46
p409
aV233
p410
aV0.91
p411
aV0.97
p412
aI00
aa(lp413
V2018-12-22 00:33
p414
aV233
p415
aV0.94
p416
aV0.94
p417
aI00
aa(lp418
V2018-12-22 00:25
p419
aV233
p420
aV0.97
p421
aV0.91
p422
aI00
aa(lp423
V2018-12-22 00:23
p424
aV233
p425
aV1.00
p426
aV0.88
p427
aI00
aa(lp428
V2018-12-22 00:16
p429
aV233
p430
aV0.92
p431
aV0.96
p432
aI00
aa(lp433
V2018-12-21 23:51
p434
aV233
p435
aV0.95
p436
aV0.93
p437
aI00
aa(lp438
V2018-12-21 23:28
p439
aV233
p440
aV0.97
p441
aV0.91
p442
aI00
aa(lp443
V2018-12-21 23:27
p444
aV233
p445
aV0.96
p446
aV0.92
p447
aI00
aa(lp448
V2018-12-21 08:26
p449
aV234.5
p450
aV0.91
p451
aV0.95
p452
aI00
aa(lp453
V2018-12-21 05:49
p454
aV234.5
p455
aV0.95
p456
aV0.91
p457
aI00
aasS'wade'
p458
(lp459
(lp460
V2018-12-22 11:20
p461
aV234.5
p462
aV0.95
p463
aV0.925
p464
aI00
aa(lp465
V2018-12-22 11:14
p466
aV233.5
p467
aV0.909
p468
aV0.952
p469
aI00
aa(lp470
V2018-12-22 10:35
p471
aV233.5
p472
aV0.952
p473
aV0.909
p474
aI00
aa(lp475
V2018-12-22 10:21
p476
aV233.5
p477
aV0.909
p478
aV0.889
p479
aI00
aa(lp480
V2018-12-22 10:12
p481
aV233.5
p482
aV0.925
p483
aV0.875
p484
aI00
aa(lp485
V2018-12-22 10:09
p486
aV233.5
p487
aV0.909
p488
aV0.90
p489
aI00
aa(lp490
V2018-12-22 09:49
p491
aV232.5
p492
aV0.90
p493
aV0.90
p494
aI00
aa(lp495
V2018-12-22 09:19
p496
aV232.5
p497
aV0.95
p498
aV0.85
p499
aI00
aa(lp500
V2018-12-22 08:59
p501
aV231.5
p502
aV0.825
p503
aV0.975
p504
aI00
aa(lp505
V2018-12-22 08:19
p506
aV231.5
p507
aV0.85
p508
aV0.952
p509
aI00
aa(lp510
V2018-12-22 06:48
p511
aV231.5
p512
aV0.87
p513
aV0.925
p514
aI00
aa(lp515
V2018-12-22 06:13
p516
aV231.5
p517
aV0.889
p518
aV0.909
p519
aI00
aa(lp520
V2018-12-22 05:49
p521
aV231.5
p522
aV0.909
p523
aV0.889
p524
aI00
aa(lp525
V2018-12-22 04:56
p526
aV231.5
p527
aV0.925
p528
aV0.875
p529
aI00
aa(lp530
V2018-12-22 04:08
p531
aV230.5
p532
aV0.85
p533
aV0.952
p534
aI00
aa(lp535
V2018-12-22 04:04
p536
aV230.5
p537
aV0.875
p538
aV0.925
p539
aI00
aa(lp540
V2018-12-22 03:29
p541
aV230.5
p542
aV0.87
p543
aV0.925
p544
aI00
aa(lp545
V2018-12-22 03:24
p546
aV230.5
p547
aV0.90
p548
aV0.909
p549
aI00
aa(lp550
V2018-12-22 03:20
p551
aV230.5
p552
aV0.85
p553
aV0.95
p554
aI00
aa(lp555
V2018-12-22 02:26
p556
aV232.5
p557
aV0.875
p558
aV0.925
p559
aI00
aa(lp560
V2018-12-22 01:15
p561
aV232.5
p562
aV0.825
p563
aV0.975
p564
aI00
aa(lp565
V2018-12-22 01:07
p566
aV233.5
p567
aV0.95
p568
aV0.85
p569
aI00
aa(lp570
V2018-12-21 23:55
p571
aV232.5
p572
aV0.87
p573
aV0.925
p574
aI00
aa(lp575
V2018-12-21 23:18
p576
aV232.5
p577
aV0.875
p578
aV0.925
p579
aI00
aa(lp580
V2018-12-21 22:47
p581
aV233.5
p582
aV0.925
p583
aV0.875
p584
aI00
aa(lp585
V2018-12-21 22:26
p586
aV232.5
p587
aV0.909
p588
aV0.889
p589
aI00
aa(lp590
V2018-12-21 16:58
p591
aV232.5
p592
aV0.90
p593
aV0.909
p594
aI00
aa(lp595
V2018-12-21 06:48
p596
aV234.5
p597
aV0.909
p598
aV0.889
p599
aI00
aasS'game_id'
p600
S'326049'
p601
sS'bet365'
p602
(lp603
(lp604
V2018-12-22 11:21
p605
aV234.5
p606
aV0.90
p607
aV0.90
p608
aI00
aa(lp609
V2018-12-22 09:56
p610
aV233.5
p611
aV0.90
p612
aV0.90
p613
aI00
aa(lp614
V2018-12-22 09:53
p615
aV234
p616
aV0.90
p617
aV0.90
p618
aI00
aa(lp619
V2018-12-22 09:42
p620
aV232.5
p621
aV0.90
p622
aV0.90
p623
aI00
aa(lp624
V2018-12-22 09:02
p625
aV232
p626
aV0.90
p627
aV0.90
p628
aI00
aa(lp629
V2018-12-22 06:19
p630
aV231.5
p631
aV0.90
p632
aV0.90
p633
aI00
aa(lp634
V2018-12-22 04:25
p635
aV231
p636
aV0.90
p637
aV0.90
p638
aI00
aa(lp639
V2018-12-22 03:18
p640
aV230.5
p641
aV0.90
p642
aV0.90
p643
aI00
aa(lp644
V2018-12-22 02:56
p645
aV232.5
p646
aV0.90
p647
aV0.90
p648
aI00
aa(lp649
V2018-12-21 23:06
p650
aV233
p651
aV0.90
p652
aV0.90
p653
aI00
aa(lp654
V2018-12-21 22:42
p655
aV234
p656
aV0.90
p657
aV0.90
p658
aI00
aa(lp659
V2018-12-21 22:25
p660
aV234
p661
aV0.90
p662
aV0.76
p663
aI00
aa(lp664
V2018-12-21 16:58
p665
aV233.5
p666
aV0.90
p667
aV0.90
p668
aI00
aa(lp669
V2018-12-21 06:45
p670
aV234
p671
aV0.90
p672
aV0.90
p673
aI00
aassb.