ccopy_reg
_reconstructor
p0
(cmy_oddsportal.items
WinOverUnderItem
p1
c__builtin__
object
p2
Ntp3
Rp4
(dp5
S'_values'
p6
(dp7
S'ysb8'
p8
(lp9
(lp10
V2018-12-20 10:48
p11
aV201.5
p12
aV0.85
p13
aV1.01
p14
aI00
aa(lp15
V2018-12-20 10:30
p16
aV201.5
p17
aV0.84
p18
aV1.03
p19
aI00
aa(lp20
V2018-12-20 10:24
p21
aV201.5
p22
aV0.88
p23
aV0.98
p24
aI00
aa(lp25
V2018-12-20 10:18
p26
aV201.5
p27
aV0.92
p28
aV0.94
p29
aI00
aa(lp30
V2018-12-20 10:09
p31
aV201.5
p32
aV0.90
p33
aV0.96
p34
aI00
aa(lp35
V2018-12-20 05:50
p36
aV201.5
p37
aV0.88
p38
aV0.98
p39
aI00
aa(lp40
V2018-12-20 05:05
p41
aV201
p42
aV0.84
p43
aV1.03
p44
aI00
aa(lp45
V2018-12-20 04:14
p46
aV201
p47
aV0.88
p48
aV0.98
p49
aI00
aa(lp50
V2018-12-20 03:15
p51
aV201
p52
aV0.82
p53
aV1.05
p54
aI00
aa(lp55
V2018-12-20 02:02
p56
aV201
p57
aV0.84
p58
aV1.03
p59
aI00
aa(lp60
V2018-12-20 01:31
p61
aV201
p62
aV0.88
p63
aV0.98
p64
aI00
aa(lp65
V2018-12-20 01:26
p66
aV201
p67
aV0.96
p68
aV0.90
p69
aI00
aa(lp70
V2018-12-20 00:58
p71
aV201
p72
aV0.94
p73
aV0.92
p74
aI00
aa(lp75
V2018-12-20 00:48
p76
aV201
p77
aV0.96
p78
aV0.90
p79
aI00
aa(lp80
V2018-12-20 00:39
p81
aV201
p82
aV0.94
p83
aV0.92
p84
aI00
aa(lp85
V2018-12-20 00:38
p86
aV201
p87
aV0.97
p88
aV0.89
p89
aI00
aa(lp90
V2018-12-20 00:28
p91
aV201
p92
aV0.94
p93
aV0.92
p94
aI00
aa(lp95
V2018-12-20 00:23
p96
aV201
p97
aV0.91
p98
aV0.95
p99
aI00
aa(lp100
V2018-12-20 00:17
p101
aV201
p102
aV0.94
p103
aV0.92
p104
aI00
aa(lp105
V2018-12-20 00:16
p106
aV201
p107
aV0.97
p108
aV0.89
p109
aI00
aa(lp110
V2018-12-20 00:07
p111
aV201
p112
aV0.94
p113
aV0.92
p114
aI00
aa(lp115
V2018-12-20 00:06
p116
aV201
p117
aV0.97
p118
aV0.89
p119
aI00
aa(lp120
V2018-12-19 23:56
p121
aV201
p122
aV0.94
p123
aV0.92
p124
aI00
aa(lp125
V2018-12-19 23:52
p126
aV201
p127
aV0.91
p128
aV0.95
p129
aI00
aasS'macau'
p130
(lp131
(lp132
V2018-12-20 00:11
p133
aV201.5
p134
aV0.85
p135
aV0.85
p136
aI00
aasS'title'
p137
V\u000a                \u6ce2\u7279\u862d\u62d3\u8352\u8005\u000a                vs\u000a                \u5b5f\u83f2\u65af\u7070\u718a\u000a            
p138
sS'crown'
p139
(lp140
(lp141
V2018-12-20 10:45
p142
aV201.5
p143
aV0.86
p144
aV1.00
p145
aI00
aa(lp146
V2018-12-20 10:28
p147
aV201.5
p148
aV0.84
p149
aV1.02
p150
aI00
aa(lp151
V2018-12-20 10:22
p152
aV201.5
p153
aV0.89
p154
aV0.97
p155
aI00
aa(lp156
V2018-12-20 10:09
p157
aV201.5
p158
aV0.91
p159
aV0.95
p160
aI00
aa(lp161
V2018-12-20 10:09
p162
aV201.5
p163
aV0.93
p164
aV0.93
p165
aI00
aa(lp166
V2018-12-20 10:08
p167
aV201.5
p168
aV0.91
p169
aV0.95
p170
aI00
aa(lp171
V2018-12-20 08:30
p172
aV201.5
p173
aV0.93
p174
aV0.93
p175
aI00
aa(lp176
V2018-12-20 08:29
p177
aV200.5
p178
aV0.83
p179
aV1.03
p180
aI00
aa(lp181
V2018-12-20 08:08
p182
aV201.5
p183
aV0.93
p184
aV0.93
p185
aI00
aa(lp186
V2018-12-20 08:07
p187
aV200.5
p188
aV0.83
p189
aV1.03
p190
aI00
aa(lp191
V2018-12-20 05:04
p192
aV201.5
p193
aV0.93
p194
aV0.93
p195
aI00
aa(lp196
V2018-12-20 04:15
p197
aV201.5
p198
aV0.94
p199
aV0.92
p200
aI00
aa(lp201
V2018-12-20 03:57
p202
aV201.5
p203
aV0.92
p204
aV0.92
p205
aI00
aa(lp206
V2018-12-20 03:31
p207
aV201.5
p208
aV0.85
p209
aV0.99
p210
aI00
aa(lp211
V2018-12-19 23:28
p212
aV201.5
p213
aV0.92
p214
aV0.92
p215
aI00
aasS'sbo'
p216
(lp217
(lp218
V2018-12-20 07:06
p219
aV201
p220
aV0.83
p221
aV1.05
p222
aI00
aa(lp223
V2018-12-20 05:05
p224
aV201
p225
aV0.85
p226
aV1.03
p227
aI00
aa(lp228
V2018-12-20 04:13
p229
aV201
p230
aV0.90
p231
aV0.98
p232
aI00
aa(lp233
V2018-12-20 03:15
p234
aV201
p235
aV0.83
p236
aV1.05
p237
aI00
aa(lp238
V2018-12-20 02:01
p239
aV201
p240
aV0.85
p241
aV1.03
p242
aI00
aa(lp243
V2018-12-20 01:30
p244
aV201
p245
aV0.90
p246
aV0.98
p247
aI00
aa(lp248
V2018-12-20 01:30
p249
aV201
p250
aV0.93
p251
aV0.95
p252
aI00
aa(lp253
V2018-12-20 01:25
p254
aV201
p255
aV0.98
p256
aV0.90
p257
aI00
aa(lp258
V2018-12-20 00:58
p259
aV201
p260
aV0.96
p261
aV0.92
p262
aI00
aa(lp263
V2018-12-20 00:47
p264
aV201
p265
aV0.98
p266
aV0.90
p267
aI00
aa(lp268
V2018-12-20 00:46
p269
aV201
p270
aV0.95
p271
aV0.93
p272
aI00
aa(lp273
V2018-12-20 00:38
p274
aV201
p275
aV0.96
p276
aV0.92
p277
aI00
aa(lp278
V2018-12-20 00:38
p279
aV201
p280
aV0.99
p281
aV0.89
p282
aI00
aa(lp283
V2018-12-20 00:27
p284
aV201
p285
aV0.96
p286
aV0.92
p287
aI00
aa(lp288
V2018-12-20 00:23
p289
aV201
p290
aV0.93
p291
aV0.95
p292
aI00
aa(lp293
V2018-12-20 00:16
p294
aV201
p295
aV0.96
p296
aV0.92
p297
aI00
aa(lp298
V2018-12-20 00:15
p299
aV201
p300
aV0.99
p301
aV0.89
p302
aI00
aa(lp303
V2018-12-20 00:06
p304
aV201
p305
aV0.96
p306
aV0.92
p307
aI00
aa(lp308
V2018-12-20 00:05
p309
aV201
p310
aV0.99
p311
aV0.89
p312
aI00
aa(lp313
V2018-12-19 23:55
p314
aV201
p315
aV0.96
p316
aV0.92
p317
aI00
aa(lp318
V2018-12-19 23:45
p319
aV201
p320
aV0.93
p321
aV0.95
p322
aI00
aasS'wade'
p323
(lp324
(lp325
V2018-12-20 10:49
p326
aV201.5
p327
aV0.87
p328
aV1.00
p329
aI00
aa(lp330
V2018-12-20 10:30
p331
aV202.5
p332
aV0.952
p333
aV0.909
p334
aI00
aa(lp335
V2018-12-20 10:27
p336
aV201.5
p337
aV0.87
p338
aV1.00
p339
aI00
aa(lp340
V2018-12-20 10:26
p341
aV201.5
p342
aV0.875
p343
aV1.00
p344
aI00
aa(lp345
V2018-12-20 10:01
p346
aV201.5
p347
aV0.909
p348
aV0.952
p349
aI00
aa(lp350
V2018-12-20 09:51
p351
aV201.5
p352
aV0.875
p353
aV0.925
p354
aI00
aa(lp355
V2018-12-20 05:07
p356
aV201.5
p357
aV0.87
p358
aV0.925
p359
aI00
aa(lp360
V2018-12-20 05:04
p361
aV201.5
p362
aV0.875
p363
aV0.925
p364
aI00
aa(lp365
V2018-12-20 04:14
p366
aV201.5
p367
aV0.909
p368
aV0.889
p369
aI00
aa(lp370
V2018-12-20 04:02
p371
aV201.5
p372
aV0.85
p373
aV0.95
p374
aI00
aa(lp375
V2018-12-20 04:00
p376
aV202.5
p377
aV0.952
p378
aV0.85
p379
aI00
aa(lp380
V2018-12-20 03:37
p381
aV202.5
p382
aV0.909
p383
aV0.90
p384
aI00
aa(lp385
V2018-12-20 03:33
p386
aV202.5
p387
aV0.90
p388
aV0.909
p389
aI00
aa(lp390
V2018-12-20 03:25
p391
aV201.5
p392
aV0.85
p393
aV0.952
p394
aI00
aa(lp395
V2018-12-20 03:15
p396
aV201.5
p397
aV0.85
p398
aV0.95
p399
aI00
aa(lp400
V2018-12-20 03:13
p401
aV201.5
p402
aV0.889
p403
aV0.909
p404
aI00
aa(lp405
V2018-12-20 02:02
p406
aV201.5
p407
aV0.875
p408
aV0.925
p409
aI00
aa(lp410
V2018-12-20 01:33
p411
aV201.5
p412
aV0.90
p413
aV0.909
p414
aI00
aa(lp415
V2018-12-20 01:29
p416
aV201.5
p417
aV0.95
p418
aV0.85
p419
aI00
aa(lp420
V2018-12-20 00:26
p421
aV201.5
p422
aV0.925
p423
aV0.87
p424
aI00
aa(lp425
V2018-12-20 00:22
p426
aV201.5
p427
aV0.952
p428
aV0.85
p429
aI00
aa(lp430
V2018-12-19 23:52
p431
aV201.5
p432
aV0.925
p433
aV0.87
p434
aI00
aa(lp435
V2018-12-19 23:32
p436
aV201.5
p437
aV0.925
p438
aV0.875
p439
aI00
aa(lp440
V2018-12-19 23:02
p441
aV201.5
p442
aV0.909
p443
aV0.889
p444
aI00
aa(lp445
V2018-12-19 22:59
p446
aV201.5
p447
aV0.90
p448
aV0.909
p449
aI00
aa(lp450
V2018-12-19 19:14
p451
aV201.5
p452
aV0.90
p453
aV0.90
p454
aI00
aasS'game_id'
p455
S'326036'
p456
sS'bet365'
p457
(lp458
(lp459
V2018-12-20 04:14
p460
aV201.5
p461
aV0.90
p462
aV0.90
p463
aI00
aa(lp464
V2018-12-20 04:00
p465
aV202
p466
aV0.90
p467
aV0.90
p468
aI00
aa(lp469
V2018-12-20 03:33
p470
aV202.5
p471
aV0.90
p472
aV0.90
p473
aI00
aa(lp474
V2018-12-20 03:22
p475
aV202
p476
aV0.90
p477
aV0.90
p478
aI00
aa(lp479
V2018-12-20 00:49
p480
aV201.5
p481
aV0.90
p482
aV0.90
p483
aI00
aa(lp484
V2018-12-19 23:53
p485
aV201
p486
aV0.90
p487
aV0.90
p488
aI00
aa(lp489
V2018-12-19 22:57
p490
aV201.5
p491
aV0.90
p492
aV0.90
p493
aI00
aa(lp494
V2018-12-19 15:59
p495
aV201
p496
aV0.90
p497
aV0.90
p498
aI00
aassb.