ccopy_reg
_reconstructor
p0
(cmy_oddsportal.items
WinOverUnderItem
p1
c__builtin__
object
p2
Ntp3
Rp4
(dp5
S'_values'
p6
(dp7
S'ysb8'
p8
(lp9
(lp10
V2018-12-20 10:48
p11
aV233.5
p12
aV1.06
p13
aV0.81
p14
aI00
aa(lp15
V2018-12-20 09:24
p16
aV233.5
p17
aV1.03
p18
aV0.84
p19
aI00
aa(lp20
V2018-12-20 09:21
p21
aV233.5
p22
aV1.00
p23
aV0.86
p24
aI00
aa(lp25
V2018-12-20 09:13
p26
aV233.5
p27
aV1.06
p28
aV0.81
p29
aI00
aa(lp30
V2018-12-20 07:58
p31
aV233.5
p32
aV1.03
p33
aV0.84
p34
aI00
aa(lp35
V2018-12-20 07:08
p36
aV233.5
p37
aV1.09
p38
aV0.79
p39
aI00
aa(lp40
V2018-12-20 07:08
p41
aV233.5
p42
aV1.03
p43
aV0.84
p44
aI00
aa(lp45
V2018-12-20 07:06
p46
aV233.5
p47
aV1.01
p48
aV0.85
p49
aI00
aa(lp50
V2018-12-20 06:59
p51
aV233.5
p52
aV1.15
p53
aV0.75
p54
aI00
aa(lp55
V2018-12-20 06:53
p56
aV234.5
p57
aV1.23
p58
aV0.70
p59
aI00
aa(lp60
V2018-12-20 06:44
p61
aV234.5
p62
aV1.18
p63
aV0.73
p64
aI00
aa(lp65
V2018-12-20 06:16
p66
aV235
p67
aV1.10
p68
aV0.78
p69
aI00
aa(lp70
V2018-12-20 04:23
p71
aV235
p72
aV1.08
p73
aV0.80
p74
aI00
aa(lp75
V2018-12-20 04:14
p76
aV235
p77
aV1.04
p78
aV0.83
p79
aI00
aa(lp80
V2018-12-20 01:34
p81
aV235
p82
aV0.97
p83
aV0.89
p84
aI00
aa(lp85
V2018-12-20 01:33
p86
aV235
p87
aV0.95
p88
aV0.91
p89
aI00
aa(lp90
V2018-12-20 01:04
p91
aV235
p92
aV0.91
p93
aV0.95
p94
aI00
aa(lp95
V2018-12-20 00:58
p96
aV235
p97
aV0.88
p98
aV0.98
p99
aI00
aa(lp100
V2018-12-20 00:53
p101
aV235
p102
aV0.86
p103
aV1.00
p104
aI00
aa(lp105
V2018-12-19 23:11
p106
aV235
p107
aV0.96
p108
aV0.90
p109
aI00
aa(lp110
V2018-12-19 22:46
p111
aV235
p112
aV1.01
p113
aV0.85
p114
aI00
aa(lp115
V2018-12-19 19:12
p116
aV235
p117
aV1.05
p118
aV0.82
p119
aI00
aa(lp120
V2018-12-19 17:27
p121
aV235
p122
aV1.00
p123
aV0.86
p124
aI00
aa(lp125
V2018-12-19 15:00
p126
aV235
p127
aV0.96
p128
aV0.90
p129
aI00
aa(lp130
V2018-12-19 14:59
p131
aV235
p132
aV0.93
p133
aV0.93
p134
aI00
aa(lp135
V2018-12-19 12:56
p136
aV235
p137
aV0.90
p138
aV0.96
p139
aI00
aa(lp140
V2018-12-19 12:23
p141
aV235
p142
aV0.92
p143
aV0.94
p144
aI00
aasS'macau'
p145
(lp146
(lp147
V2018-12-20 07:08
p148
aV232.5
p149
aV0.85
p150
aV0.85
p151
aI00
aa(lp152
V2018-12-19 13:55
p153
aV235.5
p154
aV0.85
p155
aV0.85
p156
aI00
aasS'title'
p157
V\u000a                \u85a9\u514b\u62c9\u9580\u6258\u5e1d\u738b\u000a                vs\u000a                \u5967\u514b\u62c9\u8377\u99ac\u96f7\u9706\u000a            
p158
sS'crown'
p159
(lp160
(lp161
V2018-12-20 09:22
p162
aV232.5
p163
aV0.93
p164
aV0.93
p165
aI00
aa(lp166
V2018-12-20 09:21
p167
aV232.5
p168
aV0.92
p169
aV0.94
p170
aI00
aa(lp171
V2018-12-20 09:14
p172
aV232.5
p173
aV0.98
p174
aV0.88
p175
aI00
aa(lp176
V2018-12-20 09:14
p177
aV232.5
p178
aV1.01
p179
aV0.85
p180
aI00
aa(lp181
V2018-12-20 09:12
p182
aV232.5
p183
aV0.98
p184
aV0.88
p185
aI00
aa(lp186
V2018-12-20 09:12
p187
aV233.5
p188
aV1.08
p189
aV0.78
p190
aI00
aa(lp191
V2018-12-20 07:06
p192
aV232.5
p193
aV0.98
p194
aV0.88
p195
aI00
aa(lp196
V2018-12-20 06:57
p197
aV232.5
p198
aV1.03
p199
aV0.83
p200
aI00
aa(lp201
V2018-12-20 06:50
p202
aV232.5
p203
aV0.93
p204
aV0.93
p205
aI00
aa(lp206
V2018-12-20 06:42
p207
aV233.5
p208
aV1.03
p209
aV0.83
p210
aI00
aa(lp211
V2018-12-20 06:23
p212
aV233.5
p213
aV0.94
p214
aV0.92
p215
aI00
aa(lp216
V2018-12-20 06:18
p217
aV233.5
p218
aV0.96
p219
aV0.90
p220
aI00
aa(lp221
V2018-12-20 05:45
p222
aV233.5
p223
aV0.90
p224
aV0.96
p225
aI00
aa(lp226
V2018-12-20 05:45
p227
aV232.5
p228
aV0.80
p229
aV1.06
p230
aI00
aa(lp231
V2018-12-20 04:16
p232
aV233.5
p233
aV0.90
p234
aV0.96
p235
aI00
aa(lp236
V2018-12-20 04:16
p237
aV234.5
p238
aV0.90
p239
aV0.96
p240
aI00
aa(lp241
V2018-12-20 00:54
p242
aV234.5
p243
aV0.88
p244
aV0.96
p245
aI00
aa(lp246
V2018-12-20 00:53
p247
aV234.5
p248
aV0.85
p249
aV0.99
p250
aI00
aa(lp251
V2018-12-19 21:23
p252
aV234.5
p253
aV0.92
p254
aV0.92
p255
aI00
aa(lp256
V2018-12-19 21:17
p257
aV234.5
p258
aV0.94
p259
aV0.90
p260
aI00
aa(lp261
V2018-12-19 19:52
p262
aV234.5
p263
aV0.96
p264
aV0.88
p265
aI00
aa(lp266
V2018-12-19 18:43
p267
aV235.5
p268
aV1.06
p269
aV0.78
p270
aI00
aa(lp271
V2018-12-19 18:32
p272
aV235.5
p273
aV1.02
p274
aV0.82
p275
aI00
aa(lp276
V2018-12-19 17:46
p277
aV235.5
p278
aV1.04
p279
aV0.80
p280
aI00
aa(lp281
V2018-12-19 17:16
p282
aV235.5
p283
aV1.01
p284
aV0.83
p285
aI00
aa(lp286
V2018-12-19 17:09
p287
aV235.5
p288
aV1.03
p289
aV0.81
p290
aI00
aa(lp291
V2018-12-19 15:23
p292
aV235.5
p293
aV0.99
p294
aV0.85
p295
aI00
aa(lp296
V2018-12-19 12:32
p297
aV235.5
p298
aV0.97
p299
aV0.87
p300
aI00
aasS'sbo'
p301
(lp302
(lp303
V2018-12-20 10:42
p304
aV233
p305
aV0.97
p306
aV0.91
p307
aI00
aa(lp308
V2018-12-20 10:18
p309
aV233
p310
aV0.98
p311
aV0.90
p312
aI00
aa(lp313
V2018-12-20 09:21
p314
aV233
p315
aV0.97
p316
aV0.91
p317
aI00
aa(lp318
V2018-12-20 09:13
p319
aV233
p320
aV1.03
p321
aV0.85
p322
aI00
aa(lp323
V2018-12-20 07:06
p324
aV233
p325
aV0.99
p326
aV0.89
p327
aI00
aa(lp328
V2018-12-20 07:06
p329
aV233
p330
aV0.98
p331
aV0.90
p332
aI00
aa(lp333
V2018-12-20 06:58
p334
aV233
p335
aV1.08
p336
aV0.80
p337
aI00
aa(lp338
V2018-12-20 06:52
p339
aV234
p340
aV1.14
p341
aV0.75
p342
aI00
aa(lp343
V2018-12-20 06:44
p344
aV234
p345
aV1.08
p346
aV0.80
p347
aI00
aa(lp348
V2018-12-20 06:43
p349
aV234
p350
aV1.11
p351
aV0.78
p352
aI00
aa(lp353
V2018-12-20 06:15
p354
aV235
p355
aV1.11
p356
aV0.78
p357
aI00
aa(lp358
V2018-12-20 04:22
p359
aV235
p360
aV1.08
p361
aV0.80
p362
aI00
aa(lp363
V2018-12-20 04:13
p364
aV235
p365
aV1.05
p366
aV0.83
p367
aI00
aa(lp368
V2018-12-20 01:33
p369
aV235
p370
aV0.99
p371
aV0.89
p372
aI00
aa(lp373
V2018-12-20 01:32
p374
aV235
p375
aV0.97
p376
aV0.91
p377
aI00
aa(lp378
V2018-12-20 01:04
p379
aV235
p380
aV0.93
p381
aV0.95
p382
aI00
aa(lp383
V2018-12-20 00:57
p384
aV235
p385
aV0.90
p386
aV0.98
p387
aI00
aa(lp388
V2018-12-20 00:52
p389
aV235
p390
aV0.88
p391
aV1.00
p392
aI00
aa(lp393
V2018-12-19 23:46
p394
aV235
p395
aV0.97
p396
aV0.91
p397
aI00
aa(lp398
V2018-12-19 23:11
p399
aV235
p400
aV0.98
p401
aV0.90
p402
aI00
aa(lp403
V2018-12-19 22:47
p404
aV235
p405
aV1.02
p406
aV0.86
p407
aI00
aa(lp408
V2018-12-19 22:46
p409
aV235
p410
aV1.03
p411
aV0.85
p412
aI00
aa(lp413
V2018-12-19 22:34
p414
aV235
p415
aV1.05
p416
aV0.83
p417
aI00
aa(lp418
V2018-12-19 22:33
p419
aV235
p420
aV1.03
p421
aV0.85
p422
aI00
aa(lp423
V2018-12-19 19:11
p424
aV235
p425
aV1.06
p426
aV0.82
p427
aI00
aa(lp428
V2018-12-19 17:26
p429
aV235
p430
aV1.02
p431
aV0.86
p432
aI00
aa(lp433
V2018-12-19 14:59
p434
aV235
p435
aV0.98
p436
aV0.90
p437
aI00
aa(lp438
V2018-12-19 14:58
p439
aV235
p440
aV0.95
p441
aV0.93
p442
aI00
aa(lp443
V2018-12-19 12:56
p444
aV235
p445
aV0.92
p446
aV0.96
p447
aI00
aa(lp448
V2018-12-19 11:21
p449
aV235
p450
aV0.94
p451
aV0.94
p452
aI00
aa(lp453
V2018-12-19 09:25
p454
aV235
p455
aV0.93
p456
aV0.95
p457
aI00
aa(lp458
V2018-12-19 09:16
p459
aV235.5
p460
aV0.98
p461
aV0.90
p462
aI00
aa(lp463
V2018-12-19 08:47
p464
aV235.5
p465
aV0.96
p466
aV0.90
p467
aI00
aa(lp468
V2018-12-19 07:27
p469
aV235.5
p470
aV0.92
p471
aV0.94
p472
aI00
aasS'wade'
p473
(lp474
(lp475
V2018-12-20 10:50
p476
aV232.5
p477
aV0.952
p478
aV0.925
p479
aI00
aa(lp480
V2018-12-20 10:42
p481
aV232.5
p482
aV0.952
p483
aV0.909
p484
aI00
aa(lp485
V2018-12-20 10:26
p486
aV232.5
p487
aV0.95
p488
aV0.925
p489
aI00
aa(lp490
V2018-12-20 10:03
p491
aV232.5
p492
aV0.925
p493
aV0.952
p494
aI00
aa(lp495
V2018-12-20 09:23
p496
aV232.5
p497
aV0.889
p498
aV0.909
p499
aI00
aa(lp500
V2018-12-20 09:14
p501
aV231.5
p502
aV0.85
p503
aV0.952
p504
aI00
aa(lp505
V2018-12-20 07:08
p506
aV231.5
p507
aV0.833
p508
aV0.952
p509
aI00
aa(lp510
V2018-12-20 06:58
p511
aV231.5
p512
aV0.85
p513
aV0.95
p514
aI00
aa(lp515
V2018-12-20 06:53
p516
aV232.5
p517
aV0.95
p518
aV0.85
p519
aI00
aa(lp520
V2018-12-20 06:46
p521
aV232.5
p522
aV0.90
p523
aV0.90
p524
aI00
aa(lp525
V2018-12-20 06:21
p526
aV233.5
p527
aV0.909
p528
aV0.889
p529
aI00
aa(lp530
V2018-12-20 06:16
p531
aV233.5
p532
aV0.925
p533
aV0.875
p534
aI00
aa(lp535
V2018-12-20 04:16
p536
aV234.5
p537
aV0.925
p538
aV0.875
p539
aI00
aa(lp540
V2018-12-20 01:37
p541
aV234.5
p542
aV0.889
p543
aV0.909
p544
aI00
aa(lp545
V2018-12-20 01:05
p546
aV235.5
p547
aV0.95
p548
aV0.87
p549
aI00
aa(lp550
V2018-12-20 01:01
p551
aV235.5
p552
aV0.925
p553
aV0.875
p554
aI00
aa(lp555
V2018-12-20 00:57
p556
aV235.5
p557
aV0.90
p558
aV0.909
p559
aI00
aa(lp560
V2018-12-19 23:22
p561
aV234.5
p562
aV0.87
p563
aV0.925
p564
aI00
aa(lp565
V2018-12-19 18:48
p566
aV234.5
p567
aV0.925
p568
aV0.875
p569
aI00
aa(lp570
V2018-12-19 17:49
p571
aV234.5
p572
aV0.909
p573
aV0.889
p574
aI00
aa(lp575
V2018-12-19 17:16
p576
aV234.5
p577
aV0.90
p578
aV0.909
p579
aI00
aa(lp580
V2018-12-19 17:11
p581
aV234.5
p582
aV0.909
p583
aV0.90
p584
aI00
aa(lp585
V2018-12-19 15:26
p586
aV234.5
p587
aV0.875
p588
aV0.925
p589
aI00
aa(lp590
V2018-12-19 15:07
p591
aV234.5
p592
aV0.85
p593
aV0.95
p594
aI00
aa(lp595
V2018-12-19 15:03
p596
aV234.5
p597
aV0.87
p598
aV0.925
p599
aI00
aa(lp600
V2018-12-19 15:01
p601
aV235.5
p602
aV0.975
p603
aV0.833
p604
aI00
aa(lp605
V2018-12-19 14:59
p606
aV235.5
p607
aV0.95
p608
aV0.85
p609
aI00
aa(lp610
V2018-12-19 13:46
p611
aV235.5
p612
aV0.925
p613
aV0.87
p614
aI00
aa(lp615
V2018-12-19 13:43
p616
aV235.5
p617
aV0.95
p618
aV0.85
p619
aI00
aa(lp620
V2018-12-19 12:56
p621
aV235.5
p622
aV0.925
p623
aV0.87
p624
aI00
aa(lp625
V2018-12-19 12:19
p626
aV235.5
p627
aV0.95
p628
aV0.85
p629
aI00
aa(lp630
V2018-12-19 11:04
p631
aV234.5
p632
aV0.87
p633
aV0.925
p634
aI00
aa(lp635
V2018-12-19 08:50
p636
aV235.5
p637
aV0.909
p638
aV0.889
p639
aI00
aa(lp640
V2018-12-19 08:48
p641
aV235.5
p642
aV0.90
p643
aV0.909
p644
aI00
aa(lp645
V2018-12-19 07:37
p646
aV235.5
p647
aV0.875
p648
aV0.925
p649
aI00
aa(lp650
V2018-12-19 07:36
p651
aV235.5
p652
aV0.90
p653
aV0.909
p654
aI00
aa(lp655
V2018-12-19 06:10
p656
aV237.5
p657
aV0.925
p658
aV0.875
p659
aI00
aa(lp660
V2018-12-19 06:05
p661
aV237.5
p662
aV0.95
p663
aV0.85
p664
aI00
aasS'game_id'
p665
S'326037'
p666
sS'bet365'
p667
(lp668
(lp669
V2018-12-20 07:09
p670
aV232
p671
aV0.90
p672
aV0.90
p673
aI00
aa(lp674
V2018-12-20 06:58
p675
aV231.5
p676
aV0.90
p677
aV0.90
p678
aI00
aa(lp679
V2018-12-20 06:55
p680
aV232
p681
aV0.90
p682
aV0.90
p683
aI00
aa(lp684
V2018-12-20 06:45
p685
aV232.5
p686
aV0.90
p687
aV0.90
p688
aI00
aa(lp689
V2018-12-20 06:09
p690
aV233
p691
aV0.90
p692
aV0.90
p693
aI00
aa(lp694
V2018-12-20 04:13
p695
aV234
p696
aV0.90
p697
aV0.90
p698
aI00
aa(lp699
V2018-12-20 02:19
p700
aV234.5
p701
aV0.90
p702
aV0.90
p703
aI00
aa(lp704
V2018-12-20 00:56
p705
aV235
p706
aV0.90
p707
aV0.90
p708
aI00
aa(lp709
V2018-12-20 00:01
p710
aV234.5
p711
aV0.90
p712
aV0.90
p713
aI00
aa(lp714
V2018-12-19 23:53
p715
aV235
p716
aV0.90
p717
aV0.90
p718
aI00
aa(lp719
V2018-12-19 23:20
p720
aV234.5
p721
aV0.90
p722
aV0.90
p723
aI00
aa(lp724
V2018-12-19 22:32
p725
aV234
p726
aV0.90
p727
aV0.90
p728
aI00
aa(lp729
V2018-12-19 21:16
p730
aV235.5
p731
aV0.95
p732
aV0.86
p733
aI00
aa(lp734
V2018-12-19 14:59
p735
aV235
p736
aV0.90
p737
aV0.90
p738
aI00
aa(lp739
V2018-12-19 12:18
p740
aV235.5
p741
aV0.90
p742
aV0.90
p743
aI00
aa(lp744
V2018-12-19 11:03
p745
aV235
p746
aV0.90
p747
aV0.90
p748
aI00
aa(lp749
V2018-12-19 11:02
p750
aV236
p751
aV0.95
p752
aV0.86
p753
aI00
aa(lp754
V2018-12-19 08:48
p755
aV236
p756
aV0.90
p757
aV0.90
p758
aI00
aa(lp759
V2018-12-19 07:36
p760
aV236.5
p761
aV0.90
p762
aV0.90
p763
aI00
aa(lp764
V2018-12-19 07:35
p765
aV236
p766
aV0.90
p767
aV0.90
p768
aI00
aa(lp769
V2018-12-19 06:02
p770
aV237
p771
aV0.90
p772
aV0.90
p773
aI00
aassb.